

Microchip MPLAB XC8 Assembler V2.10 build 88905656 
                                                                                               Sun Jul  5 14:36:36 2020

Microchip MPLAB XC8 C Compiler v2.10 (Free license) build 20190730164152 Og1 
     1                           	processor	16F877A
     2                           	opt	pw 120
     3                           	opt	flic
     4                           	psect	idataBANK0,global,class=CODE,delta=2
     5                           	psect	cinit,global,class=CODE,merge=1,delta=2
     6                           	psect	dataBANK0,global,class=BANK0,space=1,delta=1
     7                           	psect	inittext,global,class=CODE,delta=2
     8                           	psect	cstackCOMMON,global,class=COMMON,space=1,delta=1
     9                           	psect	cstackBANK0,global,class=BANK0,space=1,delta=1
    10                           	psect	maintext,global,class=CODE,split=1,delta=2
    11                           	psect	text1,local,class=CODE,merge=1,delta=2
    12                           	psect	text2,local,class=CODE,merge=1,delta=2
    13                           	psect	text3,local,class=CODE,merge=1,delta=2
    14                           	psect	text4,local,class=CODE,merge=1,delta=2
    15                           	psect	text5,local,class=CODE,merge=1,delta=2
    16                           	psect	text6,local,class=CODE,merge=1,delta=2,group=1
    17                           	psect	text7,local,class=CODE,merge=1,delta=2,group=1
    18                           	psect	text8,local,class=CODE,merge=1,delta=2,group=1
    19                           	psect	text9,local,class=CODE,merge=1,delta=2,group=1
    20                           	psect	text10,local,class=CODE,merge=1,delta=2,group=1
    21                           	psect	text11,local,class=CODE,merge=1,delta=2,group=1
    22                           	psect	text12,local,class=CODE,merge=1,delta=2,group=1
    23                           	dabs	1,0x7E,2
    24  0000                     
    25                           ; Version 2.10
    26                           ; Generated 31/07/2019 GMT
    27                           ; 
    28                           ; Copyright © 2019, Microchip Technology Inc. and its subsidiaries ("Microchip")
    29                           ; All rights reserved.
    30                           ; 
    31                           ; This software is developed by Microchip Technology Inc. and its subsidiaries ("Microch
      +                          ip").
    32                           ; 
    33                           ; Redistribution and use in source and binary forms, with or without modification, are
    34                           ; permitted provided that the following conditions are met:
    35                           ; 
    36                           ;     1. Redistributions of source code must retain the above copyright notice, this lis
      +                          t of
    37                           ;        conditions and the following disclaimer.
    38                           ; 
    39                           ;     2. Redistributions in binary form must reproduce the above copyright notice, this 
      +                          list
    40                           ;        of conditions and the following disclaimer in the documentation and/or other
    41                           ;        materials provided with the distribution.
    42                           ; 
    43                           ;     3. Microchip's name may not be used to endorse or promote products derived from th
      +                          is
    44                           ;        software without specific prior written permission.
    45                           ; 
    46                           ; THIS SOFTWARE IS PROVIDED BY MICROCHIP "AS IS" AND ANY EXPRESS OR IMPLIED WARRANTIES,
    47                           ; INCLUDING, BUT NOT LIMITED TO, THE IMPLIED WARRANTIES OF MERCHANTABILITY AND FITNESS F
      +                          OR
    48                           ; PURPOSE ARE DISCLAIMED.  IN NO EVENT SHALL MICROCHIP BE LIABLE FOR ANY DIRECT, INDIREC
      +                          T,
    49                           ; INCIDENTAL, SPECIAL, EXEMPLARY, OR CONSEQUENTIAL DAMAGES (INCLUDING BUT NOT LIMITED TO
    50                           ; PROCUREMENT OF SUBSTITUTE GOODS OR SERVICES; LOSS OF USE, DATA OR PROFITS; OR BUSINESS
    51                           ; INTERRUPTION) HOWSOEVER CAUSED AND ON ANY THEORY OF LIABILITY, WHETHER IN CONTRACT, ST
      +                          RICT
    52                           ; LIABILITY, OR TORT (INCLUDING NEGLIGENCE OR OTHERWISE) ARISING IN ANY WAY OUT OF THE U
      +                          SE OF
    53                           ; THIS SOFTWARE, EVEN IF ADVISED OF THE POSSIBILITY OF SUCH DAMAGE.
    54                           ; 
    55                           ; 
    56                           ; Code-generator required, PIC16F877A Definitions
    57                           ; 
    58                           ; SFR Addresses
    59  0000                     	;# 
    60  0001                     	;# 
    61  0002                     	;# 
    62  0003                     	;# 
    63  0004                     	;# 
    64  0005                     	;# 
    65  0006                     	;# 
    66  0007                     	;# 
    67  0008                     	;# 
    68  0009                     	;# 
    69  000A                     	;# 
    70  000B                     	;# 
    71  000C                     	;# 
    72  000D                     	;# 
    73  000E                     	;# 
    74  000E                     	;# 
    75  000F                     	;# 
    76  0010                     	;# 
    77  0011                     	;# 
    78  0012                     	;# 
    79  0013                     	;# 
    80  0014                     	;# 
    81  0015                     	;# 
    82  0015                     	;# 
    83  0016                     	;# 
    84  0017                     	;# 
    85  0018                     	;# 
    86  0019                     	;# 
    87  001A                     	;# 
    88  001B                     	;# 
    89  001B                     	;# 
    90  001C                     	;# 
    91  001D                     	;# 
    92  001E                     	;# 
    93  001F                     	;# 
    94  0081                     	;# 
    95  0085                     	;# 
    96  0086                     	;# 
    97  0087                     	;# 
    98  0088                     	;# 
    99  0089                     	;# 
   100  008C                     	;# 
   101  008D                     	;# 
   102  008E                     	;# 
   103  0091                     	;# 
   104  0092                     	;# 
   105  0093                     	;# 
   106  0094                     	;# 
   107  0098                     	;# 
   108  0099                     	;# 
   109  009C                     	;# 
   110  009D                     	;# 
   111  009E                     	;# 
   112  009F                     	;# 
   113  010C                     	;# 
   114  010D                     	;# 
   115  010E                     	;# 
   116  010F                     	;# 
   117  018C                     	;# 
   118  018D                     	;# 
   119  0000                     	;# 
   120  0001                     	;# 
   121  0002                     	;# 
   122  0003                     	;# 
   123  0004                     	;# 
   124  0005                     	;# 
   125  0006                     	;# 
   126  0007                     	;# 
   127  0008                     	;# 
   128  0009                     	;# 
   129  000A                     	;# 
   130  000B                     	;# 
   131  000C                     	;# 
   132  000D                     	;# 
   133  000E                     	;# 
   134  000E                     	;# 
   135  000F                     	;# 
   136  0010                     	;# 
   137  0011                     	;# 
   138  0012                     	;# 
   139  0013                     	;# 
   140  0014                     	;# 
   141  0015                     	;# 
   142  0015                     	;# 
   143  0016                     	;# 
   144  0017                     	;# 
   145  0018                     	;# 
   146  0019                     	;# 
   147  001A                     	;# 
   148  001B                     	;# 
   149  001B                     	;# 
   150  001C                     	;# 
   151  001D                     	;# 
   152  001E                     	;# 
   153  001F                     	;# 
   154  0081                     	;# 
   155  0085                     	;# 
   156  0086                     	;# 
   157  0087                     	;# 
   158  0088                     	;# 
   159  0089                     	;# 
   160  008C                     	;# 
   161  008D                     	;# 
   162  008E                     	;# 
   163  0091                     	;# 
   164  0092                     	;# 
   165  0093                     	;# 
   166  0094                     	;# 
   167  0098                     	;# 
   168  0099                     	;# 
   169  009C                     	;# 
   170  009D                     	;# 
   171  009E                     	;# 
   172  009F                     	;# 
   173  010C                     	;# 
   174  010D                     	;# 
   175  010E                     	;# 
   176  010F                     	;# 
   177  018C                     	;# 
   178  018D                     	;# 
   179  0000                     	;# 
   180  0001                     	;# 
   181  0002                     	;# 
   182  0003                     	;# 
   183  0004                     	;# 
   184  0005                     	;# 
   185  0006                     	;# 
   186  0007                     	;# 
   187  0008                     	;# 
   188  0009                     	;# 
   189  000A                     	;# 
   190  000B                     	;# 
   191  000C                     	;# 
   192  000D                     	;# 
   193  000E                     	;# 
   194  000E                     	;# 
   195  000F                     	;# 
   196  0010                     	;# 
   197  0011                     	;# 
   198  0012                     	;# 
   199  0013                     	;# 
   200  0014                     	;# 
   201  0015                     	;# 
   202  0015                     	;# 
   203  0016                     	;# 
   204  0017                     	;# 
   205  0018                     	;# 
   206  0019                     	;# 
   207  001A                     	;# 
   208  001B                     	;# 
   209  001B                     	;# 
   210  001C                     	;# 
   211  001D                     	;# 
   212  001E                     	;# 
   213  001F                     	;# 
   214  0081                     	;# 
   215  0085                     	;# 
   216  0086                     	;# 
   217  0087                     	;# 
   218  0088                     	;# 
   219  0089                     	;# 
   220  008C                     	;# 
   221  008D                     	;# 
   222  008E                     	;# 
   223  0091                     	;# 
   224  0092                     	;# 
   225  0093                     	;# 
   226  0094                     	;# 
   227  0098                     	;# 
   228  0099                     	;# 
   229  009C                     	;# 
   230  009D                     	;# 
   231  009E                     	;# 
   232  009F                     	;# 
   233  010C                     	;# 
   234  010D                     	;# 
   235  010E                     	;# 
   236  010F                     	;# 
   237  018C                     	;# 
   238  018D                     	;# 
   239  0000                     	;# 
   240  0001                     	;# 
   241  0002                     	;# 
   242  0003                     	;# 
   243  0004                     	;# 
   244  0005                     	;# 
   245  0006                     	;# 
   246  0007                     	;# 
   247  0008                     	;# 
   248  0009                     	;# 
   249  000A                     	;# 
   250  000B                     	;# 
   251  000C                     	;# 
   252  000D                     	;# 
   253  000E                     	;# 
   254  000E                     	;# 
   255  000F                     	;# 
   256  0010                     	;# 
   257  0011                     	;# 
   258  0012                     	;# 
   259  0013                     	;# 
   260  0014                     	;# 
   261  0015                     	;# 
   262  0015                     	;# 
   263  0016                     	;# 
   264  0017                     	;# 
   265  0018                     	;# 
   266  0019                     	;# 
   267  001A                     	;# 
   268  001B                     	;# 
   269  001B                     	;# 
   270  001C                     	;# 
   271  001D                     	;# 
   272  001E                     	;# 
   273  001F                     	;# 
   274  0081                     	;# 
   275  0085                     	;# 
   276  0086                     	;# 
   277  0087                     	;# 
   278  0088                     	;# 
   279  0089                     	;# 
   280  008C                     	;# 
   281  008D                     	;# 
   282  008E                     	;# 
   283  0091                     	;# 
   284  0092                     	;# 
   285  0093                     	;# 
   286  0094                     	;# 
   287  0098                     	;# 
   288  0099                     	;# 
   289  009C                     	;# 
   290  009D                     	;# 
   291  009E                     	;# 
   292  009F                     	;# 
   293  010C                     	;# 
   294  010D                     	;# 
   295  010E                     	;# 
   296  010F                     	;# 
   297  018C                     	;# 
   298  018D                     	;# 
   299                           
   300                           	psect	idataBANK0
   301  0EF1                     __pidataBANK0:	
   302                           
   303                           ;initializer for main@F858
   304  0EF1  343F               	retlw	63
   305  0EF2  3406               	retlw	6
   306  0EF3  345B               	retlw	91
   307  0EF4  344F               	retlw	79
   308  0EF5  3466               	retlw	102
   309  0EF6  346D               	retlw	109
   310  0EF7  347D               	retlw	125
   311  0EF8  3407               	retlw	7
   312  0EF9  347F               	retlw	127
   313  0EFA  346F               	retlw	111
   314  0EFB  3439               	retlw	57
   315  0008                     _PORTD	set	8
   316  0005                     _PORTA	set	5
   317  001E                     _ADRESH	set	30
   318  001F                     _ADCON0	set	31
   319  00FA                     _nDONE	set	250
   320  00FA                     _GO	set	250
   321  00FE                     _ADCS0	set	254
   322  00FF                     _ADCS1	set	255
   323  00F8                     _ADON	set	248
   324  0085                     _TRISA	set	133
   325  0088                     _TRISD	set	136
   326  009E                     _ADRESL	set	158
   327  04FF                     _ADFM	set	1279
   328                           
   329                           ; #config settings
   330  0000                     
   331                           	psect	cinit
   332  07EE                     start_initialization:	
   333  07EE                     __initialization:	
   334                           
   335                           ; Initialize objects allocated to BANK0
   336  07EE  1383               	bcf	3,7	;select IRP bank0
   337  07EF  3062               	movlw	low (__pdataBANK0+11)
   338  07F0  00FD               	movwf	btemp+-1
   339  07F1  300E               	movlw	high __pidataBANK0
   340  07F2  00FE               	movwf	btemp
   341  07F3  30F1               	movlw	low __pidataBANK0
   342  07F4  00FF               	movwf	btemp+1
   343  07F5  3057               	movlw	low __pdataBANK0
   344  07F6  0084               	movwf	4
   345  07F7  120A  158A  270C  120A  118A  	fcall	init_ram0
   346  07FC                     end_of_initialization:	
   347                           ;End of C runtime variable initialization code
   348                           
   349  07FC                     __end_of__initialization:	
   350  07FC  0183               	clrf	3
   351  07FD  120A  118A  2998   	ljmp	_main	;jump to C main() function
   352                           
   353                           	psect	dataBANK0
   354  0057                     __pdataBANK0:	
   355  0057                     main@F858:	
   356  0057                     	ds	11
   357                           
   358                           	psect	inittext
   359  0F08                     init_fetch0:	
   360                           ;	Called with low address in FSR and high address in W
   361                           
   362  0F08  087E               	movf	btemp,w
   363  0F09  008A               	movwf	10
   364  0F0A  087F               	movf	btemp+1,w
   365  0F0B  0082               	movwf	2
   366  0F0C                     init_ram0:	
   367                           ;Called with:
   368                           ;	high address of idata address in btemp 
   369                           ;	low address of idata address in btemp+1 
   370                           ;	low address of data in FSR
   371                           ;	high address + 1 of data in btemp-1
   372                           
   373  0F0C  120A  158A  2708  120A  158A  	fcall	init_fetch0
   374  0F11  0080               	movwf	0
   375  0F12  0A84               	incf	4,f
   376  0F13  0804               	movf	4,w
   377  0F14  067D               	xorwf	btemp+-1,w
   378  0F15  1903               	btfsc	3,2
   379  0F16  3400               	retlw	0
   380  0F17  0AFF               	incf	btemp+1,f
   381  0F18  1903               	btfsc	3,2
   382  0F19  0AFE               	incf	btemp,f
   383  0F1A  2F0C               	goto	init_ram0
   384                           
   385                           	psect	cstackCOMMON
   386  0070                     __pcstackCOMMON:	
   387  0070                     ?_init_ssd:	
   388  0070                     ??_init_ssd:	
   389                           ; 1 bytes @ 0x0
   390                           
   391  0070                     ?_display:	
   392                           ; 1 bytes @ 0x0
   393                           
   394  0070                     ??_display:	
   395                           ; 1 bytes @ 0x0
   396                           
   397  0070                     ?_init_adc:	
   398                           ; 1 bytes @ 0x0
   399                           
   400  0070                     ??_init_adc:	
   401                           ; 1 bytes @ 0x0
   402                           
   403  0070                     ?_init_config:	
   404                           ; 1 bytes @ 0x0
   405                           
   406  0070                     ??_init_config:	
   407                           ; 1 bytes @ 0x0
   408                           
   409  0070                     ?_main:	
   410                           ; 1 bytes @ 0x0
   411                           
   412  0070                     ?__Umul8_16:	
   413                           ; 1 bytes @ 0x0
   414                           
   415  0070                     ?_read_adc:	
   416                           ; 2 bytes @ 0x0
   417                           
   418  0070                     ?___fltol:	
   419                           ; 2 bytes @ 0x0
   420                           
   421  0070                     ?___fldiv:	
   422                           ; 4 bytes @ 0x0
   423                           
   424  0070                     ?___xxtofl:	
   425                           ; 4 bytes @ 0x0
   426                           
   427  0070                     __Umul8_16@multiplicand:	
   428                           ; 4 bytes @ 0x0
   429                           
   430  0070                     ___fltol@f1:	
   431                           ; 1 bytes @ 0x0
   432                           
   433  0070                     ___fldiv@a:	
   434                           ; 4 bytes @ 0x0
   435                           
   436  0070                     ___xxtofl@val:	
   437                           ; 4 bytes @ 0x0
   438                           
   439                           
   440                           ; 4 bytes @ 0x0
   441  0070                     	ds	1
   442  0071                     display@wait:	
   443                           
   444                           ; 2 bytes @ 0x1
   445  0071                     	ds	1
   446  0072                     ??__Umul8_16:	
   447  0072                     ??_read_adc:	
   448                           ; 1 bytes @ 0x2
   449                           
   450                           
   451                           ; 1 bytes @ 0x2
   452  0072                     	ds	1
   453  0073                     display@data:	
   454  0073                     read_adc@adc_reg_val:	
   455                           ; 1 bytes @ 0x3
   456                           
   457                           
   458                           ; 2 bytes @ 0x3
   459  0073                     	ds	1
   460  0074                     ??___fltol:	
   461  0074                     ??___xxtofl:	
   462                           ; 1 bytes @ 0x4
   463                           
   464  0074                     display@digit:	
   465                           ; 1 bytes @ 0x4
   466                           
   467  0074                     __Umul8_16@product:	
   468                           ; 1 bytes @ 0x4
   469                           
   470  0074                     ___fldiv@b:	
   471                           ; 2 bytes @ 0x4
   472                           
   473                           
   474                           ; 4 bytes @ 0x4
   475  0074                     	ds	1
   476  0075                     read_adc@channel:	
   477                           
   478                           ; 1 bytes @ 0x5
   479  0075                     	ds	1
   480  0076                     __Umul8_16@word_mpld:	
   481                           
   482                           ; 2 bytes @ 0x6
   483  0076                     	ds	2
   484  0078                     ??___fldiv:	
   485  0078                     ___xxtofl@sign:	
   486                           ; 1 bytes @ 0x8
   487                           
   488  0078                     __Umul8_16@multiplier:	
   489                           ; 1 bytes @ 0x8
   490                           
   491                           
   492                           ; 1 bytes @ 0x8
   493  0078                     	ds	1
   494  0079                     ___fltol@sign1:	
   495  0079                     ___xxtofl@exp:	
   496                           ; 1 bytes @ 0x9
   497                           
   498                           
   499                           ; 1 bytes @ 0x9
   500  0079                     	ds	1
   501  007A                     ___fltol@exp1:	
   502  007A                     ___xxtofl@arg:	
   503                           ; 1 bytes @ 0xA
   504                           
   505                           
   506                           ; 4 bytes @ 0xA
   507  007A                     	ds	1
   508  007B                     ??___awdiv:	
   509                           
   510                           ; 1 bytes @ 0xB
   511  007B                     	ds	1
   512  007C                     ??___awmod:	
   513                           
   514                           ; 1 bytes @ 0xC
   515  007C                     	ds	2
   516                           
   517                           	psect	cstackBANK0
   518  0020                     __pcstackBANK0:	
   519  0020                     ?___awdiv:	
   520  0020                     ?___flmul:	
   521                           ; 2 bytes @ 0x0
   522                           
   523  0020                     ___awdiv@divisor:	
   524                           ; 4 bytes @ 0x0
   525                           
   526  0020                     ___fldiv@rem:	
   527                           ; 2 bytes @ 0x0
   528                           
   529  0020                     ___flmul@b:	
   530                           ; 4 bytes @ 0x0
   531                           
   532                           
   533                           ; 4 bytes @ 0x0
   534  0020                     	ds	2
   535  0022                     ___awdiv@dividend:	
   536                           
   537                           ; 2 bytes @ 0x2
   538  0022                     	ds	2
   539  0024                     ___awdiv@counter:	
   540  0024                     ___fldiv@sign:	
   541                           ; 1 bytes @ 0x4
   542                           
   543  0024                     ___flmul@a:	
   544                           ; 1 bytes @ 0x4
   545                           
   546                           
   547                           ; 4 bytes @ 0x4
   548  0024                     	ds	1
   549  0025                     ___awdiv@sign:	
   550  0025                     ___fldiv@new_exp:	
   551                           ; 1 bytes @ 0x5
   552                           
   553                           
   554                           ; 2 bytes @ 0x5
   555  0025                     	ds	1
   556  0026                     ___awdiv@quotient:	
   557                           
   558                           ; 2 bytes @ 0x6
   559  0026                     	ds	1
   560  0027                     ___fldiv@grs:	
   561                           
   562                           ; 4 bytes @ 0x7
   563  0027                     	ds	1
   564  0028                     ??___flmul:	
   565  0028                     ?___awmod:	
   566                           ; 1 bytes @ 0x8
   567                           
   568  0028                     ___awmod@divisor:	
   569                           ; 2 bytes @ 0x8
   570                           
   571                           
   572                           ; 2 bytes @ 0x8
   573  0028                     	ds	2
   574  002A                     ___awmod@dividend:	
   575                           
   576                           ; 2 bytes @ 0xA
   577  002A                     	ds	1
   578  002B                     ___fldiv@bexp:	
   579                           
   580                           ; 1 bytes @ 0xB
   581  002B                     	ds	1
   582  002C                     ___awmod@counter:	
   583  002C                     ___fldiv@aexp:	
   584                           ; 1 bytes @ 0xC
   585                           
   586                           
   587                           ; 1 bytes @ 0xC
   588  002C                     	ds	1
   589  002D                     ___awmod@sign:	
   590  002D                     ___flmul@sign:	
   591                           ; 1 bytes @ 0xD
   592                           
   593                           
   594                           ; 1 bytes @ 0xD
   595  002D                     	ds	1
   596  002E                     ___flmul@grs:	
   597                           
   598                           ; 4 bytes @ 0xE
   599  002E                     	ds	4
   600  0032                     ___flmul@aexp:	
   601                           
   602                           ; 1 bytes @ 0x12
   603  0032                     	ds	1
   604  0033                     ___flmul@bexp:	
   605                           
   606                           ; 1 bytes @ 0x13
   607  0033                     	ds	1
   608  0034                     ___flmul@prod:	
   609                           
   610                           ; 4 bytes @ 0x14
   611  0034                     	ds	4
   612  0038                     ___flmul@temp:	
   613                           
   614                           ; 2 bytes @ 0x18
   615  0038                     	ds	2
   616  003A                     ??_main:	
   617                           
   618                           ; 1 bytes @ 0x1A
   619  003A                     	ds	4
   620  003E                     main@digits:	
   621                           
   622                           ; 11 bytes @ 0x1E
   623  003E                     	ds	11
   624  0049                     main@voltage:	
   625                           
   626                           ; 4 bytes @ 0x29
   627  0049                     	ds	4
   628  004D                     main@adc_reg_val:	
   629                           
   630                           ; 2 bytes @ 0x2D
   631  004D                     	ds	2
   632  004F                     main@ssd:	
   633                           
   634                           ; 4 bytes @ 0x2F
   635  004F                     	ds	4
   636  0053                     main@temperature:	
   637                           
   638                           ; 4 bytes @ 0x33
   639  0053                     	ds	4
   640                           
   641                           	psect	maintext
   642  0198                     __pmaintext:	
   643 ;;
   644 ;;Main: autosize = 0, tempsize = 4, incstack = 0, save=0
   645 ;;
   646 ;; *************** function _main *****************
   647 ;; Defined at:
   648 ;;		line 28 in file "main.c"
   649 ;; Parameters:    Size  Location     Type
   650 ;;		None
   651 ;; Auto vars:     Size  Location     Type
   652 ;;  digits         11   30[BANK0 ] unsigned char [11]
   653 ;;  ssd             4   47[BANK0 ] unsigned char [4]
   654 ;;  temperature     4   51[BANK0 ] float 
   655 ;;  voltage         4   41[BANK0 ] float 
   656 ;;  adc_reg_val     2   45[BANK0 ] unsigned short 
   657 ;; Return value:  Size  Location     Type
   658 ;;                  1    wreg      void 
   659 ;; Registers used:
   660 ;;		wreg, fsr0l, fsr0h, status,2, status,0, btemp+1, pclath, cstack
   661 ;; Tracked objects:
   662 ;;		On entry : B00/0
   663 ;;		On exit  : 0/0
   664 ;;		Unchanged: 0/0
   665 ;; Data sizes:     COMMON   BANK0   BANK1   BANK3   BANK2
   666 ;;      Params:         0       0       0       0       0
   667 ;;      Locals:         0      25       0       0       0
   668 ;;      Temps:          0       4       0       0       0
   669 ;;      Totals:         0      29       0       0       0
   670 ;;Total ram usage:       29 bytes
   671 ;; Hardware stack levels required when called:    2
   672 ;; This function calls:
   673 ;;		___awdiv
   674 ;;		___awmod
   675 ;;		___fldiv
   676 ;;		___flmul
   677 ;;		___fltol
   678 ;;		___xxtofl
   679 ;;		_display
   680 ;;		_init_config
   681 ;;		_read_adc
   682 ;; This function is called by:
   683 ;;		Startup code after reset
   684 ;; This function uses a non-reentrant model
   685 ;;
   686                           
   687                           
   688                           ;psect for function _main
   689  0198                     _main:	
   690  0198                     l1671:	
   691                           ;incstack = 0
   692                           ; Regs used in _main: [wreg-fsr0h+status,2+status,0+btemp+1+pclath+cstack]
   693                           
   694                           
   695                           ;main.c: 29:         voltage = (float) adc_reg_val * 0.00488;
   696  0198  303E               	movlw	main@digits& (0+255)
   697  0199  0084               	movwf	4
   698  019A  3057               	movlw	low main@F858
   699  019B  1283               	bcf	3,5	;RP0=0, select bank0
   700  019C  1303               	bcf	3,6	;RP1=0, select bank0
   701  019D  00BA               	movwf	??_main
   702  019E  0804               	movf	4,w
   703  019F  00BB               	movwf	??_main+1
   704  01A0  300B               	movlw	11
   705  01A1  00BC               	movwf	??_main+2
   706  01A2                     u2380:	
   707  01A2  083A               	movf	??_main,w
   708  01A3  0084               	movwf	4
   709  01A4  1383               	bcf	3,7	;select IRP bank0
   710  01A5  0800               	movf	0,w
   711  01A6  00BD               	movwf	??_main+3
   712  01A7  0ABA               	incf	??_main,f
   713  01A8  083B               	movf	??_main+1,w
   714  01A9  0084               	movwf	4
   715  01AA  083D               	movf	??_main+3,w
   716  01AB  0080               	movwf	0
   717  01AC  0ABB               	incf	??_main+1,f
   718  01AD  0BBC               	decfsz	??_main+2,f
   719  01AE  29A2               	goto	u2380
   720  01AF                     l1673:	
   721                           
   722                           ;main.c: 30:         temperature = voltage /0.01;;main.c: 31: ;main.c: 32:         ssd[2
      +                          ] = digits[((int)temperature/1) % 10];;main.c: 33:         ssd[1] = digits[((int)tempera
      +                          ture/10) % 10];;main.c: 34:         ssd[0] = digits[((int)temperature/100) % 10];
   723  01AF  0848               	movf	main@digits+10,w
   724  01B0  00BA               	movwf	??_main
   725  01B1  083A               	movf	??_main,w
   726  01B2  00D2               	movwf	main@ssd+3
   727  01B3                     l1675:	
   728                           
   729                           ;main.c: 36:     }
   730  01B3  120A  158A  26E6  120A  118A  	fcall	_init_config
   731  01B8                     l1677:	
   732  01B8  3000               	movlw	0
   733  01B9  120A  158A  271B  120A  118A  	fcall	_read_adc
   734  01BE  0871               	movf	?_read_adc+1,w
   735  01BF  1283               	bcf	3,5	;RP0=0, select bank0
   736  01C0  1303               	bcf	3,6	;RP1=0, select bank0
   737  01C1  00CE               	movwf	main@adc_reg_val+1
   738  01C2  0870               	movf	?_read_adc,w
   739  01C3  00CD               	movwf	main@adc_reg_val
   740  01C4                     l1679:	
   741  01C4  303B               	movlw	59
   742  01C5  00A3               	movwf	___flmul@b+3
   743  01C6  309F               	movlw	159
   744  01C7  00A2               	movwf	___flmul@b+2
   745  01C8  30E8               	movlw	232
   746  01C9  00A1               	movwf	___flmul@b+1
   747  01CA  3068               	movlw	104
   748  01CB  00A0               	movwf	___flmul@b
   749  01CC  084D               	movf	main@adc_reg_val,w
   750  01CD  00F0               	movwf	___xxtofl@val
   751  01CE  084E               	movf	main@adc_reg_val+1,w
   752  01CF  00F1               	movwf	___xxtofl@val+1
   753  01D0  01F2               	clrf	___xxtofl@val+2
   754  01D1  01F3               	clrf	___xxtofl@val+3
   755  01D2  3000               	movlw	0
   756  01D3  120A  118A  20DE  120A  118A  	fcall	___xxtofl
   757  01D8  0873               	movf	?___xxtofl+3,w
   758  01D9  1283               	bcf	3,5	;RP0=0, select bank0
   759  01DA  1303               	bcf	3,6	;RP1=0, select bank0
   760  01DB  00A7               	movwf	___flmul@a+3
   761  01DC  0872               	movf	?___xxtofl+2,w
   762  01DD  00A6               	movwf	___flmul@a+2
   763  01DE  0871               	movf	?___xxtofl+1,w
   764  01DF  00A5               	movwf	___flmul@a+1
   765  01E0  0870               	movf	?___xxtofl,w
   766  01E1  00A4               	movwf	___flmul@a
   767  01E2  120A  118A  248D  120A  118A  	fcall	___flmul
   768  01E7  1283               	bcf	3,5	;RP0=0, select bank0
   769  01E8  1303               	bcf	3,6	;RP1=0, select bank0
   770  01E9  0823               	movf	?___flmul+3,w
   771  01EA  00CC               	movwf	main@voltage+3
   772  01EB  0822               	movf	?___flmul+2,w
   773  01EC  00CB               	movwf	main@voltage+2
   774  01ED  0821               	movf	?___flmul+1,w
   775  01EE  00CA               	movwf	main@voltage+1
   776  01EF  0820               	movf	?___flmul,w
   777  01F0  00C9               	movwf	main@voltage
   778  01F1                     l1681:	
   779  01F1  303C               	movlw	60
   780  01F2  00F3               	movwf	___fldiv@a+3
   781  01F3  3023               	movlw	35
   782  01F4  00F2               	movwf	___fldiv@a+2
   783  01F5  30D7               	movlw	215
   784  01F6  00F1               	movwf	___fldiv@a+1
   785  01F7  300A               	movlw	10
   786  01F8  00F0               	movwf	___fldiv@a
   787  01F9  084C               	movf	main@voltage+3,w
   788  01FA  00F7               	movwf	___fldiv@b+3
   789  01FB  084B               	movf	main@voltage+2,w
   790  01FC  00F6               	movwf	___fldiv@b+2
   791  01FD  084A               	movf	main@voltage+1,w
   792  01FE  00F5               	movwf	___fldiv@b+1
   793  01FF  0849               	movf	main@voltage,w
   794  0200  00F4               	movwf	___fldiv@b
   795  0201  120A  118A  22AA  120A  118A  	fcall	___fldiv
   796  0206  0873               	movf	?___fldiv+3,w
   797  0207  1283               	bcf	3,5	;RP0=0, select bank0
   798  0208  1303               	bcf	3,6	;RP1=0, select bank0
   799  0209  00D6               	movwf	main@temperature+3
   800  020A  0872               	movf	?___fldiv+2,w
   801  020B  00D5               	movwf	main@temperature+2
   802  020C  0871               	movf	?___fldiv+1,w
   803  020D  00D4               	movwf	main@temperature+1
   804  020E  0870               	movf	?___fldiv,w
   805  020F  00D3               	movwf	main@temperature
   806  0210                     l1683:	
   807  0210  300A               	movlw	10
   808  0211  00A8               	movwf	___awmod@divisor
   809  0212  3000               	movlw	0
   810  0213  00A9               	movwf	___awmod@divisor+1
   811  0214  0856               	movf	main@temperature+3,w
   812  0215  00F3               	movwf	___fltol@f1+3
   813  0216  0855               	movf	main@temperature+2,w
   814  0217  00F2               	movwf	___fltol@f1+2
   815  0218  0854               	movf	main@temperature+1,w
   816  0219  00F1               	movwf	___fltol@f1+1
   817  021A  0853               	movf	main@temperature,w
   818  021B  00F0               	movwf	___fltol@f1
   819  021C  120A  118A  2064  120A  118A  	fcall	___fltol
   820  0221  0871               	movf	?___fltol+1,w
   821  0222  1283               	bcf	3,5	;RP0=0, select bank0
   822  0223  1303               	bcf	3,6	;RP1=0, select bank0
   823  0224  00AB               	movwf	___awmod@dividend+1
   824  0225  0870               	movf	?___fltol,w
   825  0226  00AA               	movwf	___awmod@dividend
   826  0227  120A  118A  2009  120A  118A  	fcall	___awmod
   827  022C  1283               	bcf	3,5	;RP0=0, select bank0
   828  022D  1303               	bcf	3,6	;RP1=0, select bank0
   829  022E  0828               	movf	?___awmod,w
   830  022F  3E3E               	addlw	(low (main@digits| 0))& (0+255)
   831  0230  0084               	movwf	4
   832  0231  1383               	bcf	3,7	;select IRP bank0
   833  0232  0800               	movf	0,w
   834  0233  00BA               	movwf	??_main
   835  0234  083A               	movf	??_main,w
   836  0235  00D1               	movwf	main@ssd+2
   837  0236                     l1685:	
   838  0236  300A               	movlw	10
   839  0237  00A8               	movwf	___awmod@divisor
   840  0238  3000               	movlw	0
   841  0239  00A9               	movwf	___awmod@divisor+1
   842  023A  300A               	movlw	10
   843  023B  00A0               	movwf	___awdiv@divisor
   844  023C  3000               	movlw	0
   845  023D  00A1               	movwf	___awdiv@divisor+1
   846  023E  0856               	movf	main@temperature+3,w
   847  023F  00F3               	movwf	___fltol@f1+3
   848  0240  0855               	movf	main@temperature+2,w
   849  0241  00F2               	movwf	___fltol@f1+2
   850  0242  0854               	movf	main@temperature+1,w
   851  0243  00F1               	movwf	___fltol@f1+1
   852  0244  0853               	movf	main@temperature,w
   853  0245  00F0               	movwf	___fltol@f1
   854  0246  120A  118A  2064  120A  118A  	fcall	___fltol
   855  024B  0871               	movf	?___fltol+1,w
   856  024C  1283               	bcf	3,5	;RP0=0, select bank0
   857  024D  1303               	bcf	3,6	;RP1=0, select bank0
   858  024E  00A3               	movwf	___awdiv@dividend+1
   859  024F  0870               	movf	?___fltol,w
   860  0250  00A2               	movwf	___awdiv@dividend
   861  0251  120A  158A  2797  120A  118A  	fcall	___awdiv
   862  0256  1283               	bcf	3,5	;RP0=0, select bank0
   863  0257  1303               	bcf	3,6	;RP1=0, select bank0
   864  0258  0821               	movf	?___awdiv+1,w
   865  0259  00AB               	movwf	___awmod@dividend+1
   866  025A  0820               	movf	?___awdiv,w
   867  025B  00AA               	movwf	___awmod@dividend
   868  025C  120A  118A  2009  120A  118A  	fcall	___awmod
   869  0261  1283               	bcf	3,5	;RP0=0, select bank0
   870  0262  1303               	bcf	3,6	;RP1=0, select bank0
   871  0263  0828               	movf	?___awmod,w
   872  0264  3E3E               	addlw	(low (main@digits| 0))& (0+255)
   873  0265  0084               	movwf	4
   874  0266  1383               	bcf	3,7	;select IRP bank0
   875  0267  0800               	movf	0,w
   876  0268  00BA               	movwf	??_main
   877  0269  083A               	movf	??_main,w
   878  026A  00D0               	movwf	main@ssd+1
   879  026B                     l1687:	
   880  026B  300A               	movlw	10
   881  026C  00A8               	movwf	___awmod@divisor
   882  026D  3000               	movlw	0
   883  026E  00A9               	movwf	___awmod@divisor+1
   884  026F  3064               	movlw	100
   885  0270  00A0               	movwf	___awdiv@divisor
   886  0271  3000               	movlw	0
   887  0272  00A1               	movwf	___awdiv@divisor+1
   888  0273  0856               	movf	main@temperature+3,w
   889  0274  00F3               	movwf	___fltol@f1+3
   890  0275  0855               	movf	main@temperature+2,w
   891  0276  00F2               	movwf	___fltol@f1+2
   892  0277  0854               	movf	main@temperature+1,w
   893  0278  00F1               	movwf	___fltol@f1+1
   894  0279  0853               	movf	main@temperature,w
   895  027A  00F0               	movwf	___fltol@f1
   896  027B  120A  118A  2064  120A  118A  	fcall	___fltol
   897  0280  0871               	movf	?___fltol+1,w
   898  0281  1283               	bcf	3,5	;RP0=0, select bank0
   899  0282  1303               	bcf	3,6	;RP1=0, select bank0
   900  0283  00A3               	movwf	___awdiv@dividend+1
   901  0284  0870               	movf	?___fltol,w
   902  0285  00A2               	movwf	___awdiv@dividend
   903  0286  120A  158A  2797  120A  118A  	fcall	___awdiv
   904  028B  1283               	bcf	3,5	;RP0=0, select bank0
   905  028C  1303               	bcf	3,6	;RP1=0, select bank0
   906  028D  0821               	movf	?___awdiv+1,w
   907  028E  00AB               	movwf	___awmod@dividend+1
   908  028F  0820               	movf	?___awdiv,w
   909  0290  00AA               	movwf	___awmod@dividend
   910  0291  120A  118A  2009  120A  118A  	fcall	___awmod
   911  0296  1283               	bcf	3,5	;RP0=0, select bank0
   912  0297  1303               	bcf	3,6	;RP1=0, select bank0
   913  0298  0828               	movf	?___awmod,w
   914  0299  3E3E               	addlw	(low (main@digits| 0))& (0+255)
   915  029A  0084               	movwf	4
   916  029B  1383               	bcf	3,7	;select IRP bank0
   917  029C  0800               	movf	0,w
   918  029D  00BA               	movwf	??_main
   919  029E  083A               	movf	??_main,w
   920  029F  00CF               	movwf	main@ssd
   921  02A0                     l1689:	
   922  02A0  304F               	movlw	(low (main@ssd| 0))& (0+255)
   923  02A1  120A  158A  2761  120A  118A  	fcall	_display
   924  02A6  29B8               	goto	l1677
   925  02A7  120A  118A  2800   	ljmp	start
   926  02AA                     __end_of_main:	
   927                           
   928                           	psect	text1
   929  0F1B                     __ptext1:	
   930 ;; *************** function _read_adc *****************
   931 ;; Defined at:
   932 ;;		line 16 in file "adc.c"
   933 ;; Parameters:    Size  Location     Type
   934 ;;  channel         1    wreg     unsigned char 
   935 ;; Auto vars:     Size  Location     Type
   936 ;;  channel         1    5[COMMON] unsigned char 
   937 ;;  adc_reg_val     2    3[COMMON] unsigned short 
   938 ;; Return value:  Size  Location     Type
   939 ;;                  2    0[COMMON] unsigned short 
   940 ;; Registers used:
   941 ;;		wreg, status,2, status,0
   942 ;; Tracked objects:
   943 ;;		On entry : 0/0
   944 ;;		On exit  : 0/0
   945 ;;		Unchanged: 0/0
   946 ;; Data sizes:     COMMON   BANK0   BANK1   BANK3   BANK2
   947 ;;      Params:         2       0       0       0       0
   948 ;;      Locals:         3       0       0       0       0
   949 ;;      Temps:          1       0       0       0       0
   950 ;;      Totals:         6       0       0       0       0
   951 ;;Total ram usage:        6 bytes
   952 ;; Hardware stack levels used:    1
   953 ;; This function calls:
   954 ;;		Nothing
   955 ;; This function is called by:
   956 ;;		_main
   957 ;; This function uses a non-reentrant model
   958 ;;
   959                           
   960                           
   961                           ;psect for function _read_adc
   962  0F1B                     _read_adc:	
   963                           
   964                           ;incstack = 0
   965                           ; Regs used in _read_adc: [wreg+status,2+status,0]
   966                           ;read_adc@channel stored from wreg
   967  0F1B  00F5               	movwf	read_adc@channel
   968  0F1C                     l1197:	
   969                           
   970                           ;adc.c: 16: unsigned short read_adc(unsigned char channel);adc.c: 17: {;adc.c: 18:     u
      +                          nsigned short adc_reg_val;;adc.c: 21:     ADCON0 = (ADCON0 & 0xC7) | (channel << 3);
   971  0F1C  0875               	movf	read_adc@channel,w
   972  0F1D  00F2               	movwf	??_read_adc
   973  0F1E  3003               	movlw	3
   974  0F1F                     u1235:	
   975  0F1F  1003               	clrc
   976  0F20  0DF2               	rlf	??_read_adc,f
   977  0F21  3EFF               	addlw	-1
   978  0F22  1D03               	skipz
   979  0F23  2F1F               	goto	u1235
   980  0F24  1283               	bcf	3,5	;RP0=0, select bank0
   981  0F25  1303               	bcf	3,6	;RP1=0, select bank0
   982  0F26  081F               	movf	31,w	;volatile
   983  0F27  39C7               	andlw	199
   984  0F28  0472               	iorwf	??_read_adc,w
   985  0F29  009F               	movwf	31	;volatile
   986  0F2A                     l1199:	
   987                           
   988                           ;adc.c: 24:     GO = 1;
   989  0F2A  151F               	bsf	31,2	;volatile
   990  0F2B                     l24:	
   991                           ;adc.c: 27:     while(nDONE);
   992                           
   993  0F2B  191F               	btfsc	31,2	;volatile
   994  0F2C  2F2E               	goto	u1241
   995  0F2D  2F2F               	goto	u1240
   996  0F2E                     u1241:	
   997  0F2E  2F2B               	goto	l24
   998  0F2F                     u1240:	
   999  0F2F                     l1201:	
  1000                           
  1001                           ;adc.c: 29:     adc_reg_val = ((ADRESH<<8) | ADRESL);
  1002  0F2F  081E               	movf	30,w	;volatile
  1003  0F30  00F4               	movwf	read_adc@adc_reg_val+1
  1004  0F31  1683               	bsf	3,5	;RP0=1, select bank1
  1005  0F32  1303               	bcf	3,6	;RP1=0, select bank1
  1006  0F33  081E               	movf	30,w	;volatile
  1007  0F34  00F3               	movwf	read_adc@adc_reg_val
  1008                           
  1009                           ;adc.c: 31:     return adc_reg_val;
  1010  0F35  0874               	movf	read_adc@adc_reg_val+1,w
  1011  0F36  00F1               	movwf	?_read_adc+1
  1012  0F37  0873               	movf	read_adc@adc_reg_val,w
  1013  0F38  00F0               	movwf	?_read_adc
  1014  0F39                     l27:	
  1015  0F39  0008               	return
  1016  0F3A                     __end_of_read_adc:	
  1017                           
  1018                           	psect	text2
  1019  0EE6                     __ptext2:	
  1020 ;; *************** function _init_config *****************
  1021 ;; Defined at:
  1022 ;;		line 20 in file "main.c"
  1023 ;; Parameters:    Size  Location     Type
  1024 ;;		None
  1025 ;; Auto vars:     Size  Location     Type
  1026 ;;		None
  1027 ;; Return value:  Size  Location     Type
  1028 ;;                  1    wreg      void 
  1029 ;; Registers used:
  1030 ;;		wreg, status,2, status,0, pclath, cstack
  1031 ;; Tracked objects:
  1032 ;;		On entry : 0/0
  1033 ;;		On exit  : 0/0
  1034 ;;		Unchanged: 0/0
  1035 ;; Data sizes:     COMMON   BANK0   BANK1   BANK3   BANK2
  1036 ;;      Params:         0       0       0       0       0
  1037 ;;      Locals:         0       0       0       0       0
  1038 ;;      Temps:          0       0       0       0       0
  1039 ;;      Totals:         0       0       0       0       0
  1040 ;;Total ram usage:        0 bytes
  1041 ;; Hardware stack levels used:    1
  1042 ;; Hardware stack levels required when called:    1
  1043 ;; This function calls:
  1044 ;;		_init_adc
  1045 ;;		_init_ssd
  1046 ;; This function is called by:
  1047 ;;		_main
  1048 ;; This function uses a non-reentrant model
  1049 ;;
  1050                           
  1051                           
  1052                           ;psect for function _init_config
  1053  0EE6                     _init_config:	
  1054  0EE6                     l1205:	
  1055                           ;incstack = 0
  1056                           ; Regs used in _init_config: [wreg+status,2+status,0+pclath+cstack]
  1057                           
  1058                           
  1059                           ;main.c: 22:     {
  1060  0EE6  120A  158A  26FC  120A  158A  	fcall	_init_ssd
  1061  0EEB                     l1207:	
  1062                           
  1063                           ;main.c: 24: 
  1064  0EEB  120A  158A  26DD  120A  158A  	fcall	_init_adc
  1065  0EF0                     l38:	
  1066  0EF0  0008               	return
  1067  0EF1                     __end_of_init_config:	
  1068                           
  1069                           	psect	text3
  1070  0EFC                     __ptext3:	
  1071 ;; *************** function _init_ssd *****************
  1072 ;; Defined at:
  1073 ;;		line 4 in file "ssd.c"
  1074 ;; Parameters:    Size  Location     Type
  1075 ;;		None
  1076 ;; Auto vars:     Size  Location     Type
  1077 ;;		None
  1078 ;; Return value:  Size  Location     Type
  1079 ;;                  1    wreg      void 
  1080 ;; Registers used:
  1081 ;;		wreg, status,2
  1082 ;; Tracked objects:
  1083 ;;		On entry : 0/0
  1084 ;;		On exit  : 0/0
  1085 ;;		Unchanged: 0/0
  1086 ;; Data sizes:     COMMON   BANK0   BANK1   BANK3   BANK2
  1087 ;;      Params:         0       0       0       0       0
  1088 ;;      Locals:         0       0       0       0       0
  1089 ;;      Temps:          0       0       0       0       0
  1090 ;;      Totals:         0       0       0       0       0
  1091 ;;Total ram usage:        0 bytes
  1092 ;; Hardware stack levels used:    1
  1093 ;; This function calls:
  1094 ;;		Nothing
  1095 ;; This function is called by:
  1096 ;;		_init_config
  1097 ;; This function uses a non-reentrant model
  1098 ;;
  1099                           
  1100                           
  1101                           ;psect for function _init_ssd
  1102  0EFC                     _init_ssd:	
  1103  0EFC                     l1177:	
  1104                           ;incstack = 0
  1105                           ; Regs used in _init_ssd: [wreg+status,2]
  1106                           
  1107                           
  1108                           ;ssd.c: 7:     TRISD = 0X00;
  1109  0EFC  1683               	bsf	3,5	;RP0=1, select bank1
  1110  0EFD  1303               	bcf	3,6	;RP1=0, select bank1
  1111  0EFE  0188               	clrf	8	;volatile
  1112  0EFF                     l1179:	
  1113                           
  1114                           ;ssd.c: 10:     TRISA = TRISA & 0XC3 ;
  1115  0EFF  0805               	movf	5,w	;volatile
  1116  0F00  39C3               	andlw	195
  1117  0F01  0085               	movwf	5	;volatile
  1118  0F02                     l1181:	
  1119                           
  1120                           ;ssd.c: 12:     PORTA = PORTA & 0XC3;
  1121  0F02  1283               	bcf	3,5	;RP0=0, select bank0
  1122  0F03  1303               	bcf	3,6	;RP1=0, select bank0
  1123  0F04  0805               	movf	5,w	;volatile
  1124  0F05  39C3               	andlw	195
  1125  0F06  0085               	movwf	5	;volatile
  1126  0F07                     l59:	
  1127  0F07  0008               	return
  1128  0F08                     __end_of_init_ssd:	
  1129                           
  1130                           	psect	text4
  1131  0EDD                     __ptext4:	
  1132 ;; *************** function _init_adc *****************
  1133 ;; Defined at:
  1134 ;;		line 3 in file "adc.c"
  1135 ;; Parameters:    Size  Location     Type
  1136 ;;		None
  1137 ;; Auto vars:     Size  Location     Type
  1138 ;;		None
  1139 ;; Return value:  Size  Location     Type
  1140 ;;                  1    wreg      void 
  1141 ;; Registers used:
  1142 ;;		None
  1143 ;; Tracked objects:
  1144 ;;		On entry : 0/0
  1145 ;;		On exit  : 0/0
  1146 ;;		Unchanged: 0/0
  1147 ;; Data sizes:     COMMON   BANK0   BANK1   BANK3   BANK2
  1148 ;;      Params:         0       0       0       0       0
  1149 ;;      Locals:         0       0       0       0       0
  1150 ;;      Temps:          0       0       0       0       0
  1151 ;;      Totals:         0       0       0       0       0
  1152 ;;Total ram usage:        0 bytes
  1153 ;; Hardware stack levels used:    1
  1154 ;; This function calls:
  1155 ;;		Nothing
  1156 ;; This function is called by:
  1157 ;;		_init_config
  1158 ;; This function uses a non-reentrant model
  1159 ;;
  1160                           
  1161                           
  1162                           ;psect for function _init_adc
  1163  0EDD                     _init_adc:	
  1164  0EDD                     l1175:	
  1165                           ;incstack = 0
  1166                           ; Regs used in _init_adc: []
  1167                           
  1168                           
  1169                           ;adc.c: 6:    ADON = 1;
  1170  0EDD  1283               	bcf	3,5	;RP0=0, select bank0
  1171  0EDE  1303               	bcf	3,6	;RP1=0, select bank0
  1172  0EDF  141F               	bsf	31,0	;volatile
  1173                           
  1174                           ;adc.c: 9:    ADCS1 = 0;
  1175  0EE0  139F               	bcf	31,7	;volatile
  1176                           
  1177                           ;adc.c: 10:    ADCS0 = 1;
  1178  0EE1  171F               	bsf	31,6	;volatile
  1179                           
  1180                           ;adc.c: 13:    ADFM = 1;
  1181  0EE2  1683               	bsf	3,5	;RP0=1, select bank1
  1182  0EE3  1303               	bcf	3,6	;RP1=0, select bank1
  1183  0EE4  179F               	bsf	31,7	;volatile
  1184  0EE5                     l21:	
  1185  0EE5  0008               	return
  1186  0EE6                     __end_of_init_adc:	
  1187                           
  1188                           	psect	text5
  1189  0F61                     __ptext5:	
  1190 ;; *************** function _display *****************
  1191 ;; Defined at:
  1192 ;;		line 15 in file "ssd.c"
  1193 ;; Parameters:    Size  Location     Type
  1194 ;;  data            1    wreg     PTR unsigned char 
  1195 ;;		 -> main@ssd(4), 
  1196 ;; Auto vars:     Size  Location     Type
  1197 ;;  data            1    3[COMMON] PTR unsigned char 
  1198 ;;		 -> main@ssd(4), 
  1199 ;;  wait            2    1[COMMON] int 
  1200 ;;  digit           1    4[COMMON] unsigned char 
  1201 ;; Return value:  Size  Location     Type
  1202 ;;                  1    wreg      void 
  1203 ;; Registers used:
  1204 ;;		wreg, fsr0l, fsr0h, status,2, status,0
  1205 ;; Tracked objects:
  1206 ;;		On entry : 0/0
  1207 ;;		On exit  : 0/0
  1208 ;;		Unchanged: 0/0
  1209 ;; Data sizes:     COMMON   BANK0   BANK1   BANK3   BANK2
  1210 ;;      Params:         0       0       0       0       0
  1211 ;;      Locals:         4       0       0       0       0
  1212 ;;      Temps:          1       0       0       0       0
  1213 ;;      Totals:         5       0       0       0       0
  1214 ;;Total ram usage:        5 bytes
  1215 ;; Hardware stack levels used:    1
  1216 ;; This function calls:
  1217 ;;		Nothing
  1218 ;; This function is called by:
  1219 ;;		_main
  1220 ;; This function uses a non-reentrant model
  1221 ;;
  1222                           
  1223                           
  1224                           ;psect for function _display
  1225  0F61                     _display:	
  1226                           
  1227                           ;incstack = 0
  1228                           ; Regs used in _display: [wreg-fsr0h+status,2+status,0]
  1229                           ;display@data stored from wreg
  1230  0F61  00F3               	movwf	display@data
  1231  0F62                     l1209:	
  1232                           
  1233                           ;ssd.c: 15: void display(unsigned char data[]);ssd.c: 16: {;ssd.c: 17:     unsigned char
      +                           digit;;ssd.c: 18:     for (digit = 0; digit< 4; digit++)
  1234  0F62  01F4               	clrf	display@digit
  1235  0F63                     l1215:	
  1236                           
  1237                           ;ssd.c: 19:     {;ssd.c: 20:      PORTD = data[digit];
  1238  0F63  0874               	movf	display@digit,w
  1239  0F64  0773               	addwf	display@data,w
  1240  0F65  00F0               	movwf	??_display
  1241  0F66  0870               	movf	??_display,w
  1242  0F67  0084               	movwf	4
  1243  0F68  1383               	bcf	3,7	;select IRP bank0
  1244  0F69  0800               	movf	0,w
  1245  0F6A  1283               	bcf	3,5	;RP0=0, select bank0
  1246  0F6B  1303               	bcf	3,6	;RP1=0, select bank0
  1247  0F6C  0088               	movwf	8	;volatile
  1248  0F6D                     l1217:	
  1249                           
  1250                           ;ssd.c: 21:      PORTA = (PORTA & 0XC3) | (0X04 << digit);
  1251  0F6D  3004               	movlw	4
  1252  0F6E  00F0               	movwf	??_display
  1253  0F6F  0A74               	incf	display@digit,w
  1254  0F70  2F73               	goto	u1254
  1255  0F71                     u1255:	
  1256  0F71  1003               	clrc
  1257  0F72  0DF0               	rlf	??_display,f
  1258  0F73                     u1254:	
  1259  0F73  3EFF               	addlw	-1
  1260  0F74  1D03               	skipz
  1261  0F75  2F71               	goto	u1255
  1262  0F76  0805               	movf	5,w	;volatile
  1263  0F77  39C3               	andlw	195
  1264  0F78  0470               	iorwf	??_display,w
  1265  0F79  0085               	movwf	5	;volatile
  1266  0F7A                     l1219:	
  1267                           
  1268                           ;ssd.c: 23:      for (int wait = 400; wait--; );
  1269  0F7A  3090               	movlw	144
  1270  0F7B  00F1               	movwf	display@wait
  1271  0F7C  3001               	movlw	1
  1272  0F7D  00F2               	movwf	display@wait+1
  1273  0F7E                     l1221:	
  1274  0F7E  30FF               	movlw	255
  1275  0F7F  07F1               	addwf	display@wait,f
  1276  0F80  1803               	skipnc
  1277  0F81  0AF2               	incf	display@wait+1,f
  1278  0F82  30FF               	movlw	255
  1279  0F83  07F2               	addwf	display@wait+1,f
  1280  0F84  0A71               	incf	display@wait,w
  1281  0F85  1D03               	skipz
  1282  0F86  2F8B               	goto	u1261
  1283  0F87  0A72               	incf	display@wait+1,w
  1284  0F88  1D03               	btfss	3,2
  1285  0F89  2F8B               	goto	u1261
  1286  0F8A  2F8C               	goto	u1260
  1287  0F8B                     u1261:	
  1288  0F8B  2F7E               	goto	l1221
  1289  0F8C                     u1260:	
  1290  0F8C                     l1223:	
  1291                           
  1292                           ;ssd.c: 24:     }
  1293  0F8C  3001               	movlw	1
  1294  0F8D  00F0               	movwf	??_display
  1295  0F8E  0870               	movf	??_display,w
  1296  0F8F  07F4               	addwf	display@digit,f
  1297  0F90                     l1225:	
  1298  0F90  3004               	movlw	4
  1299  0F91  0274               	subwf	display@digit,w
  1300  0F92  1C03               	skipc
  1301  0F93  2F95               	goto	u1271
  1302  0F94  2F96               	goto	u1270
  1303  0F95                     u1271:	
  1304  0F95  2F63               	goto	l1215
  1305  0F96                     u1270:	
  1306  0F96                     l67:	
  1307  0F96  0008               	return
  1308  0F97                     __end_of_display:	
  1309                           
  1310                           	psect	text6
  1311  00DE                     __ptext6:	
  1312 ;; *************** function ___xxtofl *****************
  1313 ;; Defined at:
  1314 ;;		line 10 in file "/opt/microchip/xc8/v2.10/pic/sources/c90/common/xxtofl.c"
  1315 ;; Parameters:    Size  Location     Type
  1316 ;;  sign            1    wreg     unsigned char 
  1317 ;;  val             4    0[COMMON] long 
  1318 ;; Auto vars:     Size  Location     Type
  1319 ;;  sign            1    8[COMMON] unsigned char 
  1320 ;;  arg             4   10[COMMON] unsigned long 
  1321 ;;  exp             1    9[COMMON] unsigned char 
  1322 ;; Return value:  Size  Location     Type
  1323 ;;                  4    0[COMMON] unsigned char 
  1324 ;; Registers used:
  1325 ;;		wreg, status,2, status,0
  1326 ;; Tracked objects:
  1327 ;;		On entry : 0/0
  1328 ;;		On exit  : 0/0
  1329 ;;		Unchanged: 0/0
  1330 ;; Data sizes:     COMMON   BANK0   BANK1   BANK3   BANK2
  1331 ;;      Params:         4       0       0       0       0
  1332 ;;      Locals:         6       0       0       0       0
  1333 ;;      Temps:          4       0       0       0       0
  1334 ;;      Totals:        14       0       0       0       0
  1335 ;;Total ram usage:       14 bytes
  1336 ;; Hardware stack levels used:    1
  1337 ;; This function calls:
  1338 ;;		Nothing
  1339 ;; This function is called by:
  1340 ;;		_main
  1341 ;; This function uses a non-reentrant model
  1342 ;;
  1343                           
  1344                           
  1345                           ;psect for function ___xxtofl
  1346  00DE                     ___xxtofl:	
  1347                           
  1348                           ;incstack = 0
  1349                           ; Regs used in ___xxtofl: [wreg+status,2+status,0]
  1350                           ;___xxtofl@sign stored from wreg
  1351  00DE  00F8               	movwf	___xxtofl@sign
  1352  00DF                     l1627:	
  1353  00DF  0878               	movf	___xxtofl@sign,w
  1354  00E0  1903               	btfsc	3,2
  1355  00E1  28E3               	goto	u2241
  1356  00E2  28E4               	goto	u2240
  1357  00E3                     u2241:	
  1358  00E3  28F8               	goto	l1633
  1359  00E4                     u2240:	
  1360  00E4                     l1629:	
  1361  00E4  1FF3               	btfss	___xxtofl@val+3,7
  1362  00E5  28E7               	goto	u2251
  1363  00E6  28E8               	goto	u2250
  1364  00E7                     u2251:	
  1365  00E7  28F8               	goto	l1633
  1366  00E8                     u2250:	
  1367  00E8                     l1631:	
  1368  00E8  0970               	comf	___xxtofl@val,w
  1369  00E9  00FA               	movwf	___xxtofl@arg
  1370  00EA  0971               	comf	___xxtofl@val+1,w
  1371  00EB  00FB               	movwf	___xxtofl@arg+1
  1372  00EC  0972               	comf	___xxtofl@val+2,w
  1373  00ED  00FC               	movwf	___xxtofl@arg+2
  1374  00EE  0973               	comf	___xxtofl@val+3,w
  1375  00EF  00FD               	movwf	___xxtofl@arg+3
  1376  00F0  0AFA               	incf	___xxtofl@arg,f
  1377  00F1  1903               	skipnz
  1378  00F2  0AFB               	incf	___xxtofl@arg+1,f
  1379  00F3  1903               	skipnz
  1380  00F4  0AFC               	incf	___xxtofl@arg+2,f
  1381  00F5  1903               	skipnz
  1382  00F6  0AFD               	incf	___xxtofl@arg+3,f
  1383  00F7  2900               	goto	l580
  1384  00F8                     l1633:	
  1385  00F8  0873               	movf	___xxtofl@val+3,w
  1386  00F9  00FD               	movwf	___xxtofl@arg+3
  1387  00FA  0872               	movf	___xxtofl@val+2,w
  1388  00FB  00FC               	movwf	___xxtofl@arg+2
  1389  00FC  0871               	movf	___xxtofl@val+1,w
  1390  00FD  00FB               	movwf	___xxtofl@arg+1
  1391  00FE  0870               	movf	___xxtofl@val,w
  1392  00FF  00FA               	movwf	___xxtofl@arg
  1393  0100                     l580:	
  1394  0100  0873               	movf	___xxtofl@val+3,w
  1395  0101  0472               	iorwf	___xxtofl@val+2,w
  1396  0102  0471               	iorwf	___xxtofl@val+1,w
  1397  0103  0470               	iorwf	___xxtofl@val,w
  1398  0104  1D03               	skipz
  1399  0105  2907               	goto	u2261
  1400  0106  2908               	goto	u2260
  1401  0107                     u2261:	
  1402  0107  2911               	goto	l1639
  1403  0108                     u2260:	
  1404  0108                     l1635:	
  1405  0108  3000               	movlw	0
  1406  0109  00F3               	movwf	?___xxtofl+3
  1407  010A  3000               	movlw	0
  1408  010B  00F2               	movwf	?___xxtofl+2
  1409  010C  3000               	movlw	0
  1410  010D  00F1               	movwf	?___xxtofl+1
  1411  010E  3000               	movlw	0
  1412  010F  00F0               	movwf	?___xxtofl
  1413  0110  2997               	goto	l582
  1414  0111                     l1639:	
  1415  0111  3096               	movlw	150
  1416  0112  00F4               	movwf	??___xxtofl
  1417  0113  0874               	movf	??___xxtofl,w
  1418  0114  00F9               	movwf	___xxtofl@exp
  1419  0115  2923               	goto	l1643
  1420  0116                     l1641:	
  1421  0116  3001               	movlw	1
  1422  0117  00F4               	movwf	??___xxtofl
  1423  0118  0874               	movf	??___xxtofl,w
  1424  0119  07F9               	addwf	___xxtofl@exp,f
  1425  011A  3001               	movlw	1
  1426  011B                     u2275:	
  1427  011B  1003               	clrc
  1428  011C  0CFD               	rrf	___xxtofl@arg+3,f
  1429  011D  0CFC               	rrf	___xxtofl@arg+2,f
  1430  011E  0CFB               	rrf	___xxtofl@arg+1,f
  1431  011F  0CFA               	rrf	___xxtofl@arg,f
  1432  0120  3EFF               	addlw	-1
  1433  0121  1D03               	skipz
  1434  0122  291B               	goto	u2275
  1435  0123                     l1643:	
  1436  0123  30FE               	movlw	254
  1437  0124  057D               	andwf	___xxtofl@arg+3,w
  1438  0125  1D03               	btfss	3,2
  1439  0126  2928               	goto	u2281
  1440  0127  2929               	goto	u2280
  1441  0128                     u2281:	
  1442  0128  2916               	goto	l1641
  1443  0129                     u2280:	
  1444  0129  2945               	goto	l586
  1445  012A                     l1645:	
  1446  012A  3001               	movlw	1
  1447  012B  00F4               	movwf	??___xxtofl
  1448  012C  0874               	movf	??___xxtofl,w
  1449  012D  07F9               	addwf	___xxtofl@exp,f
  1450  012E                     l1647:	
  1451  012E  3001               	movlw	1
  1452  012F  07FA               	addwf	___xxtofl@arg,f
  1453  0130  3000               	movlw	0
  1454  0131  1803               	skipnc
  1455  0132  3001               	movlw	1
  1456  0133  07FB               	addwf	___xxtofl@arg+1,f
  1457  0134  3000               	movlw	0
  1458  0135  1803               	skipnc
  1459  0136  3001               	movlw	1
  1460  0137  07FC               	addwf	___xxtofl@arg+2,f
  1461  0138  3000               	movlw	0
  1462  0139  1803               	skipnc
  1463  013A  3001               	movlw	1
  1464  013B  07FD               	addwf	___xxtofl@arg+3,f
  1465  013C                     l1649:	
  1466  013C  3001               	movlw	1
  1467  013D                     u2295:	
  1468  013D  1003               	clrc
  1469  013E  0CFD               	rrf	___xxtofl@arg+3,f
  1470  013F  0CFC               	rrf	___xxtofl@arg+2,f
  1471  0140  0CFB               	rrf	___xxtofl@arg+1,f
  1472  0141  0CFA               	rrf	___xxtofl@arg,f
  1473  0142  3EFF               	addlw	-1
  1474  0143  1D03               	skipz
  1475  0144  293D               	goto	u2295
  1476  0145                     l586:	
  1477  0145  30FF               	movlw	255
  1478  0146  057D               	andwf	___xxtofl@arg+3,w
  1479  0147  1D03               	btfss	3,2
  1480  0148  294A               	goto	u2301
  1481  0149  294B               	goto	u2300
  1482  014A                     u2301:	
  1483  014A  292A               	goto	l1645
  1484  014B                     u2300:	
  1485  014B  2957               	goto	l1653
  1486  014C                     l1651:	
  1487  014C  3001               	movlw	1
  1488  014D  02F9               	subwf	___xxtofl@exp,f
  1489  014E  3001               	movlw	1
  1490  014F  00F4               	movwf	??___xxtofl
  1491  0150                     u2315:	
  1492  0150  1003               	clrc
  1493  0151  0DFA               	rlf	___xxtofl@arg,f
  1494  0152  0DFB               	rlf	___xxtofl@arg+1,f
  1495  0153  0DFC               	rlf	___xxtofl@arg+2,f
  1496  0154  0DFD               	rlf	___xxtofl@arg+3,f
  1497  0155  0BF4               	decfsz	??___xxtofl,f
  1498  0156  2950               	goto	u2315
  1499  0157                     l1653:	
  1500  0157  1BFC               	btfsc	___xxtofl@arg+2,7
  1501  0158  295A               	goto	u2321
  1502  0159  295B               	goto	u2320
  1503  015A                     u2321:	
  1504  015A  2961               	goto	l593
  1505  015B                     u2320:	
  1506  015B                     l1655:	
  1507  015B  3002               	movlw	2
  1508  015C  0279               	subwf	___xxtofl@exp,w
  1509  015D  1803               	skipnc
  1510  015E  2960               	goto	u2331
  1511  015F  2961               	goto	u2330
  1512  0160                     u2331:	
  1513  0160  294C               	goto	l1651
  1514  0161                     u2330:	
  1515  0161                     l593:	
  1516  0161  1879               	btfsc	___xxtofl@exp,0
  1517  0162  2964               	goto	u2341
  1518  0163  2965               	goto	u2340
  1519  0164                     u2341:	
  1520  0164  296D               	goto	l594
  1521  0165                     u2340:	
  1522  0165                     l1657:	
  1523  0165  30FF               	movlw	255
  1524  0166  05FA               	andwf	___xxtofl@arg,f
  1525  0167  30FF               	movlw	255
  1526  0168  05FB               	andwf	___xxtofl@arg+1,f
  1527  0169  307F               	movlw	127
  1528  016A  05FC               	andwf	___xxtofl@arg+2,f
  1529  016B  30FF               	movlw	255
  1530  016C  05FD               	andwf	___xxtofl@arg+3,f
  1531  016D                     l594:	
  1532  016D  1003               	clrc
  1533  016E  0CF9               	rrf	___xxtofl@exp,f
  1534  016F                     l1659:	
  1535  016F  0879               	movf	___xxtofl@exp,w
  1536  0170  00F4               	movwf	??___xxtofl
  1537  0171  01F5               	clrf	??___xxtofl+1
  1538  0172  01F6               	clrf	??___xxtofl+2
  1539  0173  01F7               	clrf	??___xxtofl+3
  1540  0174  3018               	movlw	24
  1541  0175                     u2355:	
  1542  0175  1003               	clrc
  1543  0176  0DF4               	rlf	??___xxtofl,f
  1544  0177  0DF5               	rlf	??___xxtofl+1,f
  1545  0178  0DF6               	rlf	??___xxtofl+2,f
  1546  0179  0DF7               	rlf	??___xxtofl+3,f
  1547  017A                     u2350:	
  1548  017A  3EFF               	addlw	-1
  1549  017B  1D03               	skipz
  1550  017C  2975               	goto	u2355
  1551  017D  0874               	movf	??___xxtofl,w
  1552  017E  04FA               	iorwf	___xxtofl@arg,f
  1553  017F  0875               	movf	??___xxtofl+1,w
  1554  0180  04FB               	iorwf	___xxtofl@arg+1,f
  1555  0181  0876               	movf	??___xxtofl+2,w
  1556  0182  04FC               	iorwf	___xxtofl@arg+2,f
  1557  0183  0877               	movf	??___xxtofl+3,w
  1558  0184  04FD               	iorwf	___xxtofl@arg+3,f
  1559  0185                     l1661:	
  1560  0185  0878               	movf	___xxtofl@sign,w
  1561  0186  1903               	btfsc	3,2
  1562  0187  2989               	goto	u2361
  1563  0188  298A               	goto	u2360
  1564  0189                     u2361:	
  1565  0189  298F               	goto	l1667
  1566  018A                     u2360:	
  1567  018A                     l1663:	
  1568  018A  1FF3               	btfss	___xxtofl@val+3,7
  1569  018B  298D               	goto	u2371
  1570  018C  298E               	goto	u2370
  1571  018D                     u2371:	
  1572  018D  298F               	goto	l1667
  1573  018E                     u2370:	
  1574  018E                     l1665:	
  1575  018E  17FD               	bsf	___xxtofl@arg+3,7
  1576  018F                     l1667:	
  1577  018F  087D               	movf	___xxtofl@arg+3,w
  1578  0190  00F3               	movwf	?___xxtofl+3
  1579  0191  087C               	movf	___xxtofl@arg+2,w
  1580  0192  00F2               	movwf	?___xxtofl+2
  1581  0193  087B               	movf	___xxtofl@arg+1,w
  1582  0194  00F1               	movwf	?___xxtofl+1
  1583  0195  087A               	movf	___xxtofl@arg,w
  1584  0196  00F0               	movwf	?___xxtofl
  1585  0197                     l582:	
  1586  0197  0008               	return
  1587  0198                     __end_of___xxtofl:	
  1588                           
  1589                           	psect	text7
  1590  0064                     __ptext7:	
  1591 ;; *************** function ___fltol *****************
  1592 ;; Defined at:
  1593 ;;		line 43 in file "/opt/microchip/xc8/v2.10/pic/sources/c90/common/fltol.c"
  1594 ;; Parameters:    Size  Location     Type
  1595 ;;  f1              4    0[COMMON] unsigned char 
  1596 ;; Auto vars:     Size  Location     Type
  1597 ;;  exp1            1   10[COMMON] unsigned char 
  1598 ;;  sign1           1    9[COMMON] unsigned char 
  1599 ;; Return value:  Size  Location     Type
  1600 ;;                  4    0[COMMON] long 
  1601 ;; Registers used:
  1602 ;;		wreg, status,2, status,0
  1603 ;; Tracked objects:
  1604 ;;		On entry : 0/0
  1605 ;;		On exit  : 0/0
  1606 ;;		Unchanged: 0/0
  1607 ;; Data sizes:     COMMON   BANK0   BANK1   BANK3   BANK2
  1608 ;;      Params:         4       0       0       0       0
  1609 ;;      Locals:         2       0       0       0       0
  1610 ;;      Temps:          5       0       0       0       0
  1611 ;;      Totals:        11       0       0       0       0
  1612 ;;Total ram usage:       11 bytes
  1613 ;; Hardware stack levels used:    1
  1614 ;; This function calls:
  1615 ;;		Nothing
  1616 ;; This function is called by:
  1617 ;;		_main
  1618 ;; This function uses a non-reentrant model
  1619 ;;
  1620                           
  1621                           
  1622                           ;psect for function ___fltol
  1623  0064                     ___fltol:	
  1624  0064                     l1309:	
  1625                           ;incstack = 0
  1626                           ; Regs used in ___fltol: [wreg+status,2+status,0]
  1627                           
  1628  0064  1003               	clrc
  1629  0065  0D72               	rlf	___fltol@f1+2,w
  1630  0066  0D73               	rlf	___fltol@f1+3,w
  1631  0067  00F4               	movwf	??___fltol
  1632  0068  0874               	movf	??___fltol,w
  1633  0069  00FA               	movwf	___fltol@exp1
  1634  006A  087A               	movf	___fltol@exp1,w
  1635  006B  1D03               	btfss	3,2
  1636  006C  286E               	goto	u1471
  1637  006D  286F               	goto	u1470
  1638  006E                     u1471:	
  1639  006E  2878               	goto	l1315
  1640  006F                     u1470:	
  1641  006F                     l1311:	
  1642  006F  3000               	movlw	0
  1643  0070  00F3               	movwf	?___fltol+3
  1644  0071  3000               	movlw	0
  1645  0072  00F2               	movwf	?___fltol+2
  1646  0073  3000               	movlw	0
  1647  0074  00F1               	movwf	?___fltol+1
  1648  0075  3000               	movlw	0
  1649  0076  00F0               	movwf	?___fltol
  1650  0077  28DD               	goto	l339
  1651  0078                     l1315:	
  1652  0078  0870               	movf	___fltol@f1,w
  1653  0079  00F4               	movwf	??___fltol
  1654  007A  0871               	movf	___fltol@f1+1,w
  1655  007B  00F5               	movwf	??___fltol+1
  1656  007C  0872               	movf	___fltol@f1+2,w
  1657  007D  00F6               	movwf	??___fltol+2
  1658  007E  0873               	movf	___fltol@f1+3,w
  1659  007F  00F7               	movwf	??___fltol+3
  1660  0080  301F               	movlw	31
  1661  0081                     u1485:	
  1662  0081  1003               	clrc
  1663  0082  0CF7               	rrf	??___fltol+3,f
  1664  0083  0CF6               	rrf	??___fltol+2,f
  1665  0084  0CF5               	rrf	??___fltol+1,f
  1666  0085  0CF4               	rrf	??___fltol,f
  1667  0086                     u1480:	
  1668  0086  3EFF               	addlw	-1
  1669  0087  1D03               	skipz
  1670  0088  2881               	goto	u1485
  1671  0089  0874               	movf	??___fltol,w
  1672  008A  00F8               	movwf	??___fltol+4
  1673  008B  0878               	movf	??___fltol+4,w
  1674  008C  00F9               	movwf	___fltol@sign1
  1675  008D                     l1317:	
  1676  008D  17F2               	bsf	___fltol@f1+2,7
  1677  008E                     l1319:	
  1678  008E  30FF               	movlw	255
  1679  008F  05F0               	andwf	___fltol@f1,f
  1680  0090  30FF               	movlw	255
  1681  0091  05F1               	andwf	___fltol@f1+1,f
  1682  0092  30FF               	movlw	255
  1683  0093  05F2               	andwf	___fltol@f1+2,f
  1684  0094  3000               	movlw	0
  1685  0095  05F3               	andwf	___fltol@f1+3,f
  1686  0096                     l1321:	
  1687  0096  3096               	movlw	150
  1688  0097  02FA               	subwf	___fltol@exp1,f
  1689  0098                     l1323:	
  1690  0098  1FFA               	btfss	___fltol@exp1,7
  1691  0099  289B               	goto	u1491
  1692  009A  289C               	goto	u1490
  1693  009B                     u1491:	
  1694  009B  28B6               	goto	l1333
  1695  009C                     u1490:	
  1696  009C                     l1325:	
  1697  009C  087A               	movf	___fltol@exp1,w
  1698  009D  3A80               	xorlw	128
  1699  009E  3E97               	addlw	151
  1700  009F  1803               	skipnc
  1701  00A0  28A2               	goto	u1501
  1702  00A1  28A3               	goto	u1500
  1703  00A2                     u1501:	
  1704  00A2  28A4               	goto	l1331
  1705  00A3                     u1500:	
  1706  00A3  286F               	goto	l1311
  1707  00A4                     l1331:	
  1708  00A4  3001               	movlw	1
  1709  00A5                     u1515:	
  1710  00A5  1003               	clrc
  1711  00A6  0CF3               	rrf	___fltol@f1+3,f
  1712  00A7  0CF2               	rrf	___fltol@f1+2,f
  1713  00A8  0CF1               	rrf	___fltol@f1+1,f
  1714  00A9  0CF0               	rrf	___fltol@f1,f
  1715  00AA  3EFF               	addlw	-1
  1716  00AB  1D03               	skipz
  1717  00AC  28A5               	goto	u1515
  1718  00AD  3001               	movlw	1
  1719  00AE  00F4               	movwf	??___fltol
  1720  00AF  0874               	movf	??___fltol,w
  1721  00B0  07FA               	addwf	___fltol@exp1,f
  1722  00B1  1D03               	btfss	3,2
  1723  00B2  28B4               	goto	u1521
  1724  00B3  28B5               	goto	u1520
  1725  00B4                     u1521:	
  1726  00B4  28A4               	goto	l1331
  1727  00B5                     u1520:	
  1728  00B5  28CD               	goto	l1341
  1729  00B6                     l1333:	
  1730  00B6  3020               	movlw	32
  1731  00B7  027A               	subwf	___fltol@exp1,w
  1732  00B8  1C03               	skipc
  1733  00B9  28BB               	goto	u1531
  1734  00BA  28BC               	goto	u1530
  1735  00BB                     u1531:	
  1736  00BB  28C8               	goto	l346
  1737  00BC                     u1530:	
  1738  00BC  286F               	goto	l1311
  1739  00BD                     l1339:	
  1740  00BD  3001               	movlw	1
  1741  00BE  00F4               	movwf	??___fltol
  1742  00BF                     u1545:	
  1743  00BF  1003               	clrc
  1744  00C0  0DF0               	rlf	___fltol@f1,f
  1745  00C1  0DF1               	rlf	___fltol@f1+1,f
  1746  00C2  0DF2               	rlf	___fltol@f1+2,f
  1747  00C3  0DF3               	rlf	___fltol@f1+3,f
  1748  00C4  0BF4               	decfsz	??___fltol,f
  1749  00C5  28BF               	goto	u1545
  1750  00C6  3001               	movlw	1
  1751  00C7  02FA               	subwf	___fltol@exp1,f
  1752  00C8                     l346:	
  1753  00C8  087A               	movf	___fltol@exp1,w
  1754  00C9  1D03               	btfss	3,2
  1755  00CA  28CC               	goto	u1551
  1756  00CB  28CD               	goto	u1550
  1757  00CC                     u1551:	
  1758  00CC  28BD               	goto	l1339
  1759  00CD                     u1550:	
  1760  00CD                     l1341:	
  1761  00CD  0879               	movf	___fltol@sign1,w
  1762  00CE  1903               	btfsc	3,2
  1763  00CF  28D1               	goto	u1561
  1764  00D0  28D2               	goto	u1560
  1765  00D1                     u1561:	
  1766  00D1  28DD               	goto	l349
  1767  00D2                     u1560:	
  1768  00D2                     l1343:	
  1769  00D2  09F0               	comf	___fltol@f1,f
  1770  00D3  09F1               	comf	___fltol@f1+1,f
  1771  00D4  09F2               	comf	___fltol@f1+2,f
  1772  00D5  09F3               	comf	___fltol@f1+3,f
  1773  00D6  0AF0               	incf	___fltol@f1,f
  1774  00D7  1903               	skipnz
  1775  00D8  0AF1               	incf	___fltol@f1+1,f
  1776  00D9  1903               	skipnz
  1777  00DA  0AF2               	incf	___fltol@f1+2,f
  1778  00DB  1903               	skipnz
  1779  00DC  0AF3               	incf	___fltol@f1+3,f
  1780  00DD                     l349:	
  1781  00DD                     l339:	
  1782  00DD  0008               	return
  1783  00DE                     __end_of___fltol:	
  1784                           
  1785                           	psect	text8
  1786  048D                     __ptext8:	
  1787 ;; *************** function ___flmul *****************
  1788 ;; Defined at:
  1789 ;;		line 8 in file "/opt/microchip/xc8/v2.10/pic/sources/c90/common/sprcmul.c"
  1790 ;; Parameters:    Size  Location     Type
  1791 ;;  b               4    0[BANK0 ] long 
  1792 ;;  a               4    4[BANK0 ] long 
  1793 ;; Auto vars:     Size  Location     Type
  1794 ;;  prod            4   20[BANK0 ] struct .
  1795 ;;  grs             4   14[BANK0 ] unsigned long 
  1796 ;;  temp            2   24[BANK0 ] struct .
  1797 ;;  bexp            1   19[BANK0 ] unsigned char 
  1798 ;;  aexp            1   18[BANK0 ] unsigned char 
  1799 ;;  sign            1   13[BANK0 ] unsigned char 
  1800 ;; Return value:  Size  Location     Type
  1801 ;;                  4    0[BANK0 ] unsigned char 
  1802 ;; Registers used:
  1803 ;;		wreg, status,2, status,0, btemp+1, pclath, cstack
  1804 ;; Tracked objects:
  1805 ;;		On entry : 0/0
  1806 ;;		On exit  : 0/0
  1807 ;;		Unchanged: 0/0
  1808 ;; Data sizes:     COMMON   BANK0   BANK1   BANK3   BANK2
  1809 ;;      Params:         0       8       0       0       0
  1810 ;;      Locals:         0      13       0       0       0
  1811 ;;      Temps:          0       5       0       0       0
  1812 ;;      Totals:         0      26       0       0       0
  1813 ;;Total ram usage:       26 bytes
  1814 ;; Hardware stack levels used:    1
  1815 ;; Hardware stack levels required when called:    1
  1816 ;; This function calls:
  1817 ;;		__Umul8_16
  1818 ;; This function is called by:
  1819 ;;		_main
  1820 ;; This function uses a non-reentrant model
  1821 ;;
  1822                           
  1823                           
  1824                           ;psect for function ___flmul
  1825  048D                     ___flmul:	
  1826  048D                     l1487:	
  1827                           ;incstack = 0
  1828                           ; Regs used in ___flmul: [wreg+status,2+status,0+btemp+1+pclath+cstack]
  1829                           
  1830  048D  1283               	bcf	3,5	;RP0=0, select bank0
  1831  048E  1303               	bcf	3,6	;RP1=0, select bank0
  1832  048F  0823               	movf	___flmul@b+3,w
  1833  0490  3980               	andlw	128
  1834  0491  00A8               	movwf	??___flmul
  1835  0492  0828               	movf	??___flmul,w
  1836  0493  00AD               	movwf	___flmul@sign
  1837  0494                     l1489:	
  1838  0494  0823               	movf	___flmul@b+3,w
  1839  0495  00A8               	movwf	??___flmul
  1840  0496  0728               	addwf	??___flmul,w
  1841  0497  00A9               	movwf	??___flmul+1
  1842  0498  0829               	movf	??___flmul+1,w
  1843  0499  00B3               	movwf	___flmul@bexp
  1844  049A                     l1491:	
  1845  049A  1FA2               	btfss	___flmul@b+2,7
  1846  049B  2C9D               	goto	u1871
  1847  049C  2C9E               	goto	u1870
  1848  049D                     u1871:	
  1849  049D  2C9F               	goto	l1495
  1850  049E                     u1870:	
  1851  049E                     l1493:	
  1852  049E  1433               	bsf	___flmul@bexp,0
  1853  049F                     l1495:	
  1854  049F  0833               	movf	___flmul@bexp,w
  1855  04A0  1903               	btfsc	3,2
  1856  04A1  2CA3               	goto	u1881
  1857  04A2  2CA4               	goto	u1880
  1858  04A3                     u1881:	
  1859  04A3  2CB3               	goto	l1503
  1860  04A4                     u1880:	
  1861  04A4                     l1497:	
  1862  04A4  0A33               	incf	___flmul@bexp,w
  1863  04A5  1D03               	btfss	3,2
  1864  04A6  2CA8               	goto	u1891
  1865  04A7  2CA9               	goto	u1890
  1866  04A8                     u1891:	
  1867  04A8  2CB1               	goto	l1501
  1868  04A9                     u1890:	
  1869  04A9                     l1499:	
  1870  04A9  3000               	movlw	0
  1871  04AA  00A3               	movwf	___flmul@b+3
  1872  04AB  3000               	movlw	0
  1873  04AC  00A2               	movwf	___flmul@b+2
  1874  04AD  3000               	movlw	0
  1875  04AE  00A1               	movwf	___flmul@b+1
  1876  04AF  3000               	movlw	0
  1877  04B0  00A0               	movwf	___flmul@b
  1878  04B1                     l1501:	
  1879  04B1  17A2               	bsf	___flmul@b+2,7
  1880  04B2  2CBB               	goto	l1505
  1881  04B3                     l1503:	
  1882  04B3  3000               	movlw	0
  1883  04B4  00A3               	movwf	___flmul@b+3
  1884  04B5  3000               	movlw	0
  1885  04B6  00A2               	movwf	___flmul@b+2
  1886  04B7  3000               	movlw	0
  1887  04B8  00A1               	movwf	___flmul@b+1
  1888  04B9  3000               	movlw	0
  1889  04BA  00A0               	movwf	___flmul@b
  1890  04BB                     l1505:	
  1891  04BB  0827               	movf	___flmul@a+3,w
  1892  04BC  3980               	andlw	128
  1893  04BD  00A8               	movwf	??___flmul
  1894  04BE  0828               	movf	??___flmul,w
  1895  04BF  06AD               	xorwf	___flmul@sign,f
  1896  04C0                     l1507:	
  1897  04C0  0827               	movf	___flmul@a+3,w
  1898  04C1  00A8               	movwf	??___flmul
  1899  04C2  0728               	addwf	??___flmul,w
  1900  04C3  00A9               	movwf	??___flmul+1
  1901  04C4  0829               	movf	??___flmul+1,w
  1902  04C5  00B2               	movwf	___flmul@aexp
  1903  04C6                     l1509:	
  1904  04C6  1FA6               	btfss	___flmul@a+2,7
  1905  04C7  2CC9               	goto	u1901
  1906  04C8  2CCA               	goto	u1900
  1907  04C9                     u1901:	
  1908  04C9  2CCB               	goto	l1513
  1909  04CA                     u1900:	
  1910  04CA                     l1511:	
  1911  04CA  1432               	bsf	___flmul@aexp,0
  1912  04CB                     l1513:	
  1913  04CB  0832               	movf	___flmul@aexp,w
  1914  04CC  1903               	btfsc	3,2
  1915  04CD  2CCF               	goto	u1911
  1916  04CE  2CD0               	goto	u1910
  1917  04CF                     u1911:	
  1918  04CF  2CDF               	goto	l1521
  1919  04D0                     u1910:	
  1920  04D0                     l1515:	
  1921  04D0  0A32               	incf	___flmul@aexp,w
  1922  04D1  1D03               	btfss	3,2
  1923  04D2  2CD4               	goto	u1921
  1924  04D3  2CD5               	goto	u1920
  1925  04D4                     u1921:	
  1926  04D4  2CDD               	goto	l1519
  1927  04D5                     u1920:	
  1928  04D5                     l1517:	
  1929  04D5  3000               	movlw	0
  1930  04D6  00A7               	movwf	___flmul@a+3
  1931  04D7  3000               	movlw	0
  1932  04D8  00A6               	movwf	___flmul@a+2
  1933  04D9  3000               	movlw	0
  1934  04DA  00A5               	movwf	___flmul@a+1
  1935  04DB  3000               	movlw	0
  1936  04DC  00A4               	movwf	___flmul@a
  1937  04DD                     l1519:	
  1938  04DD  17A6               	bsf	___flmul@a+2,7
  1939  04DE  2CE7               	goto	l1523
  1940  04DF                     l1521:	
  1941  04DF  3000               	movlw	0
  1942  04E0  00A7               	movwf	___flmul@a+3
  1943  04E1  3000               	movlw	0
  1944  04E2  00A6               	movwf	___flmul@a+2
  1945  04E3  3000               	movlw	0
  1946  04E4  00A5               	movwf	___flmul@a+1
  1947  04E5  3000               	movlw	0
  1948  04E6  00A4               	movwf	___flmul@a
  1949  04E7                     l1523:	
  1950  04E7  0832               	movf	___flmul@aexp,w
  1951  04E8  1903               	btfsc	3,2
  1952  04E9  2CEB               	goto	u1931
  1953  04EA  2CEC               	goto	u1930
  1954  04EB                     u1931:	
  1955  04EB  2CF1               	goto	l1527
  1956  04EC                     u1930:	
  1957  04EC                     l1525:	
  1958  04EC  0833               	movf	___flmul@bexp,w
  1959  04ED  1D03               	btfss	3,2
  1960  04EE  2CF0               	goto	u1941
  1961  04EF  2CF1               	goto	u1940
  1962  04F0                     u1941:	
  1963  04F0  2CFA               	goto	l1531
  1964  04F1                     u1940:	
  1965  04F1                     l1527:	
  1966  04F1  3000               	movlw	0
  1967  04F2  00A3               	movwf	?___flmul+3
  1968  04F3  3000               	movlw	0
  1969  04F4  00A2               	movwf	?___flmul+2
  1970  04F5  3000               	movlw	0
  1971  04F6  00A1               	movwf	?___flmul+1
  1972  04F7  3000               	movlw	0
  1973  04F8  00A0               	movwf	?___flmul
  1974  04F9  2FED               	goto	l542
  1975  04FA                     l1531:	
  1976  04FA  0820               	movf	___flmul@b,w
  1977  04FB  00A8               	movwf	??___flmul
  1978  04FC  0828               	movf	??___flmul,w
  1979  04FD  00F0               	movwf	__Umul8_16@multiplicand
  1980  04FE  0826               	movf	___flmul@a+2,w
  1981  04FF  120A  158A  273A  120A  118A  	fcall	__Umul8_16
  1982  0504  0871               	movf	?__Umul8_16+1,w
  1983  0505  1283               	bcf	3,5	;RP0=0, select bank0
  1984  0506  1303               	bcf	3,6	;RP1=0, select bank0
  1985  0507  00B9               	movwf	___flmul@temp+1
  1986  0508  0870               	movf	?__Umul8_16,w
  1987  0509  00B8               	movwf	___flmul@temp
  1988  050A                     l1533:	
  1989  050A  0838               	movf	___flmul@temp,w
  1990  050B  00A8               	movwf	??___flmul
  1991  050C  01A9               	clrf	??___flmul+1
  1992  050D  01AA               	clrf	??___flmul+2
  1993  050E  01AB               	clrf	??___flmul+3
  1994  050F  082B               	movf	??___flmul+3,w
  1995  0510  00B1               	movwf	___flmul@grs+3
  1996  0511  082A               	movf	??___flmul+2,w
  1997  0512  00B0               	movwf	___flmul@grs+2
  1998  0513  0829               	movf	??___flmul+1,w
  1999  0514  00AF               	movwf	___flmul@grs+1
  2000  0515  0828               	movf	??___flmul,w
  2001  0516  00AE               	movwf	___flmul@grs
  2002  0517                     l1535:	
  2003  0517  0839               	movf	___flmul@temp+1,w
  2004  0518  00A8               	movwf	??___flmul
  2005  0519  01A9               	clrf	??___flmul+1
  2006  051A  01AA               	clrf	??___flmul+2
  2007  051B  01AB               	clrf	??___flmul+3
  2008  051C  082B               	movf	??___flmul+3,w
  2009  051D  00B7               	movwf	___flmul@prod+3
  2010  051E  082A               	movf	??___flmul+2,w
  2011  051F  00B6               	movwf	___flmul@prod+2
  2012  0520  0829               	movf	??___flmul+1,w
  2013  0521  00B5               	movwf	___flmul@prod+1
  2014  0522  0828               	movf	??___flmul,w
  2015  0523  00B4               	movwf	___flmul@prod
  2016  0524  0821               	movf	___flmul@b+1,w
  2017  0525  00A8               	movwf	??___flmul
  2018  0526  0828               	movf	??___flmul,w
  2019  0527  00F0               	movwf	__Umul8_16@multiplicand
  2020  0528  0825               	movf	___flmul@a+1,w
  2021  0529  120A  158A  273A  120A  118A  	fcall	__Umul8_16
  2022  052E  0871               	movf	?__Umul8_16+1,w
  2023  052F  1283               	bcf	3,5	;RP0=0, select bank0
  2024  0530  1303               	bcf	3,6	;RP1=0, select bank0
  2025  0531  00B9               	movwf	___flmul@temp+1
  2026  0532  0870               	movf	?__Umul8_16,w
  2027  0533  00B8               	movwf	___flmul@temp
  2028  0534                     l1537:	
  2029  0534  0838               	movf	___flmul@temp,w
  2030  0535  00A8               	movwf	??___flmul
  2031  0536  01A9               	clrf	??___flmul+1
  2032  0537  01AA               	clrf	??___flmul+2
  2033  0538  01AB               	clrf	??___flmul+3
  2034  0539  0828               	movf	??___flmul,w
  2035  053A  07AE               	addwf	___flmul@grs,f
  2036  053B  0829               	movf	??___flmul+1,w
  2037  053C  1103               	clrz
  2038  053D  1803               	skipnc
  2039  053E  3E01               	addlw	1
  2040  053F  1903               	skipnz
  2041  0540  2D42               	goto	u1951
  2042  0541  07AF               	addwf	___flmul@grs+1,f
  2043  0542                     u1951:	
  2044  0542  082A               	movf	??___flmul+2,w
  2045  0543  1103               	clrz
  2046  0544  1803               	skipnc
  2047  0545  3E01               	addlw	1
  2048  0546  1903               	skipnz
  2049  0547  2D49               	goto	u1952
  2050  0548  07B0               	addwf	___flmul@grs+2,f
  2051  0549                     u1952:	
  2052  0549  082B               	movf	??___flmul+3,w
  2053  054A  1103               	clrz
  2054  054B  1803               	skipnc
  2055  054C  3E01               	addlw	1
  2056  054D  1903               	skipnz
  2057  054E  2D50               	goto	u1953
  2058  054F  07B1               	addwf	___flmul@grs+3,f
  2059  0550                     u1953:	
  2060  0550                     l1539:	
  2061  0550  0839               	movf	___flmul@temp+1,w
  2062  0551  00A8               	movwf	??___flmul
  2063  0552  01A9               	clrf	??___flmul+1
  2064  0553  01AA               	clrf	??___flmul+2
  2065  0554  01AB               	clrf	??___flmul+3
  2066  0555  0828               	movf	??___flmul,w
  2067  0556  07B4               	addwf	___flmul@prod,f
  2068  0557  0829               	movf	??___flmul+1,w
  2069  0558  1103               	clrz
  2070  0559  1803               	skipnc
  2071  055A  3E01               	addlw	1
  2072  055B  1903               	skipnz
  2073  055C  2D5E               	goto	u1961
  2074  055D  07B5               	addwf	___flmul@prod+1,f
  2075  055E                     u1961:	
  2076  055E  082A               	movf	??___flmul+2,w
  2077  055F  1103               	clrz
  2078  0560  1803               	skipnc
  2079  0561  3E01               	addlw	1
  2080  0562  1903               	skipnz
  2081  0563  2D65               	goto	u1962
  2082  0564  07B6               	addwf	___flmul@prod+2,f
  2083  0565                     u1962:	
  2084  0565  082B               	movf	??___flmul+3,w
  2085  0566  1103               	clrz
  2086  0567  1803               	skipnc
  2087  0568  3E01               	addlw	1
  2088  0569  1903               	skipnz
  2089  056A  2D6C               	goto	u1963
  2090  056B  07B7               	addwf	___flmul@prod+3,f
  2091  056C                     u1963:	
  2092  056C  0822               	movf	___flmul@b+2,w
  2093  056D  00A8               	movwf	??___flmul
  2094  056E  0828               	movf	??___flmul,w
  2095  056F  00F0               	movwf	__Umul8_16@multiplicand
  2096  0570  0824               	movf	___flmul@a,w
  2097  0571  120A  158A  273A  120A  118A  	fcall	__Umul8_16
  2098  0576  0871               	movf	?__Umul8_16+1,w
  2099  0577  1283               	bcf	3,5	;RP0=0, select bank0
  2100  0578  1303               	bcf	3,6	;RP1=0, select bank0
  2101  0579  00B9               	movwf	___flmul@temp+1
  2102  057A  0870               	movf	?__Umul8_16,w
  2103  057B  00B8               	movwf	___flmul@temp
  2104  057C                     l1541:	
  2105  057C  0838               	movf	___flmul@temp,w
  2106  057D  00A8               	movwf	??___flmul
  2107  057E  01A9               	clrf	??___flmul+1
  2108  057F  01AA               	clrf	??___flmul+2
  2109  0580  01AB               	clrf	??___flmul+3
  2110  0581  0828               	movf	??___flmul,w
  2111  0582  07AE               	addwf	___flmul@grs,f
  2112  0583  0829               	movf	??___flmul+1,w
  2113  0584  1103               	clrz
  2114  0585  1803               	skipnc
  2115  0586  3E01               	addlw	1
  2116  0587  1903               	skipnz
  2117  0588  2D8A               	goto	u1971
  2118  0589  07AF               	addwf	___flmul@grs+1,f
  2119  058A                     u1971:	
  2120  058A  082A               	movf	??___flmul+2,w
  2121  058B  1103               	clrz
  2122  058C  1803               	skipnc
  2123  058D  3E01               	addlw	1
  2124  058E  1903               	skipnz
  2125  058F  2D91               	goto	u1972
  2126  0590  07B0               	addwf	___flmul@grs+2,f
  2127  0591                     u1972:	
  2128  0591  082B               	movf	??___flmul+3,w
  2129  0592  1103               	clrz
  2130  0593  1803               	skipnc
  2131  0594  3E01               	addlw	1
  2132  0595  1903               	skipnz
  2133  0596  2D98               	goto	u1973
  2134  0597  07B1               	addwf	___flmul@grs+3,f
  2135  0598                     u1973:	
  2136  0598                     l1543:	
  2137  0598  0839               	movf	___flmul@temp+1,w
  2138  0599  00A8               	movwf	??___flmul
  2139  059A  01A9               	clrf	??___flmul+1
  2140  059B  01AA               	clrf	??___flmul+2
  2141  059C  01AB               	clrf	??___flmul+3
  2142  059D  0828               	movf	??___flmul,w
  2143  059E  07B4               	addwf	___flmul@prod,f
  2144  059F  0829               	movf	??___flmul+1,w
  2145  05A0  1103               	clrz
  2146  05A1  1803               	skipnc
  2147  05A2  3E01               	addlw	1
  2148  05A3  1903               	skipnz
  2149  05A4  2DA6               	goto	u1981
  2150  05A5  07B5               	addwf	___flmul@prod+1,f
  2151  05A6                     u1981:	
  2152  05A6  082A               	movf	??___flmul+2,w
  2153  05A7  1103               	clrz
  2154  05A8  1803               	skipnc
  2155  05A9  3E01               	addlw	1
  2156  05AA  1903               	skipnz
  2157  05AB  2DAD               	goto	u1982
  2158  05AC  07B6               	addwf	___flmul@prod+2,f
  2159  05AD                     u1982:	
  2160  05AD  082B               	movf	??___flmul+3,w
  2161  05AE  1103               	clrz
  2162  05AF  1803               	skipnc
  2163  05B0  3E01               	addlw	1
  2164  05B1  1903               	skipnz
  2165  05B2  2DB4               	goto	u1983
  2166  05B3  07B7               	addwf	___flmul@prod+3,f
  2167  05B4                     u1983:	
  2168  05B4                     l1545:	
  2169  05B4  3008               	movlw	8
  2170  05B5  00A8               	movwf	??___flmul
  2171  05B6                     u1995:	
  2172  05B6  1003               	clrc
  2173  05B7  0DAE               	rlf	___flmul@grs,f
  2174  05B8  0DAF               	rlf	___flmul@grs+1,f
  2175  05B9  0DB0               	rlf	___flmul@grs+2,f
  2176  05BA  0DB1               	rlf	___flmul@grs+3,f
  2177  05BB  0BA8               	decfsz	??___flmul,f
  2178  05BC  2DB6               	goto	u1995
  2179  05BD                     l1547:	
  2180  05BD  0821               	movf	___flmul@b+1,w
  2181  05BE  00A8               	movwf	??___flmul
  2182  05BF  0828               	movf	??___flmul,w
  2183  05C0  00F0               	movwf	__Umul8_16@multiplicand
  2184  05C1  0824               	movf	___flmul@a,w
  2185  05C2  120A  158A  273A  120A  118A  	fcall	__Umul8_16
  2186  05C7  0871               	movf	?__Umul8_16+1,w
  2187  05C8  1283               	bcf	3,5	;RP0=0, select bank0
  2188  05C9  1303               	bcf	3,6	;RP1=0, select bank0
  2189  05CA  00B9               	movwf	___flmul@temp+1
  2190  05CB  0870               	movf	?__Umul8_16,w
  2191  05CC  00B8               	movwf	___flmul@temp
  2192  05CD                     l1549:	
  2193  05CD  0838               	movf	___flmul@temp,w
  2194  05CE  00A8               	movwf	??___flmul
  2195  05CF  0839               	movf	___flmul@temp+1,w
  2196  05D0  00A9               	movwf	??___flmul+1
  2197  05D1  01AA               	clrf	??___flmul+2
  2198  05D2  01AB               	clrf	??___flmul+3
  2199  05D3  0828               	movf	??___flmul,w
  2200  05D4  07AE               	addwf	___flmul@grs,f
  2201  05D5  0829               	movf	??___flmul+1,w
  2202  05D6  1103               	clrz
  2203  05D7  1803               	skipnc
  2204  05D8  3E01               	addlw	1
  2205  05D9  1903               	skipnz
  2206  05DA  2DDC               	goto	u2001
  2207  05DB  07AF               	addwf	___flmul@grs+1,f
  2208  05DC                     u2001:	
  2209  05DC  082A               	movf	??___flmul+2,w
  2210  05DD  1103               	clrz
  2211  05DE  1803               	skipnc
  2212  05DF  3E01               	addlw	1
  2213  05E0  1903               	skipnz
  2214  05E1  2DE3               	goto	u2002
  2215  05E2  07B0               	addwf	___flmul@grs+2,f
  2216  05E3                     u2002:	
  2217  05E3  082B               	movf	??___flmul+3,w
  2218  05E4  1103               	clrz
  2219  05E5  1803               	skipnc
  2220  05E6  3E01               	addlw	1
  2221  05E7  1903               	skipnz
  2222  05E8  2DEA               	goto	u2003
  2223  05E9  07B1               	addwf	___flmul@grs+3,f
  2224  05EA                     u2003:	
  2225  05EA                     l1551:	
  2226  05EA  0820               	movf	___flmul@b,w
  2227  05EB  00A8               	movwf	??___flmul
  2228  05EC  0828               	movf	??___flmul,w
  2229  05ED  00F0               	movwf	__Umul8_16@multiplicand
  2230  05EE  0825               	movf	___flmul@a+1,w
  2231  05EF  120A  158A  273A  120A  118A  	fcall	__Umul8_16
  2232  05F4  0871               	movf	?__Umul8_16+1,w
  2233  05F5  1283               	bcf	3,5	;RP0=0, select bank0
  2234  05F6  1303               	bcf	3,6	;RP1=0, select bank0
  2235  05F7  00B9               	movwf	___flmul@temp+1
  2236  05F8  0870               	movf	?__Umul8_16,w
  2237  05F9  00B8               	movwf	___flmul@temp
  2238  05FA                     l1553:	
  2239  05FA  0838               	movf	___flmul@temp,w
  2240  05FB  00A8               	movwf	??___flmul
  2241  05FC  0839               	movf	___flmul@temp+1,w
  2242  05FD  00A9               	movwf	??___flmul+1
  2243  05FE  01AA               	clrf	??___flmul+2
  2244  05FF  01AB               	clrf	??___flmul+3
  2245  0600  0828               	movf	??___flmul,w
  2246  0601  07AE               	addwf	___flmul@grs,f
  2247  0602  0829               	movf	??___flmul+1,w
  2248  0603  1103               	clrz
  2249  0604  1803               	skipnc
  2250  0605  3E01               	addlw	1
  2251  0606  1903               	skipnz
  2252  0607  2E09               	goto	u2011
  2253  0608  07AF               	addwf	___flmul@grs+1,f
  2254  0609                     u2011:	
  2255  0609  082A               	movf	??___flmul+2,w
  2256  060A  1103               	clrz
  2257  060B  1803               	skipnc
  2258  060C  3E01               	addlw	1
  2259  060D  1903               	skipnz
  2260  060E  2E10               	goto	u2012
  2261  060F  07B0               	addwf	___flmul@grs+2,f
  2262  0610                     u2012:	
  2263  0610  082B               	movf	??___flmul+3,w
  2264  0611  1103               	clrz
  2265  0612  1803               	skipnc
  2266  0613  3E01               	addlw	1
  2267  0614  1903               	skipnz
  2268  0615  2E17               	goto	u2013
  2269  0616  07B1               	addwf	___flmul@grs+3,f
  2270  0617                     u2013:	
  2271  0617                     l1555:	
  2272  0617  3008               	movlw	8
  2273  0618  00A8               	movwf	??___flmul
  2274  0619                     u2025:	
  2275  0619  1003               	clrc
  2276  061A  0DAE               	rlf	___flmul@grs,f
  2277  061B  0DAF               	rlf	___flmul@grs+1,f
  2278  061C  0DB0               	rlf	___flmul@grs+2,f
  2279  061D  0DB1               	rlf	___flmul@grs+3,f
  2280  061E  0BA8               	decfsz	??___flmul,f
  2281  061F  2E19               	goto	u2025
  2282  0620  0820               	movf	___flmul@b,w
  2283  0621  00A8               	movwf	??___flmul
  2284  0622  0828               	movf	??___flmul,w
  2285  0623  00F0               	movwf	__Umul8_16@multiplicand
  2286  0624  0824               	movf	___flmul@a,w
  2287  0625  120A  158A  273A  120A  118A  	fcall	__Umul8_16
  2288  062A  0871               	movf	?__Umul8_16+1,w
  2289  062B  1283               	bcf	3,5	;RP0=0, select bank0
  2290  062C  1303               	bcf	3,6	;RP1=0, select bank0
  2291  062D  00B9               	movwf	___flmul@temp+1
  2292  062E  0870               	movf	?__Umul8_16,w
  2293  062F  00B8               	movwf	___flmul@temp
  2294  0630                     l1557:	
  2295  0630  0838               	movf	___flmul@temp,w
  2296  0631  00A8               	movwf	??___flmul
  2297  0632  0839               	movf	___flmul@temp+1,w
  2298  0633  00A9               	movwf	??___flmul+1
  2299  0634  01AA               	clrf	??___flmul+2
  2300  0635  01AB               	clrf	??___flmul+3
  2301  0636  0828               	movf	??___flmul,w
  2302  0637  07AE               	addwf	___flmul@grs,f
  2303  0638  0829               	movf	??___flmul+1,w
  2304  0639  1103               	clrz
  2305  063A  1803               	skipnc
  2306  063B  3E01               	addlw	1
  2307  063C  1903               	skipnz
  2308  063D  2E3F               	goto	u2031
  2309  063E  07AF               	addwf	___flmul@grs+1,f
  2310  063F                     u2031:	
  2311  063F  082A               	movf	??___flmul+2,w
  2312  0640  1103               	clrz
  2313  0641  1803               	skipnc
  2314  0642  3E01               	addlw	1
  2315  0643  1903               	skipnz
  2316  0644  2E46               	goto	u2032
  2317  0645  07B0               	addwf	___flmul@grs+2,f
  2318  0646                     u2032:	
  2319  0646  082B               	movf	??___flmul+3,w
  2320  0647  1103               	clrz
  2321  0648  1803               	skipnc
  2322  0649  3E01               	addlw	1
  2323  064A  1903               	skipnz
  2324  064B  2E4D               	goto	u2033
  2325  064C  07B1               	addwf	___flmul@grs+3,f
  2326  064D                     u2033:	
  2327  064D                     l1559:	
  2328  064D  0821               	movf	___flmul@b+1,w
  2329  064E  00A8               	movwf	??___flmul
  2330  064F  0828               	movf	??___flmul,w
  2331  0650  00F0               	movwf	__Umul8_16@multiplicand
  2332  0651  0826               	movf	___flmul@a+2,w
  2333  0652  120A  158A  273A  120A  118A  	fcall	__Umul8_16
  2334  0657  0871               	movf	?__Umul8_16+1,w
  2335  0658  1283               	bcf	3,5	;RP0=0, select bank0
  2336  0659  1303               	bcf	3,6	;RP1=0, select bank0
  2337  065A  00B9               	movwf	___flmul@temp+1
  2338  065B  0870               	movf	?__Umul8_16,w
  2339  065C  00B8               	movwf	___flmul@temp
  2340  065D  0838               	movf	___flmul@temp,w
  2341  065E  00A8               	movwf	??___flmul
  2342  065F  0839               	movf	___flmul@temp+1,w
  2343  0660  00A9               	movwf	??___flmul+1
  2344  0661  01AA               	clrf	??___flmul+2
  2345  0662  01AB               	clrf	??___flmul+3
  2346  0663  0828               	movf	??___flmul,w
  2347  0664  07B4               	addwf	___flmul@prod,f
  2348  0665  0829               	movf	??___flmul+1,w
  2349  0666  1103               	clrz
  2350  0667  1803               	skipnc
  2351  0668  3E01               	addlw	1
  2352  0669  1903               	skipnz
  2353  066A  2E6C               	goto	u2041
  2354  066B  07B5               	addwf	___flmul@prod+1,f
  2355  066C                     u2041:	
  2356  066C  082A               	movf	??___flmul+2,w
  2357  066D  1103               	clrz
  2358  066E  1803               	skipnc
  2359  066F  3E01               	addlw	1
  2360  0670  1903               	skipnz
  2361  0671  2E73               	goto	u2042
  2362  0672  07B6               	addwf	___flmul@prod+2,f
  2363  0673                     u2042:	
  2364  0673  082B               	movf	??___flmul+3,w
  2365  0674  1103               	clrz
  2366  0675  1803               	skipnc
  2367  0676  3E01               	addlw	1
  2368  0677  1903               	skipnz
  2369  0678  2E7A               	goto	u2043
  2370  0679  07B7               	addwf	___flmul@prod+3,f
  2371  067A                     u2043:	
  2372  067A                     l1561:	
  2373  067A  0822               	movf	___flmul@b+2,w
  2374  067B  00A8               	movwf	??___flmul
  2375  067C  0828               	movf	??___flmul,w
  2376  067D  00F0               	movwf	__Umul8_16@multiplicand
  2377  067E  0825               	movf	___flmul@a+1,w
  2378  067F  120A  158A  273A  120A  118A  	fcall	__Umul8_16
  2379  0684  0871               	movf	?__Umul8_16+1,w
  2380  0685  1283               	bcf	3,5	;RP0=0, select bank0
  2381  0686  1303               	bcf	3,6	;RP1=0, select bank0
  2382  0687  00B9               	movwf	___flmul@temp+1
  2383  0688  0870               	movf	?__Umul8_16,w
  2384  0689  00B8               	movwf	___flmul@temp
  2385  068A                     l1563:	
  2386  068A  0838               	movf	___flmul@temp,w
  2387  068B  00A8               	movwf	??___flmul
  2388  068C  0839               	movf	___flmul@temp+1,w
  2389  068D  00A9               	movwf	??___flmul+1
  2390  068E  01AA               	clrf	??___flmul+2
  2391  068F  01AB               	clrf	??___flmul+3
  2392  0690  0828               	movf	??___flmul,w
  2393  0691  07B4               	addwf	___flmul@prod,f
  2394  0692  0829               	movf	??___flmul+1,w
  2395  0693  1103               	clrz
  2396  0694  1803               	skipnc
  2397  0695  3E01               	addlw	1
  2398  0696  1903               	skipnz
  2399  0697  2E99               	goto	u2051
  2400  0698  07B5               	addwf	___flmul@prod+1,f
  2401  0699                     u2051:	
  2402  0699  082A               	movf	??___flmul+2,w
  2403  069A  1103               	clrz
  2404  069B  1803               	skipnc
  2405  069C  3E01               	addlw	1
  2406  069D  1903               	skipnz
  2407  069E  2EA0               	goto	u2052
  2408  069F  07B6               	addwf	___flmul@prod+2,f
  2409  06A0                     u2052:	
  2410  06A0  082B               	movf	??___flmul+3,w
  2411  06A1  1103               	clrz
  2412  06A2  1803               	skipnc
  2413  06A3  3E01               	addlw	1
  2414  06A4  1903               	skipnz
  2415  06A5  2EA7               	goto	u2053
  2416  06A6  07B7               	addwf	___flmul@prod+3,f
  2417  06A7                     u2053:	
  2418  06A7  0822               	movf	___flmul@b+2,w
  2419  06A8  00A8               	movwf	??___flmul
  2420  06A9  0828               	movf	??___flmul,w
  2421  06AA  00F0               	movwf	__Umul8_16@multiplicand
  2422  06AB  0826               	movf	___flmul@a+2,w
  2423  06AC  120A  158A  273A  120A  118A  	fcall	__Umul8_16
  2424  06B1  0871               	movf	?__Umul8_16+1,w
  2425  06B2  1283               	bcf	3,5	;RP0=0, select bank0
  2426  06B3  1303               	bcf	3,6	;RP1=0, select bank0
  2427  06B4  00B9               	movwf	___flmul@temp+1
  2428  06B5  0870               	movf	?__Umul8_16,w
  2429  06B6  00B8               	movwf	___flmul@temp
  2430  06B7                     l1565:	
  2431  06B7  0838               	movf	___flmul@temp,w
  2432  06B8  00A8               	movwf	??___flmul
  2433  06B9  0839               	movf	___flmul@temp+1,w
  2434  06BA  00A9               	movwf	??___flmul+1
  2435  06BB  01AA               	clrf	??___flmul+2
  2436  06BC  01AB               	clrf	??___flmul+3
  2437  06BD  3008               	movlw	8
  2438  06BE                     u2065:	
  2439  06BE  1003               	clrc
  2440  06BF  0DA8               	rlf	??___flmul,f
  2441  06C0  0DA9               	rlf	??___flmul+1,f
  2442  06C1  0DAA               	rlf	??___flmul+2,f
  2443  06C2  0DAB               	rlf	??___flmul+3,f
  2444  06C3                     u2060:	
  2445  06C3  3EFF               	addlw	-1
  2446  06C4  1D03               	skipz
  2447  06C5  2EBE               	goto	u2065
  2448  06C6  0828               	movf	??___flmul,w
  2449  06C7  07B4               	addwf	___flmul@prod,f
  2450  06C8  0829               	movf	??___flmul+1,w
  2451  06C9  1103               	clrz
  2452  06CA  1803               	skipnc
  2453  06CB  3E01               	addlw	1
  2454  06CC  1903               	skipnz
  2455  06CD  2ECF               	goto	u2071
  2456  06CE  07B5               	addwf	___flmul@prod+1,f
  2457  06CF                     u2071:	
  2458  06CF  082A               	movf	??___flmul+2,w
  2459  06D0  1103               	clrz
  2460  06D1  1803               	skipnc
  2461  06D2  3E01               	addlw	1
  2462  06D3  1903               	skipnz
  2463  06D4  2ED6               	goto	u2072
  2464  06D5  07B6               	addwf	___flmul@prod+2,f
  2465  06D6                     u2072:	
  2466  06D6  082B               	movf	??___flmul+3,w
  2467  06D7  1103               	clrz
  2468  06D8  1803               	skipnc
  2469  06D9  3E01               	addlw	1
  2470  06DA  1903               	skipnz
  2471  06DB  2EDD               	goto	u2073
  2472  06DC  07B7               	addwf	___flmul@prod+3,f
  2473  06DD                     u2073:	
  2474  06DD                     l1567:	
  2475  06DD  082E               	movf	___flmul@grs,w
  2476  06DE  00A8               	movwf	??___flmul
  2477  06DF  082F               	movf	___flmul@grs+1,w
  2478  06E0  00A9               	movwf	??___flmul+1
  2479  06E1  0830               	movf	___flmul@grs+2,w
  2480  06E2  00AA               	movwf	??___flmul+2
  2481  06E3  0831               	movf	___flmul@grs+3,w
  2482  06E4  00AB               	movwf	??___flmul+3
  2483  06E5  3018               	movlw	24
  2484  06E6                     u2085:	
  2485  06E6  1003               	clrc
  2486  06E7  0CAB               	rrf	??___flmul+3,f
  2487  06E8  0CAA               	rrf	??___flmul+2,f
  2488  06E9  0CA9               	rrf	??___flmul+1,f
  2489  06EA  0CA8               	rrf	??___flmul,f
  2490  06EB                     u2080:	
  2491  06EB  3EFF               	addlw	-1
  2492  06EC  1D03               	skipz
  2493  06ED  2EE6               	goto	u2085
  2494  06EE  0828               	movf	??___flmul,w
  2495  06EF  07B4               	addwf	___flmul@prod,f
  2496  06F0  0829               	movf	??___flmul+1,w
  2497  06F1  1103               	clrz
  2498  06F2  1803               	skipnc
  2499  06F3  3E01               	addlw	1
  2500  06F4  1903               	skipnz
  2501  06F5  2EF7               	goto	u2091
  2502  06F6  07B5               	addwf	___flmul@prod+1,f
  2503  06F7                     u2091:	
  2504  06F7  082A               	movf	??___flmul+2,w
  2505  06F8  1103               	clrz
  2506  06F9  1803               	skipnc
  2507  06FA  3E01               	addlw	1
  2508  06FB  1903               	skipnz
  2509  06FC  2EFE               	goto	u2092
  2510  06FD  07B6               	addwf	___flmul@prod+2,f
  2511  06FE                     u2092:	
  2512  06FE  082B               	movf	??___flmul+3,w
  2513  06FF  1103               	clrz
  2514  0700  1803               	skipnc
  2515  0701  3E01               	addlw	1
  2516  0702  1903               	skipnz
  2517  0703  2F05               	goto	u2093
  2518  0704  07B7               	addwf	___flmul@prod+3,f
  2519  0705                     u2093:	
  2520  0705                     l1569:	
  2521  0705  3008               	movlw	8
  2522  0706  00A8               	movwf	??___flmul
  2523  0707                     u2105:	
  2524  0707  1003               	clrc
  2525  0708  0DAE               	rlf	___flmul@grs,f
  2526  0709  0DAF               	rlf	___flmul@grs+1,f
  2527  070A  0DB0               	rlf	___flmul@grs+2,f
  2528  070B  0DB1               	rlf	___flmul@grs+3,f
  2529  070C  0BA8               	decfsz	??___flmul,f
  2530  070D  2F07               	goto	u2105
  2531  070E                     l1571:	
  2532  070E  0833               	movf	___flmul@bexp,w
  2533  070F  0732               	addwf	___flmul@aexp,w
  2534  0710  00A8               	movwf	??___flmul
  2535  0711  01A9               	clrf	??___flmul+1
  2536  0712  0DA9               	rlf	??___flmul+1,f
  2537  0713  0828               	movf	??___flmul,w
  2538  0714  3E82               	addlw	130
  2539  0715  00B8               	movwf	___flmul@temp
  2540  0716  0829               	movf	??___flmul+1,w
  2541  0717  1803               	skipnc
  2542  0718  3E01               	addlw	1
  2543  0719  3EFF               	addlw	255
  2544  071A  00B9               	movwf	___flmul@temp+1
  2545  071B  2F39               	goto	l1583
  2546  071C                     l1573:	
  2547  071C  3001               	movlw	1
  2548  071D  00A8               	movwf	??___flmul
  2549  071E                     u2115:	
  2550  071E  1003               	clrc
  2551  071F  0DB4               	rlf	___flmul@prod,f
  2552  0720  0DB5               	rlf	___flmul@prod+1,f
  2553  0721  0DB6               	rlf	___flmul@prod+2,f
  2554  0722  0DB7               	rlf	___flmul@prod+3,f
  2555  0723  0BA8               	decfsz	??___flmul,f
  2556  0724  2F1E               	goto	u2115
  2557  0725                     l1575:	
  2558  0725  1FB1               	btfss	___flmul@grs+3,7
  2559  0726  2F28               	goto	u2121
  2560  0727  2F29               	goto	u2120
  2561  0728                     u2121:	
  2562  0728  2F2A               	goto	l1579
  2563  0729                     u2120:	
  2564  0729                     l1577:	
  2565  0729  1434               	bsf	___flmul@prod,0
  2566  072A                     l1579:	
  2567  072A  3001               	movlw	1
  2568  072B  00A8               	movwf	??___flmul
  2569  072C                     u2135:	
  2570  072C  1003               	clrc
  2571  072D  0DAE               	rlf	___flmul@grs,f
  2572  072E  0DAF               	rlf	___flmul@grs+1,f
  2573  072F  0DB0               	rlf	___flmul@grs+2,f
  2574  0730  0DB1               	rlf	___flmul@grs+3,f
  2575  0731  0BA8               	decfsz	??___flmul,f
  2576  0732  2F2C               	goto	u2135
  2577  0733                     l1581:	
  2578  0733  30FF               	movlw	255
  2579  0734  07B8               	addwf	___flmul@temp,f
  2580  0735  1803               	skipnc
  2581  0736  0AB9               	incf	___flmul@temp+1,f
  2582  0737  30FF               	movlw	255
  2583  0738  07B9               	addwf	___flmul@temp+1,f
  2584  0739                     l1583:	
  2585  0739  1FB6               	btfss	___flmul@prod+2,7
  2586  073A  2F3C               	goto	u2141
  2587  073B  2F3D               	goto	u2140
  2588  073C                     u2141:	
  2589  073C  2F1C               	goto	l1573
  2590  073D                     u2140:	
  2591  073D                     l1585:	
  2592  073D  01B2               	clrf	___flmul@aexp
  2593  073E                     l1587:	
  2594  073E  1FB1               	btfss	___flmul@grs+3,7
  2595  073F  2F41               	goto	u2151
  2596  0740  2F42               	goto	u2150
  2597  0741                     u2151:	
  2598  0741  2F5E               	goto	l1595
  2599  0742                     u2150:	
  2600  0742                     l1589:	
  2601  0742  30FF               	movlw	255
  2602  0743  052E               	andwf	___flmul@grs,w
  2603  0744  00A8               	movwf	??___flmul
  2604  0745  30FF               	movlw	255
  2605  0746  052F               	andwf	___flmul@grs+1,w
  2606  0747  00A9               	movwf	??___flmul+1
  2607  0748  30FF               	movlw	255
  2608  0749  0530               	andwf	___flmul@grs+2,w
  2609  074A  00AA               	movwf	??___flmul+2
  2610  074B  307F               	movlw	127
  2611  074C  0531               	andwf	___flmul@grs+3,w
  2612  074D  00AB               	movwf	??___flmul+3
  2613  074E  082B               	movf	??___flmul+3,w
  2614  074F  042A               	iorwf	??___flmul+2,w
  2615  0750  0429               	iorwf	??___flmul+1,w
  2616  0751  0428               	iorwf	??___flmul,w
  2617  0752  1903               	skipnz
  2618  0753  2F55               	goto	u2161
  2619  0754  2F56               	goto	u2160
  2620  0755                     u2161:	
  2621  0755  2F59               	goto	l548
  2622  0756                     u2160:	
  2623  0756                     l1591:	
  2624  0756  01B2               	clrf	___flmul@aexp
  2625  0757  0AB2               	incf	___flmul@aexp,f
  2626  0758  2F5E               	goto	l1595
  2627  0759                     l548:	
  2628  0759  1C34               	btfss	___flmul@prod,0
  2629  075A  2F5C               	goto	u2171
  2630  075B  2F5D               	goto	u2170
  2631  075C                     u2171:	
  2632  075C  2F5E               	goto	l1595
  2633  075D                     u2170:	
  2634  075D  2F56               	goto	l1591
  2635  075E                     l1595:	
  2636  075E  0832               	movf	___flmul@aexp,w
  2637  075F  1903               	btfsc	3,2
  2638  0760  2F62               	goto	u2181
  2639  0761  2F63               	goto	u2180
  2640  0762                     u2181:	
  2641  0762  2F94               	goto	l1605
  2642  0763                     u2180:	
  2643  0763                     l1597:	
  2644  0763  3001               	movlw	1
  2645  0764  07B4               	addwf	___flmul@prod,f
  2646  0765  3000               	movlw	0
  2647  0766  1803               	skipnc
  2648  0767  3001               	movlw	1
  2649  0768  07B5               	addwf	___flmul@prod+1,f
  2650  0769  3000               	movlw	0
  2651  076A  1803               	skipnc
  2652  076B  3001               	movlw	1
  2653  076C  07B6               	addwf	___flmul@prod+2,f
  2654  076D  3000               	movlw	0
  2655  076E  1803               	skipnc
  2656  076F  3001               	movlw	1
  2657  0770  07B7               	addwf	___flmul@prod+3,f
  2658  0771                     l1599:	
  2659  0771  1C37               	btfss	___flmul@prod+3,0
  2660  0772  2F74               	goto	u2191
  2661  0773  2F75               	goto	u2190
  2662  0774                     u2191:	
  2663  0774  2F94               	goto	l1605
  2664  0775                     u2190:	
  2665  0775                     l1601:	
  2666  0775  0834               	movf	___flmul@prod,w
  2667  0776  00A8               	movwf	??___flmul
  2668  0777  0835               	movf	___flmul@prod+1,w
  2669  0778  00A9               	movwf	??___flmul+1
  2670  0779  0836               	movf	___flmul@prod+2,w
  2671  077A  00AA               	movwf	??___flmul+2
  2672  077B  0837               	movf	___flmul@prod+3,w
  2673  077C  00AB               	movwf	??___flmul+3
  2674  077D  3001               	movlw	1
  2675  077E  00AC               	movwf	??___flmul+4
  2676  077F                     u2205:	
  2677  077F  0D2B               	rlf	??___flmul+3,w
  2678  0780  0CAB               	rrf	??___flmul+3,f
  2679  0781  0CAA               	rrf	??___flmul+2,f
  2680  0782  0CA9               	rrf	??___flmul+1,f
  2681  0783  0CA8               	rrf	??___flmul,f
  2682  0784                     u2200:	
  2683  0784  0BAC               	decfsz	??___flmul+4,f
  2684  0785  2F7F               	goto	u2205
  2685  0786  082B               	movf	??___flmul+3,w
  2686  0787  00B7               	movwf	___flmul@prod+3
  2687  0788  082A               	movf	??___flmul+2,w
  2688  0789  00B6               	movwf	___flmul@prod+2
  2689  078A  0829               	movf	??___flmul+1,w
  2690  078B  00B5               	movwf	___flmul@prod+1
  2691  078C  0828               	movf	??___flmul,w
  2692  078D  00B4               	movwf	___flmul@prod
  2693  078E                     l1603:	
  2694  078E  3001               	movlw	1
  2695  078F  07B8               	addwf	___flmul@temp,f
  2696  0790  1803               	skipnc
  2697  0791  0AB9               	incf	___flmul@temp+1,f
  2698  0792  3000               	movlw	0
  2699  0793  07B9               	addwf	___flmul@temp+1,f
  2700  0794                     l1605:	
  2701  0794  0839               	movf	___flmul@temp+1,w
  2702  0795  3A80               	xorlw	128
  2703  0796  00FF               	movwf	btemp+1
  2704  0797  3080               	movlw	128
  2705  0798  027F               	subwf	btemp+1,w
  2706  0799  1D03               	skipz
  2707  079A  2F9D               	goto	u2215
  2708  079B  30FF               	movlw	255
  2709  079C  0238               	subwf	___flmul@temp,w
  2710  079D                     u2215:	
  2711  079D  1C03               	skipc
  2712  079E  2FA0               	goto	u2211
  2713  079F  2FA1               	goto	u2210
  2714  07A0                     u2211:	
  2715  07A0  2FAC               	goto	l1609
  2716  07A1                     u2210:	
  2717  07A1                     l1607:	
  2718  07A1  307F               	movlw	127
  2719  07A2  1283               	bcf	3,5	;RP0=0, select bank0
  2720  07A3  1303               	bcf	3,6	;RP1=0, select bank0
  2721  07A4  00B7               	movwf	___flmul@prod+3
  2722  07A5  3080               	movlw	128
  2723  07A6  00B6               	movwf	___flmul@prod+2
  2724  07A7  3000               	movlw	0
  2725  07A8  00B5               	movwf	___flmul@prod+1
  2726  07A9  3000               	movlw	0
  2727  07AA  00B4               	movwf	___flmul@prod
  2728  07AB  2FE1               	goto	l554
  2729  07AC                     l1609:	
  2730  07AC  1283               	bcf	3,5	;RP0=0, select bank0
  2731  07AD  1303               	bcf	3,6	;RP1=0, select bank0
  2732  07AE  0839               	movf	___flmul@temp+1,w
  2733  07AF  3A80               	xorlw	128
  2734  07B0  00FF               	movwf	btemp+1
  2735  07B1  3080               	movlw	128
  2736  07B2  027F               	subwf	btemp+1,w
  2737  07B3  1D03               	skipz
  2738  07B4  2FB7               	goto	u2225
  2739  07B5  3001               	movlw	1
  2740  07B6  0238               	subwf	___flmul@temp,w
  2741  07B7                     u2225:	
  2742  07B7  1803               	skipnc
  2743  07B8  2FBA               	goto	u2221
  2744  07B9  2FBB               	goto	u2220
  2745  07BA                     u2221:	
  2746  07BA  2FC7               	goto	l1615
  2747  07BB                     u2220:	
  2748  07BB                     l1611:	
  2749  07BB  3000               	movlw	0
  2750  07BC  1283               	bcf	3,5	;RP0=0, select bank0
  2751  07BD  1303               	bcf	3,6	;RP1=0, select bank0
  2752  07BE  00B7               	movwf	___flmul@prod+3
  2753  07BF  3000               	movlw	0
  2754  07C0  00B6               	movwf	___flmul@prod+2
  2755  07C1  3000               	movlw	0
  2756  07C2  00B5               	movwf	___flmul@prod+1
  2757  07C3  3000               	movlw	0
  2758  07C4  00B4               	movwf	___flmul@prod
  2759  07C5                     l1613:	
  2760  07C5  01AD               	clrf	___flmul@sign
  2761  07C6  2FE1               	goto	l554
  2762  07C7                     l1615:	
  2763  07C7  1283               	bcf	3,5	;RP0=0, select bank0
  2764  07C8  1303               	bcf	3,6	;RP1=0, select bank0
  2765  07C9  0838               	movf	___flmul@temp,w
  2766  07CA  00A8               	movwf	??___flmul
  2767  07CB  0828               	movf	??___flmul,w
  2768  07CC  00B3               	movwf	___flmul@bexp
  2769  07CD  30FF               	movlw	255
  2770  07CE  05B4               	andwf	___flmul@prod,f
  2771  07CF  30FF               	movlw	255
  2772  07D0  05B5               	andwf	___flmul@prod+1,f
  2773  07D1  307F               	movlw	127
  2774  07D2  05B6               	andwf	___flmul@prod+2,f
  2775  07D3  3000               	movlw	0
  2776  07D4  05B7               	andwf	___flmul@prod+3,f
  2777  07D5                     l1617:	
  2778  07D5  1C33               	btfss	___flmul@bexp,0
  2779  07D6  2FD8               	goto	u2231
  2780  07D7  2FD9               	goto	u2230
  2781  07D8                     u2231:	
  2782  07D8  2FDA               	goto	l1621
  2783  07D9                     u2230:	
  2784  07D9                     l1619:	
  2785  07D9  17B6               	bsf	___flmul@prod+2,7
  2786  07DA                     l1621:	
  2787  07DA  0833               	movf	___flmul@bexp,w
  2788  07DB  00A8               	movwf	??___flmul
  2789  07DC  1003               	clrc
  2790  07DD  0C28               	rrf	??___flmul,w
  2791  07DE  00A9               	movwf	??___flmul+1
  2792  07DF  0829               	movf	??___flmul+1,w
  2793  07E0  00B7               	movwf	___flmul@prod+3
  2794  07E1                     l554:	
  2795  07E1  082D               	movf	___flmul@sign,w
  2796  07E2  00A8               	movwf	??___flmul
  2797  07E3  0828               	movf	??___flmul,w
  2798  07E4  04B7               	iorwf	___flmul@prod+3,f
  2799  07E5                     l1623:	
  2800  07E5  0837               	movf	___flmul@prod+3,w
  2801  07E6  00A3               	movwf	?___flmul+3
  2802  07E7  0836               	movf	___flmul@prod+2,w
  2803  07E8  00A2               	movwf	?___flmul+2
  2804  07E9  0835               	movf	___flmul@prod+1,w
  2805  07EA  00A1               	movwf	?___flmul+1
  2806  07EB  0834               	movf	___flmul@prod,w
  2807  07EC  00A0               	movwf	?___flmul
  2808  07ED                     l542:	
  2809  07ED  0008               	return
  2810  07EE                     __end_of___flmul:	
  2811                           
  2812                           	psect	text9
  2813  0F3A                     __ptext9:	
  2814 ;; *************** function __Umul8_16 *****************
  2815 ;; Defined at:
  2816 ;;		line 4 in file "/opt/microchip/xc8/v2.10/pic/sources/c90/common/Umul8_16.c"
  2817 ;; Parameters:    Size  Location     Type
  2818 ;;  multiplier      1    wreg     unsigned char 
  2819 ;;  multiplicand    1    0[COMMON] unsigned char 
  2820 ;; Auto vars:     Size  Location     Type
  2821 ;;  multiplier      1    8[COMMON] unsigned char 
  2822 ;;  word_mpld       2    6[COMMON] unsigned int 
  2823 ;;  product         2    4[COMMON] unsigned int 
  2824 ;; Return value:  Size  Location     Type
  2825 ;;                  2    0[COMMON] unsigned int 
  2826 ;; Registers used:
  2827 ;;		wreg, status,2, status,0
  2828 ;; Tracked objects:
  2829 ;;		On entry : 0/0
  2830 ;;		On exit  : 0/0
  2831 ;;		Unchanged: 0/0
  2832 ;; Data sizes:     COMMON   BANK0   BANK1   BANK3   BANK2
  2833 ;;      Params:         2       0       0       0       0
  2834 ;;      Locals:         5       0       0       0       0
  2835 ;;      Temps:          2       0       0       0       0
  2836 ;;      Totals:         9       0       0       0       0
  2837 ;;Total ram usage:        9 bytes
  2838 ;; Hardware stack levels used:    1
  2839 ;; This function calls:
  2840 ;;		Nothing
  2841 ;; This function is called by:
  2842 ;;		___flmul
  2843 ;; This function uses a non-reentrant model
  2844 ;;
  2845                           
  2846                           
  2847                           ;psect for function __Umul8_16
  2848  0F3A                     __Umul8_16:	
  2849                           
  2850                           ;incstack = 0
  2851                           ; Regs used in __Umul8_16: [wreg+status,2+status,0]
  2852                           ;__Umul8_16@multiplier stored from wreg
  2853  0F3A  00F8               	movwf	__Umul8_16@multiplier
  2854  0F3B                     l1183:	
  2855  0F3B  01F4               	clrf	__Umul8_16@product
  2856  0F3C  01F5               	clrf	__Umul8_16@product+1
  2857  0F3D                     l1185:	
  2858  0F3D  0870               	movf	__Umul8_16@multiplicand,w
  2859  0F3E  00F2               	movwf	??__Umul8_16
  2860  0F3F  01F3               	clrf	??__Umul8_16+1
  2861  0F40  0872               	movf	??__Umul8_16,w
  2862  0F41  00F6               	movwf	__Umul8_16@word_mpld
  2863  0F42  0873               	movf	??__Umul8_16+1,w
  2864  0F43  00F7               	movwf	__Umul8_16@word_mpld+1
  2865  0F44                     l1187:	
  2866  0F44  1C78               	btfss	__Umul8_16@multiplier,0
  2867  0F45  2F47               	goto	u1201
  2868  0F46  2F48               	goto	u1200
  2869  0F47                     u1201:	
  2870  0F47  2F4E               	goto	l599
  2871  0F48                     u1200:	
  2872  0F48                     l1189:	
  2873  0F48  0876               	movf	__Umul8_16@word_mpld,w
  2874  0F49  07F4               	addwf	__Umul8_16@product,f
  2875  0F4A  1803               	skipnc
  2876  0F4B  0AF5               	incf	__Umul8_16@product+1,f
  2877  0F4C  0877               	movf	__Umul8_16@word_mpld+1,w
  2878  0F4D  07F5               	addwf	__Umul8_16@product+1,f
  2879  0F4E                     l599:	
  2880  0F4E  3001               	movlw	1
  2881  0F4F                     u1215:	
  2882  0F4F  1003               	clrc
  2883  0F50  0DF6               	rlf	__Umul8_16@word_mpld,f
  2884  0F51  0DF7               	rlf	__Umul8_16@word_mpld+1,f
  2885  0F52  3EFF               	addlw	-1
  2886  0F53  1D03               	skipz
  2887  0F54  2F4F               	goto	u1215
  2888  0F55  1003               	clrc
  2889  0F56  0CF8               	rrf	__Umul8_16@multiplier,f
  2890  0F57                     l1191:	
  2891  0F57  0878               	movf	__Umul8_16@multiplier,w
  2892  0F58  1D03               	btfss	3,2
  2893  0F59  2F5B               	goto	u1221
  2894  0F5A  2F5C               	goto	u1220
  2895  0F5B                     u1221:	
  2896  0F5B  2F44               	goto	l1187
  2897  0F5C                     u1220:	
  2898  0F5C                     l1193:	
  2899  0F5C  0875               	movf	__Umul8_16@product+1,w
  2900  0F5D  00F1               	movwf	?__Umul8_16+1
  2901  0F5E  0874               	movf	__Umul8_16@product,w
  2902  0F5F  00F0               	movwf	?__Umul8_16
  2903  0F60                     l601:	
  2904  0F60  0008               	return
  2905  0F61                     __end_of__Umul8_16:	
  2906                           
  2907                           	psect	text10
  2908  02AA                     __ptext10:	
  2909 ;; *************** function ___fldiv *****************
  2910 ;; Defined at:
  2911 ;;		line 8 in file "/opt/microchip/xc8/v2.10/pic/sources/c90/common/sprcdiv.c"
  2912 ;; Parameters:    Size  Location     Type
  2913 ;;  a               4    0[COMMON] unsigned int 
  2914 ;;  b               4    4[COMMON] unsigned int 
  2915 ;; Auto vars:     Size  Location     Type
  2916 ;;  grs             4    7[BANK0 ] unsigned long 
  2917 ;;  rem             4    0[BANK0 ] unsigned long 
  2918 ;;  new_exp         2    5[BANK0 ] int 
  2919 ;;  aexp            1   12[BANK0 ] unsigned char 
  2920 ;;  bexp            1   11[BANK0 ] unsigned char 
  2921 ;;  sign            1    4[BANK0 ] unsigned char 
  2922 ;; Return value:  Size  Location     Type
  2923 ;;                  4    0[COMMON] unsigned char 
  2924 ;; Registers used:
  2925 ;;		wreg, status,2, status,0, btemp+1
  2926 ;; Tracked objects:
  2927 ;;		On entry : 0/0
  2928 ;;		On exit  : 0/0
  2929 ;;		Unchanged: 0/0
  2930 ;; Data sizes:     COMMON   BANK0   BANK1   BANK3   BANK2
  2931 ;;      Params:         8       0       0       0       0
  2932 ;;      Locals:         0      13       0       0       0
  2933 ;;      Temps:          5       0       0       0       0
  2934 ;;      Totals:        13      13       0       0       0
  2935 ;;Total ram usage:       26 bytes
  2936 ;; Hardware stack levels used:    1
  2937 ;; This function calls:
  2938 ;;		Nothing
  2939 ;; This function is called by:
  2940 ;;		_main
  2941 ;; This function uses a non-reentrant model
  2942 ;;
  2943                           
  2944                           
  2945                           ;psect for function ___fldiv
  2946  02AA                     ___fldiv:	
  2947  02AA                     l1345:	
  2948                           ;incstack = 0
  2949                           ; Regs used in ___fldiv: [wreg+status,2+status,0+btemp+1]
  2950                           
  2951  02AA  0877               	movf	___fldiv@b+3,w
  2952  02AB  3980               	andlw	128
  2953  02AC  00F8               	movwf	??___fldiv
  2954  02AD  0878               	movf	??___fldiv,w
  2955  02AE  1283               	bcf	3,5	;RP0=0, select bank0
  2956  02AF  1303               	bcf	3,6	;RP1=0, select bank0
  2957  02B0  00A4               	movwf	___fldiv@sign
  2958  02B1                     l1347:	
  2959  02B1  0877               	movf	___fldiv@b+3,w
  2960  02B2  00F8               	movwf	??___fldiv
  2961  02B3  0778               	addwf	??___fldiv,w
  2962  02B4  00F9               	movwf	??___fldiv+1
  2963  02B5  0879               	movf	??___fldiv+1,w
  2964  02B6  00AB               	movwf	___fldiv@bexp
  2965  02B7                     l1349:	
  2966  02B7  1FF6               	btfss	___fldiv@b+2,7
  2967  02B8  2ABA               	goto	u1571
  2968  02B9  2ABB               	goto	u1570
  2969  02BA                     u1571:	
  2970  02BA  2ABC               	goto	l1353
  2971  02BB                     u1570:	
  2972  02BB                     l1351:	
  2973  02BB  142B               	bsf	___fldiv@bexp,0
  2974  02BC                     l1353:	
  2975  02BC  082B               	movf	___fldiv@bexp,w
  2976  02BD  1903               	btfsc	3,2
  2977  02BE  2AC0               	goto	u1581
  2978  02BF  2AC1               	goto	u1580
  2979  02C0                     u1581:	
  2980  02C0  2AD1               	goto	l1363
  2981  02C1                     u1580:	
  2982  02C1                     l1355:	
  2983  02C1  0A2B               	incf	___fldiv@bexp,w
  2984  02C2  1D03               	btfss	3,2
  2985  02C3  2AC5               	goto	u1591
  2986  02C4  2AC6               	goto	u1590
  2987  02C5                     u1591:	
  2988  02C5  2ACE               	goto	l1359
  2989  02C6                     u1590:	
  2990  02C6                     l1357:	
  2991  02C6  3000               	movlw	0
  2992  02C7  00F7               	movwf	___fldiv@b+3
  2993  02C8  3000               	movlw	0
  2994  02C9  00F6               	movwf	___fldiv@b+2
  2995  02CA  3000               	movlw	0
  2996  02CB  00F5               	movwf	___fldiv@b+1
  2997  02CC  3000               	movlw	0
  2998  02CD  00F4               	movwf	___fldiv@b
  2999  02CE                     l1359:	
  3000  02CE  17F6               	bsf	___fldiv@b+2,7
  3001  02CF                     l1361:	
  3002  02CF  01F7               	clrf	___fldiv@b+3
  3003  02D0  2AD9               	goto	l1365
  3004  02D1                     l1363:	
  3005  02D1  3000               	movlw	0
  3006  02D2  00F7               	movwf	___fldiv@b+3
  3007  02D3  3000               	movlw	0
  3008  02D4  00F6               	movwf	___fldiv@b+2
  3009  02D5  3000               	movlw	0
  3010  02D6  00F5               	movwf	___fldiv@b+1
  3011  02D7  3000               	movlw	0
  3012  02D8  00F4               	movwf	___fldiv@b
  3013  02D9                     l1365:	
  3014  02D9  0873               	movf	___fldiv@a+3,w
  3015  02DA  3980               	andlw	128
  3016  02DB  00F8               	movwf	??___fldiv
  3017  02DC  0878               	movf	??___fldiv,w
  3018  02DD  06A4               	xorwf	___fldiv@sign,f
  3019  02DE                     l1367:	
  3020  02DE  0873               	movf	___fldiv@a+3,w
  3021  02DF  00F8               	movwf	??___fldiv
  3022  02E0  0778               	addwf	??___fldiv,w
  3023  02E1  00F9               	movwf	??___fldiv+1
  3024  02E2  0879               	movf	??___fldiv+1,w
  3025  02E3  00AC               	movwf	___fldiv@aexp
  3026  02E4                     l1369:	
  3027  02E4  1FF2               	btfss	___fldiv@a+2,7
  3028  02E5  2AE7               	goto	u1601
  3029  02E6  2AE8               	goto	u1600
  3030  02E7                     u1601:	
  3031  02E7  2AE9               	goto	l1373
  3032  02E8                     u1600:	
  3033  02E8                     l1371:	
  3034  02E8  142C               	bsf	___fldiv@aexp,0
  3035  02E9                     l1373:	
  3036  02E9  082C               	movf	___fldiv@aexp,w
  3037  02EA  1903               	btfsc	3,2
  3038  02EB  2AED               	goto	u1611
  3039  02EC  2AEE               	goto	u1610
  3040  02ED                     u1611:	
  3041  02ED  2AFE               	goto	l1383
  3042  02EE                     u1610:	
  3043  02EE                     l1375:	
  3044  02EE  0A2C               	incf	___fldiv@aexp,w
  3045  02EF  1D03               	btfss	3,2
  3046  02F0  2AF2               	goto	u1621
  3047  02F1  2AF3               	goto	u1620
  3048  02F2                     u1621:	
  3049  02F2  2AFB               	goto	l1379
  3050  02F3                     u1620:	
  3051  02F3                     l1377:	
  3052  02F3  3000               	movlw	0
  3053  02F4  00F3               	movwf	___fldiv@a+3
  3054  02F5  3000               	movlw	0
  3055  02F6  00F2               	movwf	___fldiv@a+2
  3056  02F7  3000               	movlw	0
  3057  02F8  00F1               	movwf	___fldiv@a+1
  3058  02F9  3000               	movlw	0
  3059  02FA  00F0               	movwf	___fldiv@a
  3060  02FB                     l1379:	
  3061  02FB  17F2               	bsf	___fldiv@a+2,7
  3062  02FC                     l1381:	
  3063  02FC  01F3               	clrf	___fldiv@a+3
  3064  02FD  2B06               	goto	l502
  3065  02FE                     l1383:	
  3066  02FE  3000               	movlw	0
  3067  02FF  00F3               	movwf	___fldiv@a+3
  3068  0300  3000               	movlw	0
  3069  0301  00F2               	movwf	___fldiv@a+2
  3070  0302  3000               	movlw	0
  3071  0303  00F1               	movwf	___fldiv@a+1
  3072  0304  3000               	movlw	0
  3073  0305  00F0               	movwf	___fldiv@a
  3074  0306                     l502:	
  3075  0306  0873               	movf	___fldiv@a+3,w
  3076  0307  0472               	iorwf	___fldiv@a+2,w
  3077  0308  0471               	iorwf	___fldiv@a+1,w
  3078  0309  0470               	iorwf	___fldiv@a,w
  3079  030A  1D03               	skipz
  3080  030B  2B0D               	goto	u1631
  3081  030C  2B0E               	goto	u1630
  3082  030D                     u1631:	
  3083  030D  2B27               	goto	l1393
  3084  030E                     u1630:	
  3085  030E                     l1385:	
  3086  030E  3000               	movlw	0
  3087  030F  00F7               	movwf	___fldiv@b+3
  3088  0310  3000               	movlw	0
  3089  0311  00F6               	movwf	___fldiv@b+2
  3090  0312  3000               	movlw	0
  3091  0313  00F5               	movwf	___fldiv@b+1
  3092  0314  3000               	movlw	0
  3093  0315  00F4               	movwf	___fldiv@b
  3094  0316  3080               	movlw	128
  3095  0317  04F6               	iorwf	___fldiv@b+2,f
  3096  0318  307F               	movlw	127
  3097  0319  04F7               	iorwf	___fldiv@b+3,f
  3098  031A                     l1387:	
  3099  031A  0824               	movf	___fldiv@sign,w
  3100  031B  00F8               	movwf	??___fldiv
  3101  031C  0878               	movf	??___fldiv,w
  3102  031D  04F7               	iorwf	___fldiv@b+3,f
  3103  031E                     l1389:	
  3104  031E  0877               	movf	___fldiv@b+3,w
  3105  031F  00F3               	movwf	?___fldiv+3
  3106  0320  0876               	movf	___fldiv@b+2,w
  3107  0321  00F2               	movwf	?___fldiv+2
  3108  0322  0875               	movf	___fldiv@b+1,w
  3109  0323  00F1               	movwf	?___fldiv+1
  3110  0324  0874               	movf	___fldiv@b,w
  3111  0325  00F0               	movwf	?___fldiv
  3112  0326  2C8C               	goto	l504
  3113  0327                     l1393:	
  3114  0327  082B               	movf	___fldiv@bexp,w
  3115  0328  1D03               	btfss	3,2
  3116  0329  2B2B               	goto	u1641
  3117  032A  2B2C               	goto	u1640
  3118  032B                     u1641:	
  3119  032B  2B35               	goto	l1399
  3120  032C                     u1640:	
  3121  032C                     l1395:	
  3122  032C  3000               	movlw	0
  3123  032D  00F3               	movwf	?___fldiv+3
  3124  032E  3000               	movlw	0
  3125  032F  00F2               	movwf	?___fldiv+2
  3126  0330  3000               	movlw	0
  3127  0331  00F1               	movwf	?___fldiv+1
  3128  0332  3000               	movlw	0
  3129  0333  00F0               	movwf	?___fldiv
  3130  0334  2C8C               	goto	l504
  3131  0335                     l1399:	
  3132  0335  082B               	movf	___fldiv@bexp,w
  3133  0336  00F8               	movwf	??___fldiv
  3134  0337  01F9               	clrf	??___fldiv+1
  3135  0338  0879               	movf	??___fldiv+1,w
  3136  0339  00FB               	movwf	??___fldiv+3
  3137  033A  082C               	movf	___fldiv@aexp,w
  3138  033B  0278               	subwf	??___fldiv,w
  3139  033C  00FA               	movwf	??___fldiv+2
  3140  033D  1C03               	skipc
  3141  033E  03FB               	decf	??___fldiv+3,f
  3142  033F  087A               	movf	??___fldiv+2,w
  3143  0340  3E7F               	addlw	127
  3144  0341  00A5               	movwf	___fldiv@new_exp
  3145  0342  087B               	movf	??___fldiv+3,w
  3146  0343  1803               	skipnc
  3147  0344  3E01               	addlw	1
  3148  0345  3E00               	addlw	0
  3149  0346  00A6               	movwf	___fldiv@new_exp+1
  3150  0347                     l1401:	
  3151  0347  0877               	movf	___fldiv@b+3,w
  3152  0348  00A3               	movwf	___fldiv@rem+3
  3153  0349  0876               	movf	___fldiv@b+2,w
  3154  034A  00A2               	movwf	___fldiv@rem+2
  3155  034B  0875               	movf	___fldiv@b+1,w
  3156  034C  00A1               	movwf	___fldiv@rem+1
  3157  034D  0874               	movf	___fldiv@b,w
  3158  034E  00A0               	movwf	___fldiv@rem
  3159  034F                     l1403:	
  3160  034F  3000               	movlw	0
  3161  0350  00F7               	movwf	___fldiv@b+3
  3162  0351  3000               	movlw	0
  3163  0352  00F6               	movwf	___fldiv@b+2
  3164  0353  3000               	movlw	0
  3165  0354  00F5               	movwf	___fldiv@b+1
  3166  0355  3000               	movlw	0
  3167  0356  00F4               	movwf	___fldiv@b
  3168  0357                     l1405:	
  3169  0357  3000               	movlw	0
  3170  0358  00AA               	movwf	___fldiv@grs+3
  3171  0359  3000               	movlw	0
  3172  035A  00A9               	movwf	___fldiv@grs+2
  3173  035B  3000               	movlw	0
  3174  035C  00A8               	movwf	___fldiv@grs+1
  3175  035D  3000               	movlw	0
  3176  035E  00A7               	movwf	___fldiv@grs
  3177  035F                     l1407:	
  3178  035F  01AC               	clrf	___fldiv@aexp
  3179  0360  2BB1               	goto	l1427
  3180  0361                     l1409:	
  3181  0361  082C               	movf	___fldiv@aexp,w
  3182  0362  1903               	btfsc	3,2
  3183  0363  2B65               	goto	u1651
  3184  0364  2B66               	goto	u1650
  3185  0365                     u1651:	
  3186  0365  2B86               	goto	l1419
  3187  0366                     u1650:	
  3188  0366                     l1411:	
  3189  0366  3001               	movlw	1
  3190  0367  00F8               	movwf	??___fldiv
  3191  0368                     u1665:	
  3192  0368  1003               	clrc
  3193  0369  0DA0               	rlf	___fldiv@rem,f
  3194  036A  0DA1               	rlf	___fldiv@rem+1,f
  3195  036B  0DA2               	rlf	___fldiv@rem+2,f
  3196  036C  0DA3               	rlf	___fldiv@rem+3,f
  3197  036D  0BF8               	decfsz	??___fldiv,f
  3198  036E  2B68               	goto	u1665
  3199  036F  3001               	movlw	1
  3200  0370  00F8               	movwf	??___fldiv
  3201  0371                     u1675:	
  3202  0371  1003               	clrc
  3203  0372  0DF4               	rlf	___fldiv@b,f
  3204  0373  0DF5               	rlf	___fldiv@b+1,f
  3205  0374  0DF6               	rlf	___fldiv@b+2,f
  3206  0375  0DF7               	rlf	___fldiv@b+3,f
  3207  0376  0BF8               	decfsz	??___fldiv,f
  3208  0377  2B71               	goto	u1675
  3209  0378                     l1413:	
  3210  0378  1FAA               	btfss	___fldiv@grs+3,7
  3211  0379  2B7B               	goto	u1681
  3212  037A  2B7C               	goto	u1680
  3213  037B                     u1681:	
  3214  037B  2B7D               	goto	l1417
  3215  037C                     u1680:	
  3216  037C                     l1415:	
  3217  037C  1474               	bsf	___fldiv@b,0
  3218  037D                     l1417:	
  3219  037D  3001               	movlw	1
  3220  037E  00F8               	movwf	??___fldiv
  3221  037F                     u1695:	
  3222  037F  1003               	clrc
  3223  0380  0DA7               	rlf	___fldiv@grs,f
  3224  0381  0DA8               	rlf	___fldiv@grs+1,f
  3225  0382  0DA9               	rlf	___fldiv@grs+2,f
  3226  0383  0DAA               	rlf	___fldiv@grs+3,f
  3227  0384  0BF8               	decfsz	??___fldiv,f
  3228  0385  2B7F               	goto	u1695
  3229  0386                     l1419:	
  3230  0386  0873               	movf	___fldiv@a+3,w
  3231  0387  0223               	subwf	___fldiv@rem+3,w
  3232  0388  1D03               	skipz
  3233  0389  2B94               	goto	u1705
  3234  038A  0872               	movf	___fldiv@a+2,w
  3235  038B  0222               	subwf	___fldiv@rem+2,w
  3236  038C  1D03               	skipz
  3237  038D  2B94               	goto	u1705
  3238  038E  0871               	movf	___fldiv@a+1,w
  3239  038F  0221               	subwf	___fldiv@rem+1,w
  3240  0390  1D03               	skipz
  3241  0391  2B94               	goto	u1705
  3242  0392  0870               	movf	___fldiv@a,w
  3243  0393  0220               	subwf	___fldiv@rem,w
  3244  0394                     u1705:	
  3245  0394  1C03               	skipc
  3246  0395  2B97               	goto	u1701
  3247  0396  2B98               	goto	u1700
  3248  0397                     u1701:	
  3249  0397  2BAD               	goto	l1425
  3250  0398                     u1700:	
  3251  0398                     l1421:	
  3252  0398  172A               	bsf	___fldiv@grs+3,6
  3253  0399                     l1423:	
  3254  0399  0870               	movf	___fldiv@a,w
  3255  039A  02A0               	subwf	___fldiv@rem,f
  3256  039B  0871               	movf	___fldiv@a+1,w
  3257  039C  1C03               	skipc
  3258  039D  0F71               	incfsz	___fldiv@a+1,w
  3259  039E  2BA0               	goto	u1715
  3260  039F  2BA1               	goto	u1716
  3261  03A0                     u1715:	
  3262  03A0  02A1               	subwf	___fldiv@rem+1,f
  3263  03A1                     u1716:	
  3264  03A1  0872               	movf	___fldiv@a+2,w
  3265  03A2  1C03               	skipc
  3266  03A3  0F72               	incfsz	___fldiv@a+2,w
  3267  03A4  2BA6               	goto	u1717
  3268  03A5  2BA7               	goto	u1718
  3269  03A6                     u1717:	
  3270  03A6  02A2               	subwf	___fldiv@rem+2,f
  3271  03A7                     u1718:	
  3272  03A7  0873               	movf	___fldiv@a+3,w
  3273  03A8  1C03               	skipc
  3274  03A9  0F73               	incfsz	___fldiv@a+3,w
  3275  03AA  2BAC               	goto	u1719
  3276  03AB  2BAD               	goto	u1710
  3277  03AC                     u1719:	
  3278  03AC  02A3               	subwf	___fldiv@rem+3,f
  3279  03AD                     u1710:	
  3280  03AD                     l1425:	
  3281  03AD  3001               	movlw	1
  3282  03AE  00F8               	movwf	??___fldiv
  3283  03AF  0878               	movf	??___fldiv,w
  3284  03B0  07AC               	addwf	___fldiv@aexp,f
  3285  03B1                     l1427:	
  3286  03B1  301A               	movlw	26
  3287  03B2  022C               	subwf	___fldiv@aexp,w
  3288  03B3  1C03               	skipc
  3289  03B4  2BB6               	goto	u1721
  3290  03B5  2BB7               	goto	u1720
  3291  03B6                     u1721:	
  3292  03B6  2B61               	goto	l1409
  3293  03B7                     u1720:	
  3294  03B7                     l1429:	
  3295  03B7  0823               	movf	___fldiv@rem+3,w
  3296  03B8  0422               	iorwf	___fldiv@rem+2,w
  3297  03B9  0421               	iorwf	___fldiv@rem+1,w
  3298  03BA  0420               	iorwf	___fldiv@rem,w
  3299  03BB  1903               	skipnz
  3300  03BC  2BBE               	goto	u1731
  3301  03BD  2BBF               	goto	u1730
  3302  03BE                     u1731:	
  3303  03BE  2BDE               	goto	l1443
  3304  03BF                     u1730:	
  3305  03BF                     l1431:	
  3306  03BF  1427               	bsf	___fldiv@grs,0
  3307  03C0  2BDE               	goto	l1443
  3308  03C1                     l1433:	
  3309  03C1  3001               	movlw	1
  3310  03C2  00F8               	movwf	??___fldiv
  3311  03C3                     u1745:	
  3312  03C3  1003               	clrc
  3313  03C4  0DF4               	rlf	___fldiv@b,f
  3314  03C5  0DF5               	rlf	___fldiv@b+1,f
  3315  03C6  0DF6               	rlf	___fldiv@b+2,f
  3316  03C7  0DF7               	rlf	___fldiv@b+3,f
  3317  03C8  0BF8               	decfsz	??___fldiv,f
  3318  03C9  2BC3               	goto	u1745
  3319  03CA                     l1435:	
  3320  03CA  1FAA               	btfss	___fldiv@grs+3,7
  3321  03CB  2BCD               	goto	u1751
  3322  03CC  2BCE               	goto	u1750
  3323  03CD                     u1751:	
  3324  03CD  2BCF               	goto	l1439
  3325  03CE                     u1750:	
  3326  03CE                     l1437:	
  3327  03CE  1474               	bsf	___fldiv@b,0
  3328  03CF                     l1439:	
  3329  03CF  3001               	movlw	1
  3330  03D0  00F8               	movwf	??___fldiv
  3331  03D1                     u1765:	
  3332  03D1  1003               	clrc
  3333  03D2  0DA7               	rlf	___fldiv@grs,f
  3334  03D3  0DA8               	rlf	___fldiv@grs+1,f
  3335  03D4  0DA9               	rlf	___fldiv@grs+2,f
  3336  03D5  0DAA               	rlf	___fldiv@grs+3,f
  3337  03D6  0BF8               	decfsz	??___fldiv,f
  3338  03D7  2BD1               	goto	u1765
  3339  03D8                     l1441:	
  3340  03D8  30FF               	movlw	255
  3341  03D9  07A5               	addwf	___fldiv@new_exp,f
  3342  03DA  1803               	skipnc
  3343  03DB  0AA6               	incf	___fldiv@new_exp+1,f
  3344  03DC  30FF               	movlw	255
  3345  03DD  07A6               	addwf	___fldiv@new_exp+1,f
  3346  03DE                     l1443:	
  3347  03DE  1FF6               	btfss	___fldiv@b+2,7
  3348  03DF  2BE1               	goto	u1771
  3349  03E0  2BE2               	goto	u1770
  3350  03E1                     u1771:	
  3351  03E1  2BC1               	goto	l1433
  3352  03E2                     u1770:	
  3353  03E2                     l1445:	
  3354  03E2  01AC               	clrf	___fldiv@aexp
  3355  03E3                     l1447:	
  3356  03E3  1FAA               	btfss	___fldiv@grs+3,7
  3357  03E4  2BE6               	goto	u1781
  3358  03E5  2BE7               	goto	u1780
  3359  03E6                     u1781:	
  3360  03E6  2C03               	goto	l1455
  3361  03E7                     u1780:	
  3362  03E7                     l1449:	
  3363  03E7  30FF               	movlw	255
  3364  03E8  0527               	andwf	___fldiv@grs,w
  3365  03E9  00F8               	movwf	??___fldiv
  3366  03EA  30FF               	movlw	255
  3367  03EB  0528               	andwf	___fldiv@grs+1,w
  3368  03EC  00F9               	movwf	??___fldiv+1
  3369  03ED  30FF               	movlw	255
  3370  03EE  0529               	andwf	___fldiv@grs+2,w
  3371  03EF  00FA               	movwf	??___fldiv+2
  3372  03F0  307F               	movlw	127
  3373  03F1  052A               	andwf	___fldiv@grs+3,w
  3374  03F2  00FB               	movwf	??___fldiv+3
  3375  03F3  087B               	movf	??___fldiv+3,w
  3376  03F4  047A               	iorwf	??___fldiv+2,w
  3377  03F5  0479               	iorwf	??___fldiv+1,w
  3378  03F6  0478               	iorwf	??___fldiv,w
  3379  03F7  1903               	skipnz
  3380  03F8  2BFA               	goto	u1791
  3381  03F9  2BFB               	goto	u1790
  3382  03FA                     u1791:	
  3383  03FA  2BFE               	goto	l518
  3384  03FB                     u1790:	
  3385  03FB                     l1451:	
  3386  03FB  01AC               	clrf	___fldiv@aexp
  3387  03FC  0AAC               	incf	___fldiv@aexp,f
  3388  03FD  2C03               	goto	l1455
  3389  03FE                     l518:	
  3390  03FE  1C74               	btfss	___fldiv@b,0
  3391  03FF  2C01               	goto	u1801
  3392  0400  2C02               	goto	u1800
  3393  0401                     u1801:	
  3394  0401  2C03               	goto	l1455
  3395  0402                     u1800:	
  3396  0402  2BFB               	goto	l1451
  3397  0403                     l1455:	
  3398  0403  082C               	movf	___fldiv@aexp,w
  3399  0404  1903               	btfsc	3,2
  3400  0405  2C07               	goto	u1811
  3401  0406  2C08               	goto	u1810
  3402  0407                     u1811:	
  3403  0407  2C39               	goto	l1465
  3404  0408                     u1810:	
  3405  0408                     l1457:	
  3406  0408  3001               	movlw	1
  3407  0409  07F4               	addwf	___fldiv@b,f
  3408  040A  3000               	movlw	0
  3409  040B  1803               	skipnc
  3410  040C  3001               	movlw	1
  3411  040D  07F5               	addwf	___fldiv@b+1,f
  3412  040E  3000               	movlw	0
  3413  040F  1803               	skipnc
  3414  0410  3001               	movlw	1
  3415  0411  07F6               	addwf	___fldiv@b+2,f
  3416  0412  3000               	movlw	0
  3417  0413  1803               	skipnc
  3418  0414  3001               	movlw	1
  3419  0415  07F7               	addwf	___fldiv@b+3,f
  3420  0416                     l1459:	
  3421  0416  1C77               	btfss	___fldiv@b+3,0
  3422  0417  2C19               	goto	u1821
  3423  0418  2C1A               	goto	u1820
  3424  0419                     u1821:	
  3425  0419  2C39               	goto	l1465
  3426  041A                     u1820:	
  3427  041A                     l1461:	
  3428  041A  0874               	movf	___fldiv@b,w
  3429  041B  00F8               	movwf	??___fldiv
  3430  041C  0875               	movf	___fldiv@b+1,w
  3431  041D  00F9               	movwf	??___fldiv+1
  3432  041E  0876               	movf	___fldiv@b+2,w
  3433  041F  00FA               	movwf	??___fldiv+2
  3434  0420  0877               	movf	___fldiv@b+3,w
  3435  0421  00FB               	movwf	??___fldiv+3
  3436  0422  3001               	movlw	1
  3437  0423  00FC               	movwf	??___fldiv+4
  3438  0424                     u1835:	
  3439  0424  0D7B               	rlf	??___fldiv+3,w
  3440  0425  0CFB               	rrf	??___fldiv+3,f
  3441  0426  0CFA               	rrf	??___fldiv+2,f
  3442  0427  0CF9               	rrf	??___fldiv+1,f
  3443  0428  0CF8               	rrf	??___fldiv,f
  3444  0429                     u1830:	
  3445  0429  0BFC               	decfsz	??___fldiv+4,f
  3446  042A  2C24               	goto	u1835
  3447  042B  087B               	movf	??___fldiv+3,w
  3448  042C  00F7               	movwf	___fldiv@b+3
  3449  042D  087A               	movf	??___fldiv+2,w
  3450  042E  00F6               	movwf	___fldiv@b+2
  3451  042F  0879               	movf	??___fldiv+1,w
  3452  0430  00F5               	movwf	___fldiv@b+1
  3453  0431  0878               	movf	??___fldiv,w
  3454  0432  00F4               	movwf	___fldiv@b
  3455  0433                     l1463:	
  3456  0433  3001               	movlw	1
  3457  0434  07A5               	addwf	___fldiv@new_exp,f
  3458  0435  1803               	skipnc
  3459  0436  0AA6               	incf	___fldiv@new_exp+1,f
  3460  0437  3000               	movlw	0
  3461  0438  07A6               	addwf	___fldiv@new_exp+1,f
  3462  0439                     l1465:	
  3463  0439  0826               	movf	___fldiv@new_exp+1,w
  3464  043A  3A80               	xorlw	128
  3465  043B  00FF               	movwf	btemp+1
  3466  043C  3080               	movlw	128
  3467  043D  027F               	subwf	btemp+1,w
  3468  043E  1D03               	skipz
  3469  043F  2C42               	goto	u1845
  3470  0440  30FF               	movlw	255
  3471  0441  0225               	subwf	___fldiv@new_exp,w
  3472  0442                     u1845:	
  3473  0442  1C03               	skipc
  3474  0443  2C45               	goto	u1841
  3475  0444  2C46               	goto	u1840
  3476  0445                     u1841:	
  3477  0445  2C54               	goto	l1469
  3478  0446                     u1840:	
  3479  0446                     l1467:	
  3480  0446  30FF               	movlw	255
  3481  0447  1283               	bcf	3,5	;RP0=0, select bank0
  3482  0448  1303               	bcf	3,6	;RP1=0, select bank0
  3483  0449  00A5               	movwf	___fldiv@new_exp
  3484  044A  3000               	movlw	0
  3485  044B  00A6               	movwf	___fldiv@new_exp+1
  3486  044C  3000               	movlw	0
  3487  044D  00F7               	movwf	___fldiv@b+3
  3488  044E  3000               	movlw	0
  3489  044F  00F6               	movwf	___fldiv@b+2
  3490  0450  3000               	movlw	0
  3491  0451  00F5               	movwf	___fldiv@b+1
  3492  0452  3000               	movlw	0
  3493  0453  00F4               	movwf	___fldiv@b
  3494  0454                     l1469:	
  3495  0454  1283               	bcf	3,5	;RP0=0, select bank0
  3496  0455  1303               	bcf	3,6	;RP1=0, select bank0
  3497  0456  0826               	movf	___fldiv@new_exp+1,w
  3498  0457  3A80               	xorlw	128
  3499  0458  00FF               	movwf	btemp+1
  3500  0459  3080               	movlw	128
  3501  045A  027F               	subwf	btemp+1,w
  3502  045B  1D03               	skipz
  3503  045C  2C5F               	goto	u1855
  3504  045D  3001               	movlw	1
  3505  045E  0225               	subwf	___fldiv@new_exp,w
  3506  045F                     u1855:	
  3507  045F  1803               	skipnc
  3508  0460  2C62               	goto	u1851
  3509  0461  2C63               	goto	u1850
  3510  0462                     u1851:	
  3511  0462  2C70               	goto	l524
  3512  0463                     u1850:	
  3513  0463                     l1471:	
  3514  0463  1283               	bcf	3,5	;RP0=0, select bank0
  3515  0464  1303               	bcf	3,6	;RP1=0, select bank0
  3516  0465  01A5               	clrf	___fldiv@new_exp
  3517  0466  01A6               	clrf	___fldiv@new_exp+1
  3518  0467                     l1473:	
  3519  0467  3000               	movlw	0
  3520  0468  00F7               	movwf	___fldiv@b+3
  3521  0469  3000               	movlw	0
  3522  046A  00F6               	movwf	___fldiv@b+2
  3523  046B  3000               	movlw	0
  3524  046C  00F5               	movwf	___fldiv@b+1
  3525  046D  3000               	movlw	0
  3526  046E  00F4               	movwf	___fldiv@b
  3527  046F                     l1475:	
  3528  046F  01A4               	clrf	___fldiv@sign
  3529  0470                     l524:	
  3530  0470  1283               	bcf	3,5	;RP0=0, select bank0
  3531  0471  1303               	bcf	3,6	;RP1=0, select bank0
  3532  0472  0825               	movf	___fldiv@new_exp,w
  3533  0473  00F8               	movwf	??___fldiv
  3534  0474  0878               	movf	??___fldiv,w
  3535  0475  00AB               	movwf	___fldiv@bexp
  3536  0476                     l1477:	
  3537  0476  1C2B               	btfss	___fldiv@bexp,0
  3538  0477  2C79               	goto	u1861
  3539  0478  2C7A               	goto	u1860
  3540  0479                     u1861:	
  3541  0479  2C7C               	goto	l1481
  3542  047A                     u1860:	
  3543  047A                     l1479:	
  3544  047A  17F6               	bsf	___fldiv@b+2,7
  3545  047B  2C80               	goto	l526
  3546  047C                     l1481:	
  3547  047C  307F               	movlw	127
  3548  047D  00F8               	movwf	??___fldiv
  3549  047E  0878               	movf	??___fldiv,w
  3550  047F  05F6               	andwf	___fldiv@b+2,f
  3551  0480                     l526:	
  3552  0480  082B               	movf	___fldiv@bexp,w
  3553  0481  00F8               	movwf	??___fldiv
  3554  0482  1003               	clrc
  3555  0483  0C78               	rrf	??___fldiv,w
  3556  0484  00F9               	movwf	??___fldiv+1
  3557  0485  0879               	movf	??___fldiv+1,w
  3558  0486  00F7               	movwf	___fldiv@b+3
  3559  0487  0824               	movf	___fldiv@sign,w
  3560  0488  00F8               	movwf	??___fldiv
  3561  0489  0878               	movf	??___fldiv,w
  3562  048A  04F7               	iorwf	___fldiv@b+3,f
  3563  048B  2B1E               	goto	l1389
  3564  048C                     l504:	
  3565  048C  0008               	return
  3566  048D                     __end_of___fldiv:	
  3567                           
  3568                           	psect	text11
  3569  0009                     __ptext11:	
  3570 ;; *************** function ___awmod *****************
  3571 ;; Defined at:
  3572 ;;		line 5 in file "/opt/microchip/xc8/v2.10/pic/sources/c90/common/awmod.c"
  3573 ;; Parameters:    Size  Location     Type
  3574 ;;  divisor         2    8[BANK0 ] int 
  3575 ;;  dividend        2   10[BANK0 ] int 
  3576 ;; Auto vars:     Size  Location     Type
  3577 ;;  sign            1   13[BANK0 ] unsigned char 
  3578 ;;  counter         1   12[BANK0 ] unsigned char 
  3579 ;; Return value:  Size  Location     Type
  3580 ;;                  2    8[BANK0 ] int 
  3581 ;; Registers used:
  3582 ;;		wreg, status,2, status,0
  3583 ;; Tracked objects:
  3584 ;;		On entry : 0/0
  3585 ;;		On exit  : 0/0
  3586 ;;		Unchanged: 0/0
  3587 ;; Data sizes:     COMMON   BANK0   BANK1   BANK3   BANK2
  3588 ;;      Params:         0       4       0       0       0
  3589 ;;      Locals:         0       2       0       0       0
  3590 ;;      Temps:          1       0       0       0       0
  3591 ;;      Totals:         1       6       0       0       0
  3592 ;;Total ram usage:        7 bytes
  3593 ;; Hardware stack levels used:    1
  3594 ;; This function calls:
  3595 ;;		Nothing
  3596 ;; This function is called by:
  3597 ;;		_main
  3598 ;; This function uses a non-reentrant model
  3599 ;;
  3600                           
  3601                           
  3602                           ;psect for function ___awmod
  3603  0009                     ___awmod:	
  3604  0009                     l1271:	
  3605                           ;incstack = 0
  3606                           ; Regs used in ___awmod: [wreg+status,2+status,0]
  3607                           
  3608  0009  1283               	bcf	3,5	;RP0=0, select bank0
  3609  000A  1303               	bcf	3,6	;RP1=0, select bank0
  3610  000B  01AD               	clrf	___awmod@sign
  3611  000C                     l1273:	
  3612  000C  1FAB               	btfss	___awmod@dividend+1,7
  3613  000D  280F               	goto	u1381
  3614  000E  2810               	goto	u1380
  3615  000F                     u1381:	
  3616  000F  2817               	goto	l1279
  3617  0010                     u1380:	
  3618  0010                     l1275:	
  3619  0010  09AA               	comf	___awmod@dividend,f
  3620  0011  09AB               	comf	___awmod@dividend+1,f
  3621  0012  0AAA               	incf	___awmod@dividend,f
  3622  0013  1903               	skipnz
  3623  0014  0AAB               	incf	___awmod@dividend+1,f
  3624  0015                     l1277:	
  3625  0015  01AD               	clrf	___awmod@sign
  3626  0016  0AAD               	incf	___awmod@sign,f
  3627  0017                     l1279:	
  3628  0017  1FA9               	btfss	___awmod@divisor+1,7
  3629  0018  281A               	goto	u1391
  3630  0019  281B               	goto	u1390
  3631  001A                     u1391:	
  3632  001A  2820               	goto	l1283
  3633  001B                     u1390:	
  3634  001B                     l1281:	
  3635  001B  09A8               	comf	___awmod@divisor,f
  3636  001C  09A9               	comf	___awmod@divisor+1,f
  3637  001D  0AA8               	incf	___awmod@divisor,f
  3638  001E  1903               	skipnz
  3639  001F  0AA9               	incf	___awmod@divisor+1,f
  3640  0020                     l1283:	
  3641  0020  0828               	movf	___awmod@divisor,w
  3642  0021  0429               	iorwf	___awmod@divisor+1,w
  3643  0022  1903               	btfsc	3,2
  3644  0023  2825               	goto	u1401
  3645  0024  2826               	goto	u1400
  3646  0025                     u1401:	
  3647  0025  2855               	goto	l1301
  3648  0026                     u1400:	
  3649  0026                     l1285:	
  3650  0026  01AC               	clrf	___awmod@counter
  3651  0027  0AAC               	incf	___awmod@counter,f
  3652  0028  2834               	goto	l1291
  3653  0029                     l1287:	
  3654  0029  3001               	movlw	1
  3655  002A                     u1415:	
  3656  002A  1003               	clrc
  3657  002B  0DA8               	rlf	___awmod@divisor,f
  3658  002C  0DA9               	rlf	___awmod@divisor+1,f
  3659  002D  3EFF               	addlw	-1
  3660  002E  1D03               	skipz
  3661  002F  282A               	goto	u1415
  3662  0030                     l1289:	
  3663  0030  3001               	movlw	1
  3664  0031  00FC               	movwf	??___awmod
  3665  0032  087C               	movf	??___awmod,w
  3666  0033  07AC               	addwf	___awmod@counter,f
  3667  0034                     l1291:	
  3668  0034  1FA9               	btfss	___awmod@divisor+1,7
  3669  0035  2837               	goto	u1421
  3670  0036  2838               	goto	u1420
  3671  0037                     u1421:	
  3672  0037  2829               	goto	l1287
  3673  0038                     u1420:	
  3674  0038                     l1293:	
  3675  0038  0829               	movf	___awmod@divisor+1,w
  3676  0039  022B               	subwf	___awmod@dividend+1,w
  3677  003A  1D03               	skipz
  3678  003B  283E               	goto	u1435
  3679  003C  0828               	movf	___awmod@divisor,w
  3680  003D  022A               	subwf	___awmod@dividend,w
  3681  003E                     u1435:	
  3682  003E  1C03               	skipc
  3683  003F  2841               	goto	u1431
  3684  0040  2842               	goto	u1430
  3685  0041                     u1431:	
  3686  0041  2848               	goto	l1297
  3687  0042                     u1430:	
  3688  0042                     l1295:	
  3689  0042  0828               	movf	___awmod@divisor,w
  3690  0043  02AA               	subwf	___awmod@dividend,f
  3691  0044  0829               	movf	___awmod@divisor+1,w
  3692  0045  1C03               	skipc
  3693  0046  03AB               	decf	___awmod@dividend+1,f
  3694  0047  02AB               	subwf	___awmod@dividend+1,f
  3695  0048                     l1297:	
  3696  0048  3001               	movlw	1
  3697  0049                     u1445:	
  3698  0049  1003               	clrc
  3699  004A  0CA9               	rrf	___awmod@divisor+1,f
  3700  004B  0CA8               	rrf	___awmod@divisor,f
  3701  004C  3EFF               	addlw	-1
  3702  004D  1D03               	skipz
  3703  004E  2849               	goto	u1445
  3704  004F                     l1299:	
  3705  004F  3001               	movlw	1
  3706  0050  02AC               	subwf	___awmod@counter,f
  3707  0051  1D03               	btfss	3,2
  3708  0052  2854               	goto	u1451
  3709  0053  2855               	goto	u1450
  3710  0054                     u1451:	
  3711  0054  2838               	goto	l1293
  3712  0055                     u1450:	
  3713  0055                     l1301:	
  3714  0055  082D               	movf	___awmod@sign,w
  3715  0056  1903               	btfsc	3,2
  3716  0057  2859               	goto	u1461
  3717  0058  285A               	goto	u1460
  3718  0059                     u1461:	
  3719  0059  285F               	goto	l1305
  3720  005A                     u1460:	
  3721  005A                     l1303:	
  3722  005A  09AA               	comf	___awmod@dividend,f
  3723  005B  09AB               	comf	___awmod@dividend+1,f
  3724  005C  0AAA               	incf	___awmod@dividend,f
  3725  005D  1903               	skipnz
  3726  005E  0AAB               	incf	___awmod@dividend+1,f
  3727  005F                     l1305:	
  3728  005F  082B               	movf	___awmod@dividend+1,w
  3729  0060  00A9               	movwf	?___awmod+1
  3730  0061  082A               	movf	___awmod@dividend,w
  3731  0062  00A8               	movwf	?___awmod
  3732  0063                     l319:	
  3733  0063  0008               	return
  3734  0064                     __end_of___awmod:	
  3735                           
  3736                           	psect	text12
  3737  0F97                     __ptext12:	
  3738 ;; *************** function ___awdiv *****************
  3739 ;; Defined at:
  3740 ;;		line 5 in file "/opt/microchip/xc8/v2.10/pic/sources/c90/common/awdiv.c"
  3741 ;; Parameters:    Size  Location     Type
  3742 ;;  divisor         2    0[BANK0 ] int 
  3743 ;;  dividend        2    2[BANK0 ] int 
  3744 ;; Auto vars:     Size  Location     Type
  3745 ;;  quotient        2    6[BANK0 ] int 
  3746 ;;  sign            1    5[BANK0 ] unsigned char 
  3747 ;;  counter         1    4[BANK0 ] unsigned char 
  3748 ;; Return value:  Size  Location     Type
  3749 ;;                  2    0[BANK0 ] int 
  3750 ;; Registers used:
  3751 ;;		wreg, status,2, status,0
  3752 ;; Tracked objects:
  3753 ;;		On entry : 0/0
  3754 ;;		On exit  : 0/0
  3755 ;;		Unchanged: 0/0
  3756 ;; Data sizes:     COMMON   BANK0   BANK1   BANK3   BANK2
  3757 ;;      Params:         0       4       0       0       0
  3758 ;;      Locals:         0       4       0       0       0
  3759 ;;      Temps:          1       0       0       0       0
  3760 ;;      Totals:         1       8       0       0       0
  3761 ;;Total ram usage:        9 bytes
  3762 ;; Hardware stack levels used:    1
  3763 ;; This function calls:
  3764 ;;		Nothing
  3765 ;; This function is called by:
  3766 ;;		_main
  3767 ;; This function uses a non-reentrant model
  3768 ;;
  3769                           
  3770                           
  3771                           ;psect for function ___awdiv
  3772  0F97                     ___awdiv:	
  3773  0F97                     l1227:	
  3774                           ;incstack = 0
  3775                           ; Regs used in ___awdiv: [wreg+status,2+status,0]
  3776                           
  3777  0F97  1283               	bcf	3,5	;RP0=0, select bank0
  3778  0F98  1303               	bcf	3,6	;RP1=0, select bank0
  3779  0F99  01A5               	clrf	___awdiv@sign
  3780  0F9A                     l1229:	
  3781  0F9A  1FA1               	btfss	___awdiv@divisor+1,7
  3782  0F9B  2F9D               	goto	u1281
  3783  0F9C  2F9E               	goto	u1280
  3784  0F9D                     u1281:	
  3785  0F9D  2FA5               	goto	l1235
  3786  0F9E                     u1280:	
  3787  0F9E                     l1231:	
  3788  0F9E  09A0               	comf	___awdiv@divisor,f
  3789  0F9F  09A1               	comf	___awdiv@divisor+1,f
  3790  0FA0  0AA0               	incf	___awdiv@divisor,f
  3791  0FA1  1903               	skipnz
  3792  0FA2  0AA1               	incf	___awdiv@divisor+1,f
  3793  0FA3                     l1233:	
  3794  0FA3  01A5               	clrf	___awdiv@sign
  3795  0FA4  0AA5               	incf	___awdiv@sign,f
  3796  0FA5                     l1235:	
  3797  0FA5  1FA3               	btfss	___awdiv@dividend+1,7
  3798  0FA6  2FA8               	goto	u1291
  3799  0FA7  2FA9               	goto	u1290
  3800  0FA8                     u1291:	
  3801  0FA8  2FB2               	goto	l1241
  3802  0FA9                     u1290:	
  3803  0FA9                     l1237:	
  3804  0FA9  09A2               	comf	___awdiv@dividend,f
  3805  0FAA  09A3               	comf	___awdiv@dividend+1,f
  3806  0FAB  0AA2               	incf	___awdiv@dividend,f
  3807  0FAC  1903               	skipnz
  3808  0FAD  0AA3               	incf	___awdiv@dividend+1,f
  3809  0FAE                     l1239:	
  3810  0FAE  3001               	movlw	1
  3811  0FAF  00FB               	movwf	??___awdiv
  3812  0FB0  087B               	movf	??___awdiv,w
  3813  0FB1  06A5               	xorwf	___awdiv@sign,f
  3814  0FB2                     l1241:	
  3815  0FB2  01A6               	clrf	___awdiv@quotient
  3816  0FB3  01A7               	clrf	___awdiv@quotient+1
  3817  0FB4                     l1243:	
  3818  0FB4  0820               	movf	___awdiv@divisor,w
  3819  0FB5  0421               	iorwf	___awdiv@divisor+1,w
  3820  0FB6  1903               	btfsc	3,2
  3821  0FB7  2FB9               	goto	u1301
  3822  0FB8  2FBA               	goto	u1300
  3823  0FB9                     u1301:	
  3824  0FB9  2FF1               	goto	l1263
  3825  0FBA                     u1300:	
  3826  0FBA                     l1245:	
  3827  0FBA  01A4               	clrf	___awdiv@counter
  3828  0FBB  0AA4               	incf	___awdiv@counter,f
  3829  0FBC  2FC8               	goto	l1251
  3830  0FBD                     l1247:	
  3831  0FBD  3001               	movlw	1
  3832  0FBE                     u1315:	
  3833  0FBE  1003               	clrc
  3834  0FBF  0DA0               	rlf	___awdiv@divisor,f
  3835  0FC0  0DA1               	rlf	___awdiv@divisor+1,f
  3836  0FC1  3EFF               	addlw	-1
  3837  0FC2  1D03               	skipz
  3838  0FC3  2FBE               	goto	u1315
  3839  0FC4                     l1249:	
  3840  0FC4  3001               	movlw	1
  3841  0FC5  00FB               	movwf	??___awdiv
  3842  0FC6  087B               	movf	??___awdiv,w
  3843  0FC7  07A4               	addwf	___awdiv@counter,f
  3844  0FC8                     l1251:	
  3845  0FC8  1FA1               	btfss	___awdiv@divisor+1,7
  3846  0FC9  2FCB               	goto	u1321
  3847  0FCA  2FCC               	goto	u1320
  3848  0FCB                     u1321:	
  3849  0FCB  2FBD               	goto	l1247
  3850  0FCC                     u1320:	
  3851  0FCC                     l1253:	
  3852  0FCC  3001               	movlw	1
  3853  0FCD                     u1335:	
  3854  0FCD  1003               	clrc
  3855  0FCE  0DA6               	rlf	___awdiv@quotient,f
  3856  0FCF  0DA7               	rlf	___awdiv@quotient+1,f
  3857  0FD0  3EFF               	addlw	-1
  3858  0FD1  1D03               	skipz
  3859  0FD2  2FCD               	goto	u1335
  3860  0FD3  0821               	movf	___awdiv@divisor+1,w
  3861  0FD4  0223               	subwf	___awdiv@dividend+1,w
  3862  0FD5  1D03               	skipz
  3863  0FD6  2FD9               	goto	u1345
  3864  0FD7  0820               	movf	___awdiv@divisor,w
  3865  0FD8  0222               	subwf	___awdiv@dividend,w
  3866  0FD9                     u1345:	
  3867  0FD9  1C03               	skipc
  3868  0FDA  2FDC               	goto	u1341
  3869  0FDB  2FDD               	goto	u1340
  3870  0FDC                     u1341:	
  3871  0FDC  2FE4               	goto	l1259
  3872  0FDD                     u1340:	
  3873  0FDD                     l1255:	
  3874  0FDD  0820               	movf	___awdiv@divisor,w
  3875  0FDE  02A2               	subwf	___awdiv@dividend,f
  3876  0FDF  0821               	movf	___awdiv@divisor+1,w
  3877  0FE0  1C03               	skipc
  3878  0FE1  03A3               	decf	___awdiv@dividend+1,f
  3879  0FE2  02A3               	subwf	___awdiv@dividend+1,f
  3880  0FE3                     l1257:	
  3881  0FE3  1426               	bsf	___awdiv@quotient,0
  3882  0FE4                     l1259:	
  3883  0FE4  3001               	movlw	1
  3884  0FE5                     u1355:	
  3885  0FE5  1003               	clrc
  3886  0FE6  0CA1               	rrf	___awdiv@divisor+1,f
  3887  0FE7  0CA0               	rrf	___awdiv@divisor,f
  3888  0FE8  3EFF               	addlw	-1
  3889  0FE9  1D03               	skipz
  3890  0FEA  2FE5               	goto	u1355
  3891  0FEB                     l1261:	
  3892  0FEB  3001               	movlw	1
  3893  0FEC  02A4               	subwf	___awdiv@counter,f
  3894  0FED  1D03               	btfss	3,2
  3895  0FEE  2FF0               	goto	u1361
  3896  0FEF  2FF1               	goto	u1360
  3897  0FF0                     u1361:	
  3898  0FF0  2FCC               	goto	l1253
  3899  0FF1                     u1360:	
  3900  0FF1                     l1263:	
  3901  0FF1  0825               	movf	___awdiv@sign,w
  3902  0FF2  1903               	btfsc	3,2
  3903  0FF3  2FF5               	goto	u1371
  3904  0FF4  2FF6               	goto	u1370
  3905  0FF5                     u1371:	
  3906  0FF5  2FFB               	goto	l1267
  3907  0FF6                     u1370:	
  3908  0FF6                     l1265:	
  3909  0FF6  09A6               	comf	___awdiv@quotient,f
  3910  0FF7  09A7               	comf	___awdiv@quotient+1,f
  3911  0FF8  0AA6               	incf	___awdiv@quotient,f
  3912  0FF9  1903               	skipnz
  3913  0FFA  0AA7               	incf	___awdiv@quotient+1,f
  3914  0FFB                     l1267:	
  3915  0FFB  0827               	movf	___awdiv@quotient+1,w
  3916  0FFC  00A1               	movwf	?___awdiv+1
  3917  0FFD  0826               	movf	___awdiv@quotient,w
  3918  0FFE  00A0               	movwf	?___awdiv
  3919  0FFF                     l306:	
  3920  0FFF  0008               	return
  3921  1000                     __end_of___awdiv:	
  3922  007E                     btemp	set	126	;btemp
  3923  007E                     wtemp0	set	126


Data Sizes:
    Strings     0
    Constant    0
    Data        11
    BSS         0
    Persistent  0
    Stack       0

Auto Spaces:
    Space          Size  Autos    Used
    COMMON           14     14      14
    BANK0            80     55      66
    BANK1            80      0       0
    BANK3            96      0       0
    BANK2            96      0       0

Pointer List with Targets:

    display@data	PTR unsigned char  size(1) Largest target is 4
		 -> main@ssd(BANK0[4]), 


Critical Paths under _main in COMMON

    _main->___xxtofl
    ___flmul->___xxtofl
    ___awmod->___awdiv
    ___awdiv->___fltol

Critical Paths under _main in BANK0

    _main->___flmul
    ___awmod->___awdiv

Critical Paths under _main in BANK1

    None.

Critical Paths under _main in BANK3

    None.

Critical Paths under _main in BANK2

    None.

Call Graph Tables:

 ---------------------------------------------------------------------------------
 (Depth) Function   	        Calls       Base Space   Used Autos Params    Refs
 ---------------------------------------------------------------------------------
 (0) _main                                                29    29      0    6416
                                             26 BANK0     29    29      0
                            ___awdiv
                            ___awmod
                            ___fldiv
                            ___flmul
                            ___fltol
                           ___xxtofl
                            _display
                        _init_config
                           _read_adc
 ---------------------------------------------------------------------------------
 (1) _read_adc                                             6     4      2      45
                                              0 COMMON     6     4      2
 ---------------------------------------------------------------------------------
 (1) _init_config                                          0     0      0       0
                           _init_adc
                           _init_ssd
 ---------------------------------------------------------------------------------
 (2) _init_ssd                                             0     0      0       0
 ---------------------------------------------------------------------------------
 (2) _init_adc                                             0     0      0       0
 ---------------------------------------------------------------------------------
 (1) _display                                              5     5      0     168
                                              0 COMMON     5     5      0
 ---------------------------------------------------------------------------------
 (1) ___xxtofl                                            14    10      4     398
                                              0 COMMON    14    10      4
 ---------------------------------------------------------------------------------
 (1) ___fltol                                             11     7      4     457
                                              0 COMMON    11     7      4
 ---------------------------------------------------------------------------------
 (1) ___flmul                                             26    18      8    2417
                                              0 BANK0     26    18      8
                          __Umul8_16
                           ___xxtofl (ARG)
 ---------------------------------------------------------------------------------
 (2) __Umul8_16                                            9     7      2     799
                                              0 COMMON     9     7      2
 ---------------------------------------------------------------------------------
 (1) ___fldiv                                             26    18      8    1273
                                              0 COMMON    13     5      8
                                              0 BANK0     13    13      0
 ---------------------------------------------------------------------------------
 (1) ___awmod                                              7     3      4     752
                                             12 COMMON     1     1      0
                                              8 BANK0      6     2      4
                            ___awdiv (ARG)
                            ___fltol (ARG)
 ---------------------------------------------------------------------------------
 (1) ___awdiv                                              9     5      4     604
                                             11 COMMON     1     1      0
                                              0 BANK0      8     4      4
                            ___fltol (ARG)
 ---------------------------------------------------------------------------------
 Estimated maximum stack depth 2
 ---------------------------------------------------------------------------------

 Call Graph Graphs:

 _main (ROOT)
   ___awdiv
     ___fltol (ARG)
   ___awmod
     ___awdiv (ARG)
       ___fltol (ARG)
     ___fltol (ARG)
   ___fldiv
   ___flmul
     __Umul8_16
     ___xxtofl (ARG)
   ___fltol
   ___xxtofl
   _display
   _init_config
     _init_adc
     _init_ssd
   _read_adc

 Address spaces:
Name               Size   Autos  Total    Cost      Usage
BANK3               60      0       0       9        0.0%
BITBANK3            60      0       0       8        0.0%
SFR3                 0      0       0       4        0.0%
BITSFR3              0      0       0       4        0.0%
BANK2               60      0       0      11        0.0%
BITBANK2            60      0       0      10        0.0%
SFR2                 0      0       0       5        0.0%
BITSFR2              0      0       0       5        0.0%
BANK1               50      0       0       7        0.0%
BITBANK1            50      0       0       6        0.0%
SFR1                 0      0       0       2        0.0%
BITSFR1              0      0       0       2        0.0%
BANK0               50     37      42       5       82.5%
BITBANK0            50      0       0       4        0.0%
SFR0                 0      0       0       1        0.0%
BITSFR0              0      0       0       1        0.0%
COMMON               E      E       E       1      100.0%
BITCOMMON            E      0       0       0        0.0%
CODE                 0      0       0       0        0.0%
DATA                 0      0      50      12        0.0%
ABS                  0      0      50       3        0.0%
NULL                 0      0       0       0        0.0%
STACK                0      0       0       2        0.0%
EEDATA             100      0       0       0        0.0%


Microchip Technology PIC Macro Assembler V2.10 build 88905656 
Symbol Table                                                                                   Sun Jul  5 14:36:36 2020

           ___fldiv@aexp 002C             ___fldiv@bexp 002B                        pc 0002  
           ___fldiv@sign 0024                       l21 0EE5                       l24 0F2B  
                     l27 0F39                       l38 0EF0                       l67 0F96  
                     l59 0F07                       _GO 00FA             ___awdiv@sign 0025  
                     fsr 0004      __Umul8_16@word_mpld 0076                      l306 0FFF  
                    l502 0306                      l319 0063                      l504 048C  
                    l601 0F60                      l346 00C8                      l339 00DD  
                    l524 0470                      l349 00DD                      l526 0480  
                    l518 03FE                      l542 07ED                      l554 07E1  
                    l548 0759                      l580 0100                      l582 0197  
                    l593 0161                      l594 016D                      l586 0145  
                    l599 0F4E                      fsr0 0004                      indf 0000  
           ___awmod@sign 002D             ___flmul@aexp 0032             ___flmul@bexp 0033  
           ___flmul@sign 002D             ___flmul@temp 0038             ___flmul@prod 0034  
           ___fltol@exp1 007A                     l1201 0F2F                     l1301 0055  
                   l1221 0F7E                     l1205 0EE6                     l1231 0F9E  
                   l1303 005A                     l1311 006F                     l1223 0F8C  
                   l1215 0F63                     l1207 0EEB                     l1241 0FB2  
                   l1233 0FA3                     l1305 005F                     l1401 0347  
                   l1321 0096                     l1225 0F90                     l1217 0F6D  
                   l1209 0F62                     l1251 0FC8                     l1243 0FB4  
                   l1235 0FA5                     l1227 0F97                     l1411 0366  
                   l1403 034F                     l1331 00A4                     l1323 0098  
                   l1315 0078                     l1219 0F7A                     l1261 0FEB  
                   l1253 0FCC                     l1245 0FBA                     l1237 0FA9  
                   l1229 0F9A                     l1421 0398                     l1413 0378  
                   l1405 0357                     l1501 04B1                     l1341 00CD  
                   l1325 009C                     l1333 00B6                     l1317 008D  
                   l1309 0064                     l1181 0F02                     l1255 0FDD  
                   l1247 0FBD                     l1263 0FF1                     l1239 0FAE  
                   l1271 0009                     l1431 03BF                     l1423 0399  
                   l1415 037C                     l1407 035F                     l1351 02BB  
                   l1191 0F57                     l1183 0F3B                     l1511 04CA  
                   l1503 04B3                     l1343 00D2                     l1319 008E  
                   l1175 0EDD                     l1265 0FF6                     l1257 0FE3  
                   l1249 0FC4                     l1281 001B                     l1273 000C  
                   l1441 03D8                     l1433 03C1                     l1425 03AD  
                   l1417 037D                     l1409 0361                     l1361 02CF  
                   l1353 02BC                     l1345 02AA                     l1193 0F5C  
                   l1185 0F3D                     l1601 0775                     l1521 04DF  
                   l1513 04CB                     l1505 04BB                     l1177 0EFC  
                   l1267 0FFB                     l1259 0FE4                     l1291 0034  
                   l1283 0020                     l1275 0010                     l1451 03FB  
                   l1435 03CA                     l1443 03DE                     l1419 0386  
                   l1427 03B1                     l1371 02E8                     l1355 02C1  
                   l1363 02D1                     l1347 02B1                     l1187 0F44  
                   l1611 07BB                     l1603 078E                     l1531 04FA  
                   l1523 04E7                     l1515 04D0                     l1507 04C0  
                   l1339 00BD                     l1179 0EFF                     l1293 0038  
                   l1285 0026                     l1277 0015                     l1461 041A  
                   l1445 03E2                     l1437 03CE                     l1429 03B7  
                   l1381 02FC                     l1373 02E9                     l1365 02D9  
                   l1357 02C6                     l1349 02B7                     l1189 0F48  
                   l1621 07DA                     l1613 07C5                     l1605 0794  
                   l1541 057C                     l1533 050A                     l1525 04EC  
                   l1517 04D5                     l1509 04C6                     l1197 0F1C  
                   l1295 0042                     l1287 0029                     l1279 0017  
                   l1471 0463                     l1463 0433                     l1455 0403  
                   l1447 03E3                     l1439 03CF                     l1375 02EE  
                   l1383 02FE                     l1367 02DE                     l1359 02CE  
                   l1623 07E5                     l1615 07C7                     l1607 07A1  
                   l1551 05EA                     l1543 0598                     l1535 0517  
                   l1527 04F1                     l1519 04DD                     l1631 00E8  
                   l1199 0F2A                     l1297 0048                     l1289 0030  
                   l1481 047C                     l1473 0467                     l1457 0408  
                   l1465 0439                     l1449 03E7                     l1385 030E  
                   l1393 0327                     l1377 02F3                     l1369 02E4  
                   l1617 07D5                     l1609 07AC                     l1561 067A  
                   l1553 05FA                     l1545 05B4                     l1537 0534  
                   l1641 0116                     l1633 00F8                     l1299 004F  
                   l1475 046F                     l1467 0446                     l1459 0416  
                   l1395 032C                     l1387 031A                     l1379 02FB  
                   l1619 07D9                     l1571 070E                     l1563 068A  
                   l1555 0617                     l1547 05BD                     l1539 0550  
                   l1491 049A                     l1651 014C                     l1643 0123  
                   l1635 0108                     l1627 00DF                     l1477 0476  
                   l1469 0454                     l1389 031E                     l1581 0733  
                   l1573 071C                     l1565 06B7                     l1557 0630  
                   l1549 05CD                     l1493 049E                     l1661 0185  
                   l1653 0157                     l1645 012A                     l1629 00E4  
                   l1479 047A                     l1399 0335                     l1591 0756  
                   l1575 0725                     l1583 0739                     l1567 06DD  
                   l1559 064D                     l1495 049F                     l1487 048D  
                   l1663 018A                     l1655 015B                     l1647 012E  
                   l1639 0111                     l1671 0198                     l1585 073D  
                   l1577 0729                     l1569 0705                     l1497 04A4  
                   l1489 0494                     l1665 018E                     l1657 0165  
                   l1649 013C                     l1681 01F1                     l1673 01AF  
                   l1595 075E                     l1587 073E                     l1579 072A  
                   l1499 04A9                     l1667 018F                     l1659 016F  
                   l1683 0210                     l1675 01B3                     l1597 0763  
                   l1589 0742                     l1685 0236                     l1677 01B8  
                   l1599 0771                     l1687 026B                     l1679 01C4  
                   l1689 02A0                     _ADFM 04FF                     _ADON 00F8  
                   u1200 0F48                     u1201 0F47                     u2001 05DC  
                   u2002 05E3                     u2011 0609                     u2003 05EA  
                   u1300 0FBA                     u1220 0F5C                     u2012 0610  
                   u1301 0FB9                     u1221 0F5B                     u2013 0617  
                   u1215 0F4F                     u2031 063F                     u1320 0FCC  
                   u1400 0026                     u2200 0784                     u2120 0729  
                   u2032 0646                     u1240 0F2F                     u1321 0FCB  
                   u1401 0025                     u2121 0728                     u2105 0707  
                   u2041 066C                     u2033 064D                     u2025 0619  
                   u1241 0F2E                     u2210 07A1                     u2042 0673  
                   u1315 0FBE                     u2211 07A0                     u2115 071E  
                   u2051 0699                     u2043 067A                     u1235 0F1F  
                   u1340 0FDD                     u1420 0038                     u2220 07BB  
                   u2140 073D                     u2060 06C3                     u2052 06A0  
                   u1500 00A3                     u2300 014B                     u1260 0F8C  
                   u1341 0FDC                     u1421 0037                     u2221 07BA  
                   u2205 077F                     u2141 073C                     u2053 06A7  
                   u1501 00A2                     u2301 014A                     u1261 0F8B  
                   u1430 0042                     u2230 07D9                     u2150 0742  
                   u1270 0F96                     u1254 0F73                     u1335 0FCD  
                   u1431 0041                     u1415 002A                     u2231 07D8  
                   u2215 079D                     u2151 0741                     u2135 072C  
                   u2071 06CF                     u1271 0F95                     u1255 0F71  
                   u1360 0FF1                     u1280 0F9E                     u1600 02E8  
                   u2160 0756                     u2080 06EB                     u2072 06D6  
                   u1520 00B5                     u2320 015B                     u2240 00E4  
                   u1361 0FF0                     u1345 0FD9                     u1281 0F9D  
                   u1601 02E7                     u2225 07B7                     u2161 0755  
                   u2073 06DD                     u2065 06BE                     u1521 00B4  
                   u2321 015A                     u2241 00E3                     u1370 0FF6  
                   u1290 0FA9                     u1450 0055                     u1610 02EE  
                   u2170 075D                     u1530 00BC                     u2330 0161  
                   u2250 00E8                     u1371 0FF5                     u1355 0FE5  
                   u1291 0FA8                     u1451 0054                     u1435 003E  
                   u1611 02ED                     u2171 075C                     u2091 06F7  
                   u1531 00BB                     u1515 00A5                     u2331 0160  
                   u2315 0150                     u2251 00E7                     u1460 005A  
                   u1380 0010                     u1700 0398                     u1620 02F3  
                   u2180 0763                     u2092 06FE                     u2340 0165  
                   u2260 0108                     u1461 0059                     u1445 0049  
                   u1381 000F                     u1701 0397                     u1621 02F2  
                   u2181 0762                     u2093 0705                     u2085 06E6  
                   u2341 0164                     u2261 0107                     u1390 001B  
                   u1710 03AD                     u1630 030E                     u2190 0775  
                   u1550 00CD                     u1470 006F                     u2350 017A  
                   u1391 001A                     u1631 030D                     u2191 0774  
                   u1551 00CC                     u1471 006E                     u1800 0402  
                   u1720 03B7                     u1640 032C                     u1560 00D2  
                   u1480 0086                     u2360 018A                     u2280 0129  
                   u1801 0401                     u1721 03B6                     u1705 0394  
                   u1641 032B                     u1561 00D1                     u1545 00BF  
                   u2361 0189                     u2281 0128                     u1810 0408  
                   u1730 03BF                     u1650 0366                     u1570 02BB  
                   u1490 009C                     u2370 018E                     u1811 0407  
                   u1731 03BE                     u1715 03A0                     u1651 0365  
                   u1571 02BA                     u1491 009B                     u2371 018D  
                   u2355 0175                     u2275 011B                     u1820 041A  
                   u1716 03A1                     u1580 02C1                     u1900 04CA  
                   u2380 01A2                     u1821 0419                     u1717 03A6  
                   u1581 02C0                     u1901 04C9                     u1485 0081  
                   u1830 0429                     u1750 03CE                     u1718 03A7  
                   u1590 02C6                     u1910 04D0                     u1751 03CD  
                   u1719 03AC                     u1591 02C5                     u1911 04CF  
                   u2295 013D                     u1840 0446                     u1680 037C  
                   u1920 04D5                     u1841 0445                     u1745 03C3  
                   u1681 037B                     u1665 0368                     u1921 04D4  
                   u1850 0463                     u1770 03E2                     u1930 04EC  
                   u1851 0462                     u1835 0424                     u1771 03E1  
                   u1675 0371                     u1931 04EB                     u1860 047A  
                   u1780 03E7                     u1940 04F1                     u1861 0479  
                   u1845 0442                     u1781 03E6                     u1765 03D1  
                   u1941 04F0                     u1790 03FB                     u1870 049E  
                   u1855 045F                     u1791 03FA                     u1695 037F  
                   u1951 0542                     u1871 049D                     u1952 0549  
                   u1880 04A4                     u1961 055E                     u1953 0550  
                   u1881 04A3                     u1962 0565                     u1890 04A9  
                   u1971 058A                     u1963 056C                     u1891 04A8  
                   u1972 0591                     u1981 05A6                     u1973 0598  
                   u1982 05AD                     u1983 05B4                     u1995 05B6  
            display@data 0073              display@wait 0071                     _main 0198  
                   btemp 007E                     start 0000          ___fldiv@new_exp 0025  
            main@voltage 0049            ___fltol@sign1 0079                    _ADCS0 00FE  
                  _ADCS1 00FF                    ?_main 0070          __end_of___fldiv 048D  
        __end_of___awdiv 1000            __CFG_WDTE$OFF 0000          __end_of___awmod 0064  
        __end_of___flmul 07EE          __end_of___fltol 00DE          ___awdiv@divisor 0020  
           ?_init_config 0070          ___awdiv@counter 0024                    _PORTA 0005  
                  _PORTD 0008                    _TRISA 0085                    _TRISD 0088  
           display@digit 0074                    _nDONE 00FA          __end_of_display 0F97  
                  pclath 000A                    status 0003                    wtemp0 007E  
        __initialization 07EE             __end_of_main 02AA                   ??_main 003A  
                 _ADCON0 001F                   _ADRESH 001E                   _ADRESL 009E  
       ___awdiv@dividend 0022         __end_of___xxtofl 0198                ??___fldiv 0078  
              ??___awdiv 007B                ??___awmod 007C                ??___flmul 0028  
              ??___fltol 0074         __end_of_init_adc 0EE6         __end_of_read_adc 0F3A  
       __end_of_init_ssd 0F08         ___awdiv@quotient 0026          ___awmod@divisor 0028  
        ___awmod@counter 002C                ??_display 0070       __size_of__Umul8_16 0027  
           ___xxtofl@arg 007A             ___xxtofl@exp 0079             ___xxtofl@val 0070  
__end_of__initialization 07FC               ___fltol@f1 0070           __pcstackCOMMON 0070  
           __pidataBANK0 0EF1     __size_of_init_config 000B        __end_of__Umul8_16 0F61  
             __pmaintext 0198                ?___xxtofl 0070                ?_init_adc 0070  
              ?_read_adc 0070                ?_init_ssd 0070                  ___fldiv 02AA  
                ___awdiv 0F97                  ___awmod 0009                  ___flmul 048D  
                ___fltol 0064                  __ptext1 0F1B                  __ptext2 0EE6  
                __ptext3 0EFC                  __ptext4 0EDD                  __ptext5 0F61  
                __ptext6 00DE                  __ptext7 0064                  __ptext8 048D  
                __ptext9 0F3A                  _display 0F61               ??___xxtofl 0074  
       ___awmod@dividend 002A                  main@ssd 004F     end_of_initialization 07FC  
             ??_init_adc 0070               ??_read_adc 0072               ??_init_ssd 0070  
        main@adc_reg_val 004D          read_adc@channel 0075            ___xxtofl@sign 0078  
            ___fldiv@grs 0027              ___fldiv@rem 0020              ___flmul@grs 002E  
             main@digits 003E      start_initialization 07EE               init_fetch0 0F08  
              __Umul8_16 0F3A              __pdataBANK0 0057            ??_init_config 0070  
              ___fldiv@a 0070                ___fldiv@b 0074                ___flmul@a 0024  
              ___flmul@b 0020                ___latbits 0002            __pcstackBANK0 0020  
      __size_of___xxtofl 00BA        __size_of_init_adc 0009        __size_of_read_adc 001F  
      __size_of_init_ssd 000C                 ?___fldiv 0070                 ?___awdiv 0020  
               ?___awmod 0028                 ?___flmul 0020                 ?___fltol 0070  
             ?__Umul8_16 0070                 ?_display 0070      read_adc@adc_reg_val 0073  
    __end_of_init_config 0EF1              ??__Umul8_16 0072         __size_of___fldiv 01E3  
       __size_of___awdiv 0069         __size_of___awmod 005B         __size_of___flmul 0361  
       __size_of___fltol 007A              _init_config 0EE6         __size_of_display 0036  
               ___xxtofl 00DE                 __ptext10 02AA                 __ptext11 0009  
               __ptext12 0F97                 _init_adc 0EDD                 _read_adc 0F1B  
          __size_of_main 0112                 _init_ssd 0EFC                 main@F858 0057  
        main@temperature 0053                 init_ram0 0F0C   __Umul8_16@multiplicand 0070  
   __Umul8_16@multiplier 0078        __Umul8_16@product 0074  
