

Microchip MPLAB XC8 Assembler V2.10 build 88905656 
                                                                                               Wed Jul  8 14:56:14 2020

Microchip MPLAB XC8 C Compiler v2.10 (Free license) build 20190730164152 Og1 
     1                           	processor	16F877A
     2                           	opt	pw 120
     3                           	opt	flic
     4                           	psect	idataBANK0,global,class=CODE,delta=2
     5                           	psect	cinit,global,class=CODE,merge=1,delta=2
     6                           	psect	bssBANK0,global,class=BANK0,space=1,delta=1
     7                           	psect	dataBANK0,global,class=BANK0,space=1,delta=1
     8                           	psect	inittext,global,class=CODE,delta=2
     9                           	psect	cstackCOMMON,global,class=COMMON,space=1,delta=1
    10                           	psect	cstackBANK0,global,class=BANK0,space=1,delta=1
    11                           	psect	maintext,global,class=CODE,split=1,delta=2
    12                           	psect	text1,local,class=CODE,merge=1,delta=2
    13                           	psect	text2,local,class=CODE,merge=1,delta=2
    14                           	psect	text3,local,class=CODE,merge=1,delta=2
    15                           	psect	text4,local,class=CODE,merge=1,delta=2
    16                           	psect	text5,local,class=CODE,merge=1,delta=2
    17                           	psect	text6,local,class=CODE,merge=1,delta=2
    18                           	psect	text7,local,class=CODE,merge=1,delta=2
    19                           	psect	text8,local,class=CODE,merge=1,delta=2,group=1
    20                           	psect	text9,local,class=CODE,merge=1,delta=2,group=1
    21                           	dabs	1,0x7E,2
    22  0000                     
    23                           ; Version 2.10
    24                           ; Generated 31/07/2019 GMT
    25                           ; 
    26                           ; Copyright © 2019, Microchip Technology Inc. and its subsidiaries ("Microchip")
    27                           ; All rights reserved.
    28                           ; 
    29                           ; This software is developed by Microchip Technology Inc. and its subsidiaries ("Microch
      +                          ip").
    30                           ; 
    31                           ; Redistribution and use in source and binary forms, with or without modification, are
    32                           ; permitted provided that the following conditions are met:
    33                           ; 
    34                           ;     1. Redistributions of source code must retain the above copyright notice, this lis
      +                          t of
    35                           ;        conditions and the following disclaimer.
    36                           ; 
    37                           ;     2. Redistributions in binary form must reproduce the above copyright notice, this 
      +                          list
    38                           ;        of conditions and the following disclaimer in the documentation and/or other
    39                           ;        materials provided with the distribution.
    40                           ; 
    41                           ;     3. Microchip's name may not be used to endorse or promote products derived from th
      +                          is
    42                           ;        software without specific prior written permission.
    43                           ; 
    44                           ; THIS SOFTWARE IS PROVIDED BY MICROCHIP "AS IS" AND ANY EXPRESS OR IMPLIED WARRANTIES,
    45                           ; INCLUDING, BUT NOT LIMITED TO, THE IMPLIED WARRANTIES OF MERCHANTABILITY AND FITNESS F
      +                          OR
    46                           ; PURPOSE ARE DISCLAIMED.  IN NO EVENT SHALL MICROCHIP BE LIABLE FOR ANY DIRECT, INDIREC
      +                          T,
    47                           ; INCIDENTAL, SPECIAL, EXEMPLARY, OR CONSEQUENTIAL DAMAGES (INCLUDING BUT NOT LIMITED TO
    48                           ; PROCUREMENT OF SUBSTITUTE GOODS OR SERVICES; LOSS OF USE, DATA OR PROFITS; OR BUSINESS
    49                           ; INTERRUPTION) HOWSOEVER CAUSED AND ON ANY THEORY OF LIABILITY, WHETHER IN CONTRACT, ST
      +                          RICT
    50                           ; LIABILITY, OR TORT (INCLUDING NEGLIGENCE OR OTHERWISE) ARISING IN ANY WAY OUT OF THE U
      +                          SE OF
    51                           ; THIS SOFTWARE, EVEN IF ADVISED OF THE POSSIBILITY OF SUCH DAMAGE.
    52                           ; 
    53                           ; 
    54                           ; Code-generator required, PIC16F877A Definitions
    55                           ; 
    56                           ; SFR Addresses
    57  0000                     	;# 
    58  0001                     	;# 
    59  0002                     	;# 
    60  0003                     	;# 
    61  0004                     	;# 
    62  0005                     	;# 
    63  0006                     	;# 
    64  0007                     	;# 
    65  0008                     	;# 
    66  0009                     	;# 
    67  000A                     	;# 
    68  000B                     	;# 
    69  000C                     	;# 
    70  000D                     	;# 
    71  000E                     	;# 
    72  000E                     	;# 
    73  000F                     	;# 
    74  0010                     	;# 
    75  0011                     	;# 
    76  0012                     	;# 
    77  0013                     	;# 
    78  0014                     	;# 
    79  0015                     	;# 
    80  0015                     	;# 
    81  0016                     	;# 
    82  0017                     	;# 
    83  0018                     	;# 
    84  0019                     	;# 
    85  001A                     	;# 
    86  001B                     	;# 
    87  001B                     	;# 
    88  001C                     	;# 
    89  001D                     	;# 
    90  001E                     	;# 
    91  001F                     	;# 
    92  0081                     	;# 
    93  0085                     	;# 
    94  0086                     	;# 
    95  0087                     	;# 
    96  0088                     	;# 
    97  0089                     	;# 
    98  008C                     	;# 
    99  008D                     	;# 
   100  008E                     	;# 
   101  0091                     	;# 
   102  0092                     	;# 
   103  0093                     	;# 
   104  0094                     	;# 
   105  0098                     	;# 
   106  0099                     	;# 
   107  009C                     	;# 
   108  009D                     	;# 
   109  009E                     	;# 
   110  009F                     	;# 
   111  010C                     	;# 
   112  010D                     	;# 
   113  010E                     	;# 
   114  010F                     	;# 
   115  018C                     	;# 
   116  018D                     	;# 
   117  0000                     	;# 
   118  0001                     	;# 
   119  0002                     	;# 
   120  0003                     	;# 
   121  0004                     	;# 
   122  0005                     	;# 
   123  0006                     	;# 
   124  0007                     	;# 
   125  0008                     	;# 
   126  0009                     	;# 
   127  000A                     	;# 
   128  000B                     	;# 
   129  000C                     	;# 
   130  000D                     	;# 
   131  000E                     	;# 
   132  000E                     	;# 
   133  000F                     	;# 
   134  0010                     	;# 
   135  0011                     	;# 
   136  0012                     	;# 
   137  0013                     	;# 
   138  0014                     	;# 
   139  0015                     	;# 
   140  0015                     	;# 
   141  0016                     	;# 
   142  0017                     	;# 
   143  0018                     	;# 
   144  0019                     	;# 
   145  001A                     	;# 
   146  001B                     	;# 
   147  001B                     	;# 
   148  001C                     	;# 
   149  001D                     	;# 
   150  001E                     	;# 
   151  001F                     	;# 
   152  0081                     	;# 
   153  0085                     	;# 
   154  0086                     	;# 
   155  0087                     	;# 
   156  0088                     	;# 
   157  0089                     	;# 
   158  008C                     	;# 
   159  008D                     	;# 
   160  008E                     	;# 
   161  0091                     	;# 
   162  0092                     	;# 
   163  0093                     	;# 
   164  0094                     	;# 
   165  0098                     	;# 
   166  0099                     	;# 
   167  009C                     	;# 
   168  009D                     	;# 
   169  009E                     	;# 
   170  009F                     	;# 
   171  010C                     	;# 
   172  010D                     	;# 
   173  010E                     	;# 
   174  010F                     	;# 
   175  018C                     	;# 
   176  018D                     	;# 
   177  0000                     	;# 
   178  0001                     	;# 
   179  0002                     	;# 
   180  0003                     	;# 
   181  0004                     	;# 
   182  0005                     	;# 
   183  0006                     	;# 
   184  0007                     	;# 
   185  0008                     	;# 
   186  0009                     	;# 
   187  000A                     	;# 
   188  000B                     	;# 
   189  000C                     	;# 
   190  000D                     	;# 
   191  000E                     	;# 
   192  000E                     	;# 
   193  000F                     	;# 
   194  0010                     	;# 
   195  0011                     	;# 
   196  0012                     	;# 
   197  0013                     	;# 
   198  0014                     	;# 
   199  0015                     	;# 
   200  0015                     	;# 
   201  0016                     	;# 
   202  0017                     	;# 
   203  0018                     	;# 
   204  0019                     	;# 
   205  001A                     	;# 
   206  001B                     	;# 
   207  001B                     	;# 
   208  001C                     	;# 
   209  001D                     	;# 
   210  001E                     	;# 
   211  001F                     	;# 
   212  0081                     	;# 
   213  0085                     	;# 
   214  0086                     	;# 
   215  0087                     	;# 
   216  0088                     	;# 
   217  0089                     	;# 
   218  008C                     	;# 
   219  008D                     	;# 
   220  008E                     	;# 
   221  0091                     	;# 
   222  0092                     	;# 
   223  0093                     	;# 
   224  0094                     	;# 
   225  0098                     	;# 
   226  0099                     	;# 
   227  009C                     	;# 
   228  009D                     	;# 
   229  009E                     	;# 
   230  009F                     	;# 
   231  010C                     	;# 
   232  010D                     	;# 
   233  010E                     	;# 
   234  010F                     	;# 
   235  018C                     	;# 
   236  018D                     	;# 
   237  0000                     	;# 
   238  0001                     	;# 
   239  0002                     	;# 
   240  0003                     	;# 
   241  0004                     	;# 
   242  0005                     	;# 
   243  0006                     	;# 
   244  0007                     	;# 
   245  0008                     	;# 
   246  0009                     	;# 
   247  000A                     	;# 
   248  000B                     	;# 
   249  000C                     	;# 
   250  000D                     	;# 
   251  000E                     	;# 
   252  000E                     	;# 
   253  000F                     	;# 
   254  0010                     	;# 
   255  0011                     	;# 
   256  0012                     	;# 
   257  0013                     	;# 
   258  0014                     	;# 
   259  0015                     	;# 
   260  0015                     	;# 
   261  0016                     	;# 
   262  0017                     	;# 
   263  0018                     	;# 
   264  0019                     	;# 
   265  001A                     	;# 
   266  001B                     	;# 
   267  001B                     	;# 
   268  001C                     	;# 
   269  001D                     	;# 
   270  001E                     	;# 
   271  001F                     	;# 
   272  0081                     	;# 
   273  0085                     	;# 
   274  0086                     	;# 
   275  0087                     	;# 
   276  0088                     	;# 
   277  0089                     	;# 
   278  008C                     	;# 
   279  008D                     	;# 
   280  008E                     	;# 
   281  0091                     	;# 
   282  0092                     	;# 
   283  0093                     	;# 
   284  0094                     	;# 
   285  0098                     	;# 
   286  0099                     	;# 
   287  009C                     	;# 
   288  009D                     	;# 
   289  009E                     	;# 
   290  009F                     	;# 
   291  010C                     	;# 
   292  010D                     	;# 
   293  010E                     	;# 
   294  010F                     	;# 
   295  018C                     	;# 
   296  018D                     	;# 
   297  0000                     	;# 
   298  0001                     	;# 
   299  0002                     	;# 
   300  0003                     	;# 
   301  0004                     	;# 
   302  0005                     	;# 
   303  0006                     	;# 
   304  0007                     	;# 
   305  0008                     	;# 
   306  0009                     	;# 
   307  000A                     	;# 
   308  000B                     	;# 
   309  000C                     	;# 
   310  000D                     	;# 
   311  000E                     	;# 
   312  000E                     	;# 
   313  000F                     	;# 
   314  0010                     	;# 
   315  0011                     	;# 
   316  0012                     	;# 
   317  0013                     	;# 
   318  0014                     	;# 
   319  0015                     	;# 
   320  0015                     	;# 
   321  0016                     	;# 
   322  0017                     	;# 
   323  0018                     	;# 
   324  0019                     	;# 
   325  001A                     	;# 
   326  001B                     	;# 
   327  001B                     	;# 
   328  001C                     	;# 
   329  001D                     	;# 
   330  001E                     	;# 
   331  001F                     	;# 
   332  0081                     	;# 
   333  0085                     	;# 
   334  0086                     	;# 
   335  0087                     	;# 
   336  0088                     	;# 
   337  0089                     	;# 
   338  008C                     	;# 
   339  008D                     	;# 
   340  008E                     	;# 
   341  0091                     	;# 
   342  0092                     	;# 
   343  0093                     	;# 
   344  0094                     	;# 
   345  0098                     	;# 
   346  0099                     	;# 
   347  009C                     	;# 
   348  009D                     	;# 
   349  009E                     	;# 
   350  009F                     	;# 
   351  010C                     	;# 
   352  010D                     	;# 
   353  010E                     	;# 
   354  010F                     	;# 
   355  018C                     	;# 
   356  018D                     	;# 
   357  0000                     	;# 
   358  0001                     	;# 
   359  0002                     	;# 
   360  0003                     	;# 
   361  0004                     	;# 
   362  0005                     	;# 
   363  0006                     	;# 
   364  0007                     	;# 
   365  0008                     	;# 
   366  0009                     	;# 
   367  000A                     	;# 
   368  000B                     	;# 
   369  000C                     	;# 
   370  000D                     	;# 
   371  000E                     	;# 
   372  000E                     	;# 
   373  000F                     	;# 
   374  0010                     	;# 
   375  0011                     	;# 
   376  0012                     	;# 
   377  0013                     	;# 
   378  0014                     	;# 
   379  0015                     	;# 
   380  0015                     	;# 
   381  0016                     	;# 
   382  0017                     	;# 
   383  0018                     	;# 
   384  0019                     	;# 
   385  001A                     	;# 
   386  001B                     	;# 
   387  001B                     	;# 
   388  001C                     	;# 
   389  001D                     	;# 
   390  001E                     	;# 
   391  001F                     	;# 
   392  0081                     	;# 
   393  0085                     	;# 
   394  0086                     	;# 
   395  0087                     	;# 
   396  0088                     	;# 
   397  0089                     	;# 
   398  008C                     	;# 
   399  008D                     	;# 
   400  008E                     	;# 
   401  0091                     	;# 
   402  0092                     	;# 
   403  0093                     	;# 
   404  0094                     	;# 
   405  0098                     	;# 
   406  0099                     	;# 
   407  009C                     	;# 
   408  009D                     	;# 
   409  009E                     	;# 
   410  009F                     	;# 
   411  010C                     	;# 
   412  010D                     	;# 
   413  010E                     	;# 
   414  010F                     	;# 
   415  018C                     	;# 
   416  018D                     	;# 
   417                           
   418                           	psect	idataBANK0
   419  0549                     __pidataBANK0:	
   420                           
   421                           ;initializer for main@F864
   422  0549  343F               	retlw	63
   423  054A  3406               	retlw	6
   424  054B  345B               	retlw	91
   425  054C  344F               	retlw	79
   426  054D  3466               	retlw	102
   427  054E  346D               	retlw	109
   428  054F  347D               	retlw	125
   429  0550  3407               	retlw	7
   430  0551  347F               	retlw	127
   431  0552  346F               	retlw	111
   432                           
   433                           ;initializer for read_digital_keypad@once
   434  0553  3401               	retlw	1
   435  000B                     _INTCONbits	set	11
   436  0003                     _STATUSbits	set	3
   437  0006                     _PORTB	set	6
   438  0008                     _PORTD	set	8
   439  0005                     _PORTA	set	5
   440  0086                     _TRISB	set	134
   441  0085                     _TRISA	set	133
   442  0088                     _TRISD	set	136
   443  010C                     _EEDATA	set	268
   444  010D                     _EEADR	set	269
   445  018D                     _EECON2	set	397
   446  018C                     _EECON1	set	396
   447  018C                     _EECON1bits	set	396
   448                           
   449                           ; #config settings
   450  0000                     
   451                           	psect	cinit
   452  07EC                     start_initialization:	
   453  07EC                     __initialization:	
   454                           
   455                           ; Initialize objects allocated to BANK0
   456  07EC  1383               	bcf	3,7	;select IRP bank0
   457  07ED  3047               	movlw	low (__pdataBANK0+11)
   458  07EE  00FD               	movwf	btemp+-1
   459  07EF  3005               	movlw	high __pidataBANK0
   460  07F0  00FE               	movwf	btemp
   461  07F1  3049               	movlw	low __pidataBANK0
   462  07F2  00FF               	movwf	btemp+1
   463  07F3  303C               	movlw	low __pdataBANK0
   464  07F4  0084               	movwf	4
   465  07F5  120A  118A  2564  120A  118A  	fcall	init_ram0
   466                           
   467                           ; Clear objects allocated to BANK0
   468  07FA  01C7               	clrf	__pbssBANK0& (0+127)
   469  07FB  01C8               	clrf	(__pbssBANK0+1)& (0+127)
   470  07FC                     end_of_initialization:	
   471                           ;End of C runtime variable initialization code
   472                           
   473  07FC                     __end_of__initialization:	
   474  07FC  0183               	clrf	3
   475  07FD  120A  118A  2E95   	ljmp	_main	;jump to C main() function
   476                           
   477                           	psect	bssBANK0
   478  0047                     __pbssBANK0:	
   479  0047                     _count1:	
   480  0047                     	ds	2
   481                           
   482                           	psect	dataBANK0
   483  003C                     __pdataBANK0:	
   484  003C                     main@F864:	
   485  003C                     	ds	10
   486  0046                     read_digital_keypad@once:	
   487  0046                     	ds	1
   488                           
   489                           	psect	inittext
   490  0560                     init_fetch0:	
   491                           ;	Called with low address in FSR and high address in W
   492                           
   493  0560  087E               	movf	btemp,w
   494  0561  008A               	movwf	10
   495  0562  087F               	movf	btemp+1,w
   496  0563  0082               	movwf	2
   497  0564                     init_ram0:	
   498                           ;Called with:
   499                           ;	high address of idata address in btemp 
   500                           ;	low address of idata address in btemp+1 
   501                           ;	low address of data in FSR
   502                           ;	high address + 1 of data in btemp-1
   503                           
   504  0564  120A  118A  2560  120A  118A  	fcall	init_fetch0
   505  0569  0080               	movwf	0
   506  056A  0A84               	incf	4,f
   507  056B  0804               	movf	4,w
   508  056C  067D               	xorwf	btemp+-1,w
   509  056D  1903               	btfsc	3,2
   510  056E  3400               	retlw	0
   511  056F  0AFF               	incf	btemp+1,f
   512  0570  1903               	btfsc	3,2
   513  0571  0AFE               	incf	btemp,f
   514  0572  2D64               	goto	init_ram0
   515                           
   516                           	psect	cstackCOMMON
   517  0070                     __pcstackCOMMON:	
   518  0070                     ?_eeprom_write:	
   519  0070                     ?_eeprom_read:	
   520                           ; 1 bytes @ 0x0
   521                           
   522  0070                     ??_eeprom_read:	
   523                           ; 1 bytes @ 0x0
   524                           
   525  0070                     ?_init_ssd:	
   526                           ; 1 bytes @ 0x0
   527                           
   528  0070                     ??_init_ssd:	
   529                           ; 1 bytes @ 0x0
   530                           
   531  0070                     ?_display:	
   532                           ; 1 bytes @ 0x0
   533                           
   534  0070                     ??_display:	
   535                           ; 1 bytes @ 0x0
   536                           
   537  0070                     ?_init_digital_keypad:	
   538                           ; 1 bytes @ 0x0
   539                           
   540  0070                     ??_init_digital_keypad:	
   541                           ; 1 bytes @ 0x0
   542                           
   543  0070                     ?_read_digital_keypad:	
   544                           ; 1 bytes @ 0x0
   545                           
   546  0070                     ??_read_digital_keypad:	
   547                           ; 1 bytes @ 0x0
   548                           
   549  0070                     ?_init_config:	
   550                           ; 1 bytes @ 0x0
   551                           
   552  0070                     ??_init_config:	
   553                           ; 1 bytes @ 0x0
   554                           
   555  0070                     ?_main:	
   556                           ; 1 bytes @ 0x0
   557                           
   558  0070                     ?___lwdiv:	
   559                           ; 1 bytes @ 0x0
   560                           
   561  0070                     eeprom_write@value:	
   562                           ; 2 bytes @ 0x0
   563                           
   564  0070                     ___lwdiv@divisor:	
   565                           ; 1 bytes @ 0x0
   566                           
   567                           
   568                           ; 2 bytes @ 0x0
   569  0070                     	ds	1
   570  0071                     ??_eeprom_write:	
   571  0071                     read_digital_keypad@mode:	
   572                           ; 1 bytes @ 0x1
   573                           
   574  0071                     eeprom_read@addr:	
   575                           ; 1 bytes @ 0x1
   576                           
   577  0071                     display@i:	
   578                           ; 1 bytes @ 0x1
   579                           
   580                           
   581                           ; 2 bytes @ 0x1
   582  0071                     	ds	1
   583  0072                     eeprom_write@addr:	
   584  0072                     ___lwdiv@dividend:	
   585                           ; 1 bytes @ 0x2
   586                           
   587                           
   588                           ; 2 bytes @ 0x2
   589  0072                     	ds	1
   590  0073                     display@data:	
   591                           
   592                           ; 1 bytes @ 0x3
   593  0073                     	ds	1
   594  0074                     ??___lwdiv:	
   595  0074                     display@digit:	
   596                           ; 1 bytes @ 0x4
   597                           
   598                           
   599                           ; 1 bytes @ 0x4
   600  0074                     	ds	1
   601  0075                     ___lwdiv@quotient:	
   602                           
   603                           ; 2 bytes @ 0x5
   604  0075                     	ds	2
   605  0077                     ___lwdiv@counter:	
   606                           
   607                           ; 1 bytes @ 0x7
   608  0077                     	ds	1
   609  0078                     ?___lwmod:	
   610  0078                     ___lwmod@divisor:	
   611                           ; 2 bytes @ 0x8
   612                           
   613                           
   614                           ; 2 bytes @ 0x8
   615  0078                     	ds	2
   616  007A                     ___lwmod@dividend:	
   617                           
   618                           ; 2 bytes @ 0xA
   619  007A                     	ds	2
   620  007C                     ??___lwmod:	
   621                           
   622                           ; 1 bytes @ 0xC
   623  007C                     	ds	1
   624  007D                     ___lwmod@counter:	
   625                           
   626                           ; 1 bytes @ 0xD
   627  007D                     	ds	1
   628                           
   629                           	psect	cstackBANK0
   630  0020                     __pcstackBANK0:	
   631  0020                     ??_main:	
   632                           
   633                           ; 1 bytes @ 0x0
   634  0020                     	ds	4
   635  0024                     main@digit:	
   636                           
   637                           ; 10 bytes @ 0x4
   638  0024                     	ds	10
   639  002E                     main@ssd:	
   640                           
   641                           ; 4 bytes @ 0xE
   642  002E                     	ds	4
   643  0032                     main@wait:	
   644                           
   645                           ; 2 bytes @ 0x12
   646  0032                     	ds	2
   647  0034                     main@start:	
   648                           
   649                           ; 2 bytes @ 0x14
   650  0034                     	ds	2
   651  0036                     main@prev_count:	
   652                           
   653                           ; 1 bytes @ 0x16
   654  0036                     	ds	1
   655  0037                     main@long_press:	
   656                           
   657                           ; 1 bytes @ 0x17
   658  0037                     	ds	1
   659  0038                     main@check:	
   660                           
   661                           ; 1 bytes @ 0x18
   662  0038                     	ds	1
   663  0039                     main@key:	
   664                           
   665                           ; 1 bytes @ 0x19
   666  0039                     	ds	1
   667  003A                     main@count1:	
   668                           
   669                           ; 2 bytes @ 0x1A
   670  003A                     	ds	2
   671                           
   672                           	psect	maintext
   673  0695                     __pmaintext:	
   674 ;;
   675 ;;Main: autosize = 0, tempsize = 4, incstack = 0, save=0
   676 ;;
   677 ;; *************** function _main *****************
   678 ;; Defined at:
   679 ;;		line 23 in file "main.c"
   680 ;; Parameters:    Size  Location     Type
   681 ;;		None
   682 ;; Auto vars:     Size  Location     Type
   683 ;;  digit          10    4[BANK0 ] unsigned char [10]
   684 ;;  ssd             4   14[BANK0 ] unsigned char [4]
   685 ;;  count1          2   26[BANK0 ] unsigned int 
   686 ;;  start           2   20[BANK0 ] unsigned int 
   687 ;;  wait            2   18[BANK0 ] unsigned int 
   688 ;;  key             1   25[BANK0 ] unsigned char 
   689 ;;  check           1   24[BANK0 ] unsigned char 
   690 ;;  long_press      1   23[BANK0 ] unsigned char 
   691 ;;  prev_count      1   22[BANK0 ] unsigned char 
   692 ;; Return value:  Size  Location     Type
   693 ;;                  1    wreg      void 
   694 ;; Registers used:
   695 ;;		wreg, fsr0l, fsr0h, status,2, status,0, pclath, cstack
   696 ;; Tracked objects:
   697 ;;		On entry : B00/0
   698 ;;		On exit  : 0/0
   699 ;;		Unchanged: 0/0
   700 ;; Data sizes:     COMMON   BANK0   BANK1   BANK3   BANK2
   701 ;;      Params:         0       0       0       0       0
   702 ;;      Locals:         0      24       0       0       0
   703 ;;      Temps:          0       4       0       0       0
   704 ;;      Totals:         0      28       0       0       0
   705 ;;Total ram usage:       28 bytes
   706 ;; Hardware stack levels required when called:    2
   707 ;; This function calls:
   708 ;;		___lwdiv
   709 ;;		___lwmod
   710 ;;		_display
   711 ;;		_eeprom_read
   712 ;;		_eeprom_write
   713 ;;		_init_config
   714 ;;		_read_digital_keypad
   715 ;; This function is called by:
   716 ;;		Startup code after reset
   717 ;; This function uses a non-reentrant model
   718 ;;
   719                           
   720                           
   721                           ;psect for function _main
   722  0695                     _main:	
   723  0695                     l1007:	
   724                           ;incstack = 0
   725                           ; Regs used in _main: [wreg-fsr0h+status,2+status,0+pclath+cstack]
   726                           
   727                           
   728                           ;main.c: 24:             {
   729  0695  1283               	bcf	3,5	;RP0=0, select bank0
   730  0696  1303               	bcf	3,6	;RP1=0, select bank0
   731  0697  01B6               	clrf	main@prev_count
   732  0698  0AB6               	incf	main@prev_count,f
   733  0699                     l1009:	
   734  0699  01B7               	clrf	main@long_press
   735                           
   736                           ;main.c: 25:                 wait = 100;
   737  069A  01BA               	clrf	main@count1
   738  069B  01BB               	clrf	main@count1+1
   739  069C                     l1011:	
   740                           
   741                           ;main.c: 26:                 count1++;
   742  069C  3024               	movlw	main@digit& (0+255)
   743  069D  0084               	movwf	4
   744  069E  303C               	movlw	low main@F864
   745  069F  00A0               	movwf	??_main
   746  06A0  0804               	movf	4,w
   747  06A1  00A1               	movwf	??_main+1
   748  06A2  300A               	movlw	10
   749  06A3  00A2               	movwf	??_main+2
   750  06A4                     u580:	
   751  06A4  0820               	movf	??_main,w
   752  06A5  0084               	movwf	4
   753  06A6  1383               	bcf	3,7	;select IRP bank0
   754  06A7  0800               	movf	0,w
   755  06A8  00A3               	movwf	??_main+3
   756  06A9  0AA0               	incf	??_main,f
   757  06AA  0821               	movf	??_main+1,w
   758  06AB  0084               	movwf	4
   759  06AC  0823               	movf	??_main+3,w
   760  06AD  0080               	movwf	0
   761  06AE  0AA1               	incf	??_main+1,f
   762  06AF  0BA2               	decfsz	??_main+2,f
   763  06B0  2EA4               	goto	u580
   764  06B1                     l1013:	
   765                           
   766                           ;main.c: 27:             };main.c: 28:         }
   767  06B1  01B2               	clrf	main@wait
   768  06B2  01B3               	clrf	main@wait+1
   769  06B3                     l1015:	
   770  06B3  01B4               	clrf	main@start
   771  06B4  01B5               	clrf	main@start+1
   772  06B5                     l1017:	
   773                           
   774                           ;main.c: 29:         if(key == 0x3D)
   775  06B5  120A  118A  253E  120A  118A  	fcall	_init_config
   776  06BA                     l1019:	
   777                           
   778                           ;main.c: 34:                 long_press = 0;
   779  06BA  3000               	movlw	0
   780  06BB  120A  118A  258A  120A  118A  	fcall	_read_digital_keypad
   781  06C0  1283               	bcf	3,5	;RP0=0, select bank0
   782  06C1  1303               	bcf	3,6	;RP1=0, select bank0
   783  06C2  00A0               	movwf	??_main
   784  06C3  0820               	movf	??_main,w
   785  06C4  00B9               	movwf	main@key
   786  06C5                     l1021:	
   787                           
   788                           ;main.c: 36:             }
   789  06C5  303E               	movlw	62
   790  06C6  0639               	xorwf	main@key,w
   791  06C7  1D03               	btfss	3,2
   792  06C8  2ECA               	goto	u591
   793  06C9  2ECB               	goto	u590
   794  06CA                     u591:	
   795  06CA  2EE3               	goto	l1027
   796  06CB                     u590:	
   797  06CB                     l1023:	
   798                           
   799                           ;main.c: 37:             eeprom_write(0x00, (count1 | 0x00));;main.c: 38:             ee
      +                          prom_write(0x01, (count1 >> 8) | 0x00);
   800  06CB  3001               	movlw	1
   801  06CC  02B2               	subwf	main@wait,f
   802  06CD  3000               	movlw	0
   803  06CE  1C03               	skipc
   804  06CF  03B3               	decf	main@wait+1,f
   805  06D0  02B3               	subwf	main@wait+1,f
   806  06D1  0A32               	incf	main@wait,w
   807  06D2  1D03               	skipz
   808  06D3  2ED8               	goto	u601
   809  06D4  0A33               	incf	main@wait+1,w
   810  06D5  1D03               	btfss	3,2
   811  06D6  2ED8               	goto	u601
   812  06D7  2ED9               	goto	u600
   813  06D8                     u601:	
   814  06D8  2EE3               	goto	l1027
   815  06D9                     u600:	
   816  06D9                     l1025:	
   817                           
   818                           ;main.c: 39: ;main.c: 40:             eeprom_write(0x02, 1);
   819  06D9  3064               	movlw	100
   820  06DA  00B2               	movwf	main@wait
   821  06DB  3000               	movlw	0
   822  06DC  00B3               	movwf	main@wait+1
   823                           
   824                           ;main.c: 41:         }
   825  06DD  3001               	movlw	1
   826  06DE  07BA               	addwf	main@count1,f
   827  06DF  1803               	skipnc
   828  06E0  0ABB               	incf	main@count1+1,f
   829  06E1  3000               	movlw	0
   830  06E2  07BB               	addwf	main@count1+1,f
   831  06E3                     l1027:	
   832                           
   833                           ;main.c: 44:         {
   834  06E3  303D               	movlw	61
   835  06E4  0639               	xorwf	main@key,w
   836  06E5  1D03               	btfss	3,2
   837  06E6  2EE8               	goto	u611
   838  06E7  2EE9               	goto	u610
   839  06E8                     u611:	
   840  06E8  2F15               	goto	l1039
   841  06E9                     u610:	
   842  06E9                     l1029:	
   843                           
   844                           ;main.c: 45:             count1 = ((eeprom_read(0x01) << 8) |count1) |(eeprom_read(0x00)
      +                          );;main.c: 47:             start = 1;
   845  06E9  3001               	movlw	1
   846  06EA  00A0               	movwf	??_main
   847  06EB  0820               	movf	??_main,w
   848  06EC  07B7               	addwf	main@long_press,f
   849  06ED  30C9               	movlw	201
   850  06EE  0637               	xorwf	main@long_press,w
   851  06EF  1D03               	btfss	3,2
   852  06F0  2EF2               	goto	u621
   853  06F1  2EF3               	goto	u620
   854  06F2                     u621:	
   855  06F2  2EF6               	goto	l1033
   856  06F3                     u620:	
   857  06F3                     l1031:	
   858                           
   859                           ;main.c: 48:         };main.c: 49:            if(count1 != prev_count)
   860  06F3  01B7               	clrf	main@long_press
   861                           
   862                           ;main.c: 50:             {
   863  06F4  01BA               	clrf	main@count1
   864  06F5  01BB               	clrf	main@count1+1
   865  06F6                     l1033:	
   866                           
   867                           ;main.c: 52:                 ssd[0] = digit[(count1/1000) % 10];
   868  06F6  083A               	movf	main@count1,w
   869  06F7  00A0               	movwf	??_main
   870  06F8  0820               	movf	??_main,w
   871  06F9  00F0               	movwf	eeprom_write@value
   872  06FA  3000               	movlw	0
   873  06FB  120A  118A  25B4  120A  118A  	fcall	_eeprom_write
   874  0700                     l1035:	
   875                           
   876                           ;main.c: 53:                 ssd[1] = digit[(count1/100) % 10];
   877  0700  1283               	bcf	3,5	;RP0=0, select bank0
   878  0701  1303               	bcf	3,6	;RP1=0, select bank0
   879  0702  083B               	movf	main@count1+1,w
   880  0703  00A0               	movwf	??_main
   881  0704  0820               	movf	??_main,w
   882  0705  00F0               	movwf	eeprom_write@value
   883  0706  3001               	movlw	1
   884  0707  120A  118A  25B4  120A  118A  	fcall	_eeprom_write
   885  070C                     l1037:	
   886                           
   887                           ;main.c: 55:                 ssd[3] = digit[(count1/1) % 10];
   888  070C  01F0               	clrf	eeprom_write@value
   889  070D  0AF0               	incf	eeprom_write@value,f
   890  070E  3002               	movlw	2
   891  070F  120A  118A  25B4  120A  118A  	fcall	_eeprom_write
   892                           
   893                           ;main.c: 56:                 prev_count = count1;
   894  0714  2F4C               	goto	l1051
   895  0715                     l1039:	
   896  0715  3002               	movlw	2
   897  0716  120A  118A  2573  120A  118A  	fcall	_eeprom_read
   898  071B  1283               	bcf	3,5	;RP0=0, select bank0
   899  071C  1303               	bcf	3,6	;RP1=0, select bank0
   900  071D  00A0               	movwf	??_main
   901  071E  0820               	movf	??_main,w
   902  071F  00B8               	movwf	main@check
   903  0720  0838               	movf	main@check,w
   904  0721  1903               	btfsc	3,2
   905  0722  2F24               	goto	u631
   906  0723  2F25               	goto	u630
   907  0724                     u631:	
   908  0724  2F4C               	goto	l1051
   909  0725                     u630:	
   910  0725                     l1041:	
   911  0725  0338               	decf	main@check,w
   912  0726  1D03               	btfss	3,2
   913  0727  2F29               	goto	u641
   914  0728  2F2A               	goto	u640
   915  0729                     u641:	
   916  0729  2F4C               	goto	l1051
   917  072A                     u640:	
   918  072A                     l1043:	
   919  072A  0834               	movf	main@start,w
   920  072B  0435               	iorwf	main@start+1,w
   921  072C  1D03               	btfss	3,2
   922  072D  2F2F               	goto	u651
   923  072E  2F30               	goto	u650
   924  072F                     u651:	
   925  072F  2F4C               	goto	l1051
   926  0730                     u650:	
   927  0730                     l1045:	
   928                           
   929                           ;main.c: 59:         display(ssd);;main.c: 60:     }
   930  0730  3000               	movlw	0
   931  0731  120A  118A  2573  120A  118A  	fcall	_eeprom_read
   932  0736  1283               	bcf	3,5	;RP0=0, select bank0
   933  0737  1303               	bcf	3,6	;RP1=0, select bank0
   934  0738  00A0               	movwf	??_main
   935  0739  3001               	movlw	1
   936  073A  120A  118A  2573  120A  118A  	fcall	_eeprom_read
   937  073F  1283               	bcf	3,5	;RP0=0, select bank0
   938  0740  1303               	bcf	3,6	;RP1=0, select bank0
   939  0741  00A1               	movwf	??_main+1
   940  0742  083A               	movf	main@count1,w
   941  0743  0420               	iorwf	??_main,w
   942  0744  00BA               	movwf	main@count1
   943  0745  083B               	movf	main@count1+1,w
   944  0746  0421               	iorwf	??_main+1,w
   945  0747  00BB               	movwf	main@count1+1
   946  0748                     l1047:	
   947  0748                     l1049:	
   948                           
   949                           ;main.c: 62: }
   950  0748  3001               	movlw	1
   951  0749  00B4               	movwf	main@start
   952  074A  3000               	movlw	0
   953  074B  00B5               	movwf	main@start+1
   954  074C                     l1051:	
   955  074C  1283               	bcf	3,5	;RP0=0, select bank0
   956  074D  1303               	bcf	3,6	;RP1=0, select bank0
   957  074E  0836               	movf	main@prev_count,w
   958  074F  00A0               	movwf	??_main
   959  0750  01A1               	clrf	??_main+1
   960  0751  083B               	movf	main@count1+1,w
   961  0752  0621               	xorwf	??_main+1,w
   962  0753  1D03               	skipz
   963  0754  2F57               	goto	u665
   964  0755  083A               	movf	main@count1,w
   965  0756  0620               	xorwf	??_main,w
   966  0757                     u665:	
   967  0757  1903               	skipnz
   968  0758  2F5A               	goto	u661
   969  0759  2F5B               	goto	u660
   970  075A                     u661:	
   971  075A  2FE2               	goto	l1057
   972  075B                     u660:	
   973  075B                     l1053:	
   974  075B  300A               	movlw	10
   975  075C  00F8               	movwf	___lwmod@divisor
   976  075D  3000               	movlw	0
   977  075E  00F9               	movwf	___lwmod@divisor+1
   978  075F  30E8               	movlw	232
   979  0760  00F0               	movwf	___lwdiv@divisor
   980  0761  3003               	movlw	3
   981  0762  00F1               	movwf	___lwdiv@divisor+1
   982  0763  083B               	movf	main@count1+1,w
   983  0764  00F3               	movwf	___lwdiv@dividend+1
   984  0765  083A               	movf	main@count1,w
   985  0766  00F2               	movwf	___lwdiv@dividend
   986  0767  120A  118A  2651  120A  118A  	fcall	___lwdiv
   987  076C  0871               	movf	?___lwdiv+1,w
   988  076D  00FB               	movwf	___lwmod@dividend+1
   989  076E  0870               	movf	?___lwdiv,w
   990  076F  00FA               	movwf	___lwmod@dividend
   991  0770  120A  118A  2617  120A  118A  	fcall	___lwmod
   992  0775  0878               	movf	?___lwmod,w
   993  0776  3E24               	addlw	(low (main@digit| 0))& (0+255)
   994  0777  0084               	movwf	4
   995  0778  1383               	bcf	3,7	;select IRP bank0
   996  0779  0800               	movf	0,w
   997  077A  1283               	bcf	3,5	;RP0=0, select bank0
   998  077B  1303               	bcf	3,6	;RP1=0, select bank0
   999  077C  00A0               	movwf	??_main
  1000  077D  0820               	movf	??_main,w
  1001  077E  00AE               	movwf	main@ssd
  1002  077F  300A               	movlw	10
  1003  0780  00F8               	movwf	___lwmod@divisor
  1004  0781  3000               	movlw	0
  1005  0782  00F9               	movwf	___lwmod@divisor+1
  1006  0783  3064               	movlw	100
  1007  0784  00F0               	movwf	___lwdiv@divisor
  1008  0785  3000               	movlw	0
  1009  0786  00F1               	movwf	___lwdiv@divisor+1
  1010  0787  083B               	movf	main@count1+1,w
  1011  0788  00F3               	movwf	___lwdiv@dividend+1
  1012  0789  083A               	movf	main@count1,w
  1013  078A  00F2               	movwf	___lwdiv@dividend
  1014  078B  120A  118A  2651  120A  118A  	fcall	___lwdiv
  1015  0790  0871               	movf	?___lwdiv+1,w
  1016  0791  00FB               	movwf	___lwmod@dividend+1
  1017  0792  0870               	movf	?___lwdiv,w
  1018  0793  00FA               	movwf	___lwmod@dividend
  1019  0794  120A  118A  2617  120A  118A  	fcall	___lwmod
  1020  0799  0878               	movf	?___lwmod,w
  1021  079A  3E24               	addlw	(low (main@digit| 0))& (0+255)
  1022  079B  0084               	movwf	4
  1023  079C  1383               	bcf	3,7	;select IRP bank0
  1024  079D  0800               	movf	0,w
  1025  079E  1283               	bcf	3,5	;RP0=0, select bank0
  1026  079F  1303               	bcf	3,6	;RP1=0, select bank0
  1027  07A0  00A0               	movwf	??_main
  1028  07A1  0820               	movf	??_main,w
  1029  07A2  00AF               	movwf	main@ssd+1
  1030  07A3  300A               	movlw	10
  1031  07A4  00F8               	movwf	___lwmod@divisor
  1032  07A5  3000               	movlw	0
  1033  07A6  00F9               	movwf	___lwmod@divisor+1
  1034  07A7  300A               	movlw	10
  1035  07A8  00F0               	movwf	___lwdiv@divisor
  1036  07A9  3000               	movlw	0
  1037  07AA  00F1               	movwf	___lwdiv@divisor+1
  1038  07AB  083B               	movf	main@count1+1,w
  1039  07AC  00F3               	movwf	___lwdiv@dividend+1
  1040  07AD  083A               	movf	main@count1,w
  1041  07AE  00F2               	movwf	___lwdiv@dividend
  1042  07AF  120A  118A  2651  120A  118A  	fcall	___lwdiv
  1043  07B4  0871               	movf	?___lwdiv+1,w
  1044  07B5  00FB               	movwf	___lwmod@dividend+1
  1045  07B6  0870               	movf	?___lwdiv,w
  1046  07B7  00FA               	movwf	___lwmod@dividend
  1047  07B8  120A  118A  2617  120A  118A  	fcall	___lwmod
  1048  07BD  0878               	movf	?___lwmod,w
  1049  07BE  3E24               	addlw	(low (main@digit| 0))& (0+255)
  1050  07BF  0084               	movwf	4
  1051  07C0  1383               	bcf	3,7	;select IRP bank0
  1052  07C1  0800               	movf	0,w
  1053  07C2  1283               	bcf	3,5	;RP0=0, select bank0
  1054  07C3  1303               	bcf	3,6	;RP1=0, select bank0
  1055  07C4  00A0               	movwf	??_main
  1056  07C5  0820               	movf	??_main,w
  1057  07C6  00B0               	movwf	main@ssd+2
  1058  07C7  300A               	movlw	10
  1059  07C8  00F8               	movwf	___lwmod@divisor
  1060  07C9  3000               	movlw	0
  1061  07CA  00F9               	movwf	___lwmod@divisor+1
  1062  07CB  083B               	movf	main@count1+1,w
  1063  07CC  00FB               	movwf	___lwmod@dividend+1
  1064  07CD  083A               	movf	main@count1,w
  1065  07CE  00FA               	movwf	___lwmod@dividend
  1066  07CF  120A  118A  2617  120A  118A  	fcall	___lwmod
  1067  07D4  0878               	movf	?___lwmod,w
  1068  07D5  3E24               	addlw	(low (main@digit| 0))& (0+255)
  1069  07D6  0084               	movwf	4
  1070  07D7  1383               	bcf	3,7	;select IRP bank0
  1071  07D8  0800               	movf	0,w
  1072  07D9  1283               	bcf	3,5	;RP0=0, select bank0
  1073  07DA  1303               	bcf	3,6	;RP1=0, select bank0
  1074  07DB  00A0               	movwf	??_main
  1075  07DC  0820               	movf	??_main,w
  1076  07DD  00B1               	movwf	main@ssd+3
  1077  07DE                     l1055:	
  1078  07DE  083A               	movf	main@count1,w
  1079  07DF  00A0               	movwf	??_main
  1080  07E0  0820               	movf	??_main,w
  1081  07E1  00B6               	movwf	main@prev_count
  1082  07E2                     l1057:	
  1083  07E2  302E               	movlw	(low (main@ssd| 0))& (0+255)
  1084  07E3  120A  118A  25E1  120A  118A  	fcall	_display
  1085  07E8  2EBA               	goto	l1019
  1086  07E9  120A  118A  2800   	ljmp	start
  1087  07EC                     __end_of_main:	
  1088                           
  1089                           	psect	text1
  1090  058A                     __ptext1:	
  1091 ;; *************** function _read_digital_keypad *****************
  1092 ;; Defined at:
  1093 ;;		line 10 in file "digital_keypad.c"
  1094 ;; Parameters:    Size  Location     Type
  1095 ;;  mode            1    wreg     unsigned char 
  1096 ;; Auto vars:     Size  Location     Type
  1097 ;;  mode            1    1[COMMON] unsigned char 
  1098 ;; Return value:  Size  Location     Type
  1099 ;;                  1    wreg      unsigned char 
  1100 ;; Registers used:
  1101 ;;		wreg, status,2, status,0
  1102 ;; Tracked objects:
  1103 ;;		On entry : 0/0
  1104 ;;		On exit  : 0/0
  1105 ;;		Unchanged: 0/0
  1106 ;; Data sizes:     COMMON   BANK0   BANK1   BANK3   BANK2
  1107 ;;      Params:         0       0       0       0       0
  1108 ;;      Locals:         1       0       0       0       0
  1109 ;;      Temps:          1       0       0       0       0
  1110 ;;      Totals:         2       0       0       0       0
  1111 ;;Total ram usage:        2 bytes
  1112 ;; Hardware stack levels used:    1
  1113 ;; This function calls:
  1114 ;;		Nothing
  1115 ;; This function is called by:
  1116 ;;		_main
  1117 ;; This function uses a non-reentrant model
  1118 ;;
  1119                           
  1120                           
  1121                           ;psect for function _read_digital_keypad
  1122  058A                     _read_digital_keypad:	
  1123                           
  1124                           ;incstack = 0
  1125                           ; Regs used in _read_digital_keypad: [wreg+status,2+status,0]
  1126                           ;read_digital_keypad@mode stored from wreg
  1127  058A  00F1               	movwf	read_digital_keypad@mode
  1128  058B                     l905:	
  1129                           
  1130                           ;digital_keypad.c: 10: unsigned char read_digital_keypad(unsigned char mode);digital_key
      +                          pad.c: 11: {;digital_keypad.c: 12:     static unsigned char once = 1;;digital_keypad.c: 
      +                          14:     if (mode == 0)
  1131  058B  0871               	movf	read_digital_keypad@mode,w
  1132  058C  1D03               	btfss	3,2
  1133  058D  2D8F               	goto	u371
  1134  058E  2D90               	goto	u370
  1135  058F                     u371:	
  1136  058F  2D95               	goto	l913
  1137  0590                     u370:	
  1138  0590                     l907:	
  1139                           
  1140                           ;digital_keypad.c: 15:     {;digital_keypad.c: 16:         return PORTB & 0x3F;
  1141  0590  1283               	bcf	3,5	;RP0=0, select bank0
  1142  0591  1303               	bcf	3,6	;RP1=0, select bank0
  1143  0592  0806               	movf	6,w	;volatile
  1144  0593  393F               	andlw	63
  1145  0594  2DB3               	goto	l32
  1146  0595                     l913:	
  1147                           
  1148                           ;digital_keypad.c: 19:     {;digital_keypad.c: 20:         if (((PORTB & 0x3F) != 0x3F) 
      +                          && once)
  1149  0595  303F               	movlw	63
  1150  0596  1283               	bcf	3,5	;RP0=0, select bank0
  1151  0597  1303               	bcf	3,6	;RP1=0, select bank0
  1152  0598  0506               	andwf	6,w	;volatile
  1153  0599  00F0               	movwf	??_read_digital_keypad
  1154  059A  303F               	movlw	63
  1155  059B  0670               	xorwf	??_read_digital_keypad,w
  1156  059C  1903               	btfsc	3,2
  1157  059D  2D9F               	goto	u381
  1158  059E  2DA0               	goto	u380
  1159  059F                     u381:	
  1160  059F  2DA7               	goto	l925
  1161  05A0                     u380:	
  1162  05A0                     l915:	
  1163  05A0  0846               	movf	read_digital_keypad@once,w
  1164  05A1  1903               	btfsc	3,2
  1165  05A2  2DA4               	goto	u391
  1166  05A3  2DA5               	goto	u390
  1167  05A4                     u391:	
  1168  05A4  2DA7               	goto	l925
  1169  05A5                     u390:	
  1170  05A5                     l917:	
  1171                           
  1172                           ;digital_keypad.c: 21:         {;digital_keypad.c: 22:             once = 0;
  1173  05A5  01C6               	clrf	read_digital_keypad@once
  1174  05A6  2D90               	goto	l907
  1175  05A7                     l925:	
  1176  05A7  303F               	movlw	63
  1177  05A8  0506               	andwf	6,w	;volatile
  1178  05A9  00F0               	movwf	??_read_digital_keypad
  1179  05AA  303F               	movlw	63
  1180  05AB  0670               	xorwf	??_read_digital_keypad,w
  1181  05AC  1D03               	btfss	3,2
  1182  05AD  2DAF               	goto	u401
  1183  05AE  2DB0               	goto	u400
  1184  05AF                     u401:	
  1185  05AF  2DB2               	goto	l929
  1186  05B0                     u400:	
  1187  05B0                     l927:	
  1188                           
  1189                           ;digital_keypad.c: 27:         {;digital_keypad.c: 28:             once = 1;
  1190  05B0  01C6               	clrf	read_digital_keypad@once
  1191  05B1  0AC6               	incf	read_digital_keypad@once,f
  1192  05B2                     l929:	
  1193                           
  1194                           ;digital_keypad.c: 32:     return 0x3F;
  1195  05B2  303F               	movlw	63
  1196  05B3                     l32:	
  1197  05B3  0008               	return
  1198  05B4                     __end_of_read_digital_keypad:	
  1199                           
  1200                           	psect	text2
  1201  053E                     __ptext2:	
  1202 ;; *************** function _init_config *****************
  1203 ;; Defined at:
  1204 ;;		line 16 in file "main.c"
  1205 ;; Parameters:    Size  Location     Type
  1206 ;;		None
  1207 ;; Auto vars:     Size  Location     Type
  1208 ;;		None
  1209 ;; Return value:  Size  Location     Type
  1210 ;;                  1    wreg      void 
  1211 ;; Registers used:
  1212 ;;		wreg, status,2, status,0, pclath, cstack
  1213 ;; Tracked objects:
  1214 ;;		On entry : 0/0
  1215 ;;		On exit  : 0/0
  1216 ;;		Unchanged: 0/0
  1217 ;; Data sizes:     COMMON   BANK0   BANK1   BANK3   BANK2
  1218 ;;      Params:         0       0       0       0       0
  1219 ;;      Locals:         0       0       0       0       0
  1220 ;;      Temps:          0       0       0       0       0
  1221 ;;      Totals:         0       0       0       0       0
  1222 ;;Total ram usage:        0 bytes
  1223 ;; Hardware stack levels used:    1
  1224 ;; Hardware stack levels required when called:    1
  1225 ;; This function calls:
  1226 ;;		_init_digital_keypad
  1227 ;;		_init_ssd
  1228 ;; This function is called by:
  1229 ;;		_main
  1230 ;; This function uses a non-reentrant model
  1231 ;;
  1232                           
  1233                           
  1234                           ;psect for function _init_config
  1235  053E                     _init_config:	
  1236  053E                     l933:	
  1237                           ;incstack = 0
  1238                           ; Regs used in _init_config: [wreg+status,2+status,0+pclath+cstack]
  1239                           
  1240                           
  1241                           ;main.c: 18: 
  1242  053E  120A  118A  2538  120A  118A  	fcall	_init_digital_keypad
  1243                           
  1244                           ;main.c: 19:         key = read_digital_keypad(0);
  1245  0543  120A  118A  2554  120A  118A  	fcall	_init_ssd
  1246  0548                     l53:	
  1247  0548  0008               	return
  1248  0549                     __end_of_init_config:	
  1249                           
  1250                           	psect	text3
  1251  0554                     __ptext3:	
  1252 ;; *************** function _init_ssd *****************
  1253 ;; Defined at:
  1254 ;;		line 4 in file "SSD.c"
  1255 ;; Parameters:    Size  Location     Type
  1256 ;;		None
  1257 ;; Auto vars:     Size  Location     Type
  1258 ;;		None
  1259 ;; Return value:  Size  Location     Type
  1260 ;;                  1    wreg      void 
  1261 ;; Registers used:
  1262 ;;		wreg, status,2
  1263 ;; Tracked objects:
  1264 ;;		On entry : 0/0
  1265 ;;		On exit  : 0/0
  1266 ;;		Unchanged: 0/0
  1267 ;; Data sizes:     COMMON   BANK0   BANK1   BANK3   BANK2
  1268 ;;      Params:         0       0       0       0       0
  1269 ;;      Locals:         0       0       0       0       0
  1270 ;;      Temps:          0       0       0       0       0
  1271 ;;      Totals:         0       0       0       0       0
  1272 ;;Total ram usage:        0 bytes
  1273 ;; Hardware stack levels used:    1
  1274 ;; This function calls:
  1275 ;;		Nothing
  1276 ;; This function is called by:
  1277 ;;		_init_config
  1278 ;; This function uses a non-reentrant model
  1279 ;;
  1280                           
  1281                           
  1282                           ;psect for function _init_ssd
  1283  0554                     _init_ssd:	
  1284  0554                     l879:	
  1285                           ;incstack = 0
  1286                           ; Regs used in _init_ssd: [wreg+status,2]
  1287                           
  1288                           
  1289                           ;SSD.c: 7:     TRISD = 0x00;
  1290  0554  1683               	bsf	3,5	;RP0=1, select bank1
  1291  0555  1303               	bcf	3,6	;RP1=0, select bank1
  1292  0556  0188               	clrf	8	;volatile
  1293  0557                     l881:	
  1294                           
  1295                           ;SSD.c: 10:     TRISA = TRISA & 0xC3;
  1296  0557  0805               	movf	5,w	;volatile
  1297  0558  39C3               	andlw	195
  1298  0559  0085               	movwf	5	;volatile
  1299  055A                     l883:	
  1300                           
  1301                           ;SSD.c: 13:     PORTA = PORTA & 0xC3;
  1302  055A  1283               	bcf	3,5	;RP0=0, select bank0
  1303  055B  1303               	bcf	3,6	;RP1=0, select bank0
  1304  055C  0805               	movf	5,w	;volatile
  1305  055D  39C3               	andlw	195
  1306  055E  0085               	movwf	5	;volatile
  1307  055F                     l11:	
  1308  055F  0008               	return
  1309  0560                     __end_of_init_ssd:	
  1310                           
  1311                           	psect	text4
  1312  0538                     __ptext4:	
  1313 ;; *************** function _init_digital_keypad *****************
  1314 ;; Defined at:
  1315 ;;		line 4 in file "digital_keypad.c"
  1316 ;; Parameters:    Size  Location     Type
  1317 ;;		None
  1318 ;; Auto vars:     Size  Location     Type
  1319 ;;		None
  1320 ;; Return value:  Size  Location     Type
  1321 ;;                  1    wreg      void 
  1322 ;; Registers used:
  1323 ;;		wreg, status,2
  1324 ;; Tracked objects:
  1325 ;;		On entry : 0/0
  1326 ;;		On exit  : 0/0
  1327 ;;		Unchanged: 0/0
  1328 ;; Data sizes:     COMMON   BANK0   BANK1   BANK3   BANK2
  1329 ;;      Params:         0       0       0       0       0
  1330 ;;      Locals:         0       0       0       0       0
  1331 ;;      Temps:          0       0       0       0       0
  1332 ;;      Totals:         0       0       0       0       0
  1333 ;;Total ram usage:        0 bytes
  1334 ;; Hardware stack levels used:    1
  1335 ;; This function calls:
  1336 ;;		Nothing
  1337 ;; This function is called by:
  1338 ;;		_init_config
  1339 ;; This function uses a non-reentrant model
  1340 ;;
  1341                           
  1342                           
  1343                           ;psect for function _init_digital_keypad
  1344  0538                     _init_digital_keypad:	
  1345  0538                     l885:	
  1346                           ;incstack = 0
  1347                           ; Regs used in _init_digital_keypad: [wreg+status,2]
  1348                           
  1349                           
  1350                           ;digital_keypad.c: 7:     TRISB = TRISB | 0x3F;
  1351  0538  1683               	bsf	3,5	;RP0=1, select bank1
  1352  0539  1303               	bcf	3,6	;RP1=0, select bank1
  1353  053A  0806               	movf	6,w	;volatile
  1354  053B  383F               	iorlw	63
  1355  053C  0086               	movwf	6	;volatile
  1356  053D                     l26:	
  1357  053D  0008               	return
  1358  053E                     __end_of_init_digital_keypad:	
  1359                           
  1360                           	psect	text5
  1361  05B4                     __ptext5:	
  1362 ;; *************** function _eeprom_write *****************
  1363 ;; Defined at:
  1364 ;;		line 6 in file "/opt/microchip/xc8/v2.10/pic/sources/c90/pic/__eewrite.c"
  1365 ;; Parameters:    Size  Location     Type
  1366 ;;  addr            1    wreg     unsigned char 
  1367 ;;  value           1    0[COMMON] unsigned char 
  1368 ;; Auto vars:     Size  Location     Type
  1369 ;;  addr            1    2[COMMON] unsigned char 
  1370 ;; Return value:  Size  Location     Type
  1371 ;;                  1    wreg      void 
  1372 ;; Registers used:
  1373 ;;		wreg, status,2, status,0
  1374 ;; Tracked objects:
  1375 ;;		On entry : 0/0
  1376 ;;		On exit  : 0/0
  1377 ;;		Unchanged: 0/0
  1378 ;; Data sizes:     COMMON   BANK0   BANK1   BANK3   BANK2
  1379 ;;      Params:         1       0       0       0       0
  1380 ;;      Locals:         1       0       0       0       0
  1381 ;;      Temps:          1       0       0       0       0
  1382 ;;      Totals:         3       0       0       0       0
  1383 ;;Total ram usage:        3 bytes
  1384 ;; Hardware stack levels used:    1
  1385 ;; This function calls:
  1386 ;;		Nothing
  1387 ;; This function is called by:
  1388 ;;		_main
  1389 ;; This function uses a non-reentrant model
  1390 ;;
  1391                           
  1392                           
  1393                           ;psect for function _eeprom_write
  1394  05B4                     _eeprom_write:	
  1395                           
  1396                           ;incstack = 0
  1397                           ; Regs used in _eeprom_write: [wreg+status,2+status,0]
  1398                           ;eeprom_write@addr stored from wreg
  1399  05B4  00F2               	movwf	eeprom_write@addr
  1400  05B5                     l182:	
  1401                           ;/opt/microchip/xc8/v2.10/pic/sources/c90/pic/__eewrite.c: 6: eeprom_write(unsigned char
      +                           addr, unsigned char value);/opt/microchip/xc8/v2.10/pic/sources/c90/pic/__eewrite.c: 7:
      +                           {;/opt/microchip/xc8/v2.10/pic/sources/c90/pic/__eewrite.c: 8:  do{ while (EECON1bits.W
      +                          R) { continue; } EEADR = (addr); EEDATA = (value); EECON1 &= 0x3F; STATUSbits.CARRY = 0;
      +                           if (INTCONbits.GIE) { STATUSbits.CARRY = 1; } INTCONbits.GIE = 0; EECON1bits.WREN = 1; 
      +                          EECON2 = 0x55; EECON2 = 0xAA; EECON1bits.WR = 1; EECON1bits.WREN = 0; if (STATUSbits.CAR
      +                          RY) { INTCONbits.GIE = 1; } } while (0);
  1402                           
  1403  05B5                     l183:	
  1404  05B5  1683               	bsf	3,5	;RP0=1, select bank3
  1405  05B6  1703               	bsf	3,6	;RP1=1, select bank3
  1406  05B7  188C               	btfsc	12,1	;volsfr
  1407  05B8  2DBA               	goto	u411
  1408  05B9  2DBB               	goto	u410
  1409  05BA                     u411:	
  1410  05BA  2DB5               	goto	l183
  1411  05BB                     u410:	
  1412  05BB                     l935:	
  1413  05BB  0872               	movf	eeprom_write@addr,w
  1414  05BC  1283               	bcf	3,5	;RP0=0, select bank2
  1415  05BD  1703               	bsf	3,6	;RP1=1, select bank2
  1416  05BE  008D               	movwf	13	;volatile
  1417  05BF  0870               	movf	eeprom_write@value,w
  1418  05C0  008C               	movwf	12	;volatile
  1419  05C1                     l937:	
  1420  05C1  303F               	movlw	63
  1421  05C2  00F1               	movwf	??_eeprom_write
  1422  05C3  0871               	movf	??_eeprom_write,w
  1423  05C4  1683               	bsf	3,5	;RP0=1, select bank3
  1424  05C5  1703               	bsf	3,6	;RP1=1, select bank3
  1425  05C6  058C               	andwf	12,f	;volsfr
  1426  05C7                     l939:	
  1427  05C7  1283               	bcf	3,5	;RP0=0, select bank0
  1428  05C8  1303               	bcf	3,6	;RP1=0, select bank0
  1429  05C9  1003               	bcf	3,0	;volatile
  1430  05CA                     l941:	
  1431  05CA  1F8B               	btfss	11,7	;volatile
  1432  05CB  2DCD               	goto	u421
  1433  05CC  2DCE               	goto	u420
  1434  05CD                     u421:	
  1435  05CD  2DCF               	goto	l186
  1436  05CE                     u420:	
  1437  05CE                     l943:	
  1438  05CE  1403               	bsf	3,0	;volatile
  1439  05CF                     l186:	
  1440  05CF  138B               	bcf	11,7	;volatile
  1441  05D0  1683               	bsf	3,5	;RP0=1, select bank3
  1442  05D1  1703               	bsf	3,6	;RP1=1, select bank3
  1443  05D2  150C               	bsf	12,2	;volsfr
  1444  05D3                     l945:	
  1445  05D3  3055               	movlw	85
  1446  05D4  008D               	movwf	13	;volsfr
  1447  05D5  30AA               	movlw	170
  1448  05D6  008D               	movwf	13	;volsfr
  1449  05D7                     l947:	
  1450  05D7  148C               	bsf	12,1	;volsfr
  1451  05D8                     l949:	
  1452  05D8  110C               	bcf	12,2	;volsfr
  1453  05D9                     l951:	
  1454  05D9  1283               	bcf	3,5	;RP0=0, select bank0
  1455  05DA  1303               	bcf	3,6	;RP1=0, select bank0
  1456  05DB  1C03               	btfss	3,0	;volatile
  1457  05DC  2DDE               	goto	u431
  1458  05DD  2DDF               	goto	u430
  1459  05DE                     u431:	
  1460  05DE  2DE0               	goto	l189
  1461  05DF                     u430:	
  1462  05DF                     l953:	
  1463  05DF  178B               	bsf	11,7	;volatile
  1464  05E0                     l189:	
  1465  05E0  0008               	return
  1466  05E1                     __end_of_eeprom_write:	
  1467                           
  1468                           	psect	text6
  1469  0573                     __ptext6:	
  1470 ;; *************** function _eeprom_read *****************
  1471 ;; Defined at:
  1472 ;;		line 6 in file "/opt/microchip/xc8/v2.10/pic/sources/c90/pic/__eeread.c"
  1473 ;; Parameters:    Size  Location     Type
  1474 ;;  addr            1    wreg     unsigned char 
  1475 ;; Auto vars:     Size  Location     Type
  1476 ;;  addr            1    1[COMMON] unsigned char 
  1477 ;; Return value:  Size  Location     Type
  1478 ;;                  1    wreg      unsigned char 
  1479 ;; Registers used:
  1480 ;;		wreg, status,2, status,0
  1481 ;; Tracked objects:
  1482 ;;		On entry : 0/0
  1483 ;;		On exit  : 0/0
  1484 ;;		Unchanged: 0/0
  1485 ;; Data sizes:     COMMON   BANK0   BANK1   BANK3   BANK2
  1486 ;;      Params:         0       0       0       0       0
  1487 ;;      Locals:         1       0       0       0       0
  1488 ;;      Temps:          1       0       0       0       0
  1489 ;;      Totals:         2       0       0       0       0
  1490 ;;Total ram usage:        2 bytes
  1491 ;; Hardware stack levels used:    1
  1492 ;; This function calls:
  1493 ;;		Nothing
  1494 ;; This function is called by:
  1495 ;;		_main
  1496 ;; This function uses a non-reentrant model
  1497 ;;
  1498                           
  1499                           
  1500                           ;psect for function _eeprom_read
  1501  0573                     _eeprom_read:	
  1502                           
  1503                           ;incstack = 0
  1504                           ; Regs used in _eeprom_read: [wreg+status,2+status,0]
  1505                           ;eeprom_read@addr stored from wreg
  1506  0573  00F1               	movwf	eeprom_read@addr
  1507  0574                     l163:	
  1508                           ;/opt/microchip/xc8/v2.10/pic/sources/c90/pic/__eeread.c: 6: eeprom_read(unsigned char a
      +                          ddr);/opt/microchip/xc8/v2.10/pic/sources/c90/pic/__eeread.c: 7: {;/opt/microchip/xc8/v2
      +                          .10/pic/sources/c90/pic/__eeread.c: 8:  do
  1509                           
  1510  0574  0064               	clrwdt	;# 
  1511  0575  1683               	bsf	3,5	;RP0=1, select bank3
  1512  0576  1703               	bsf	3,6	;RP1=1, select bank3
  1513  0577  188C               	btfsc	12,1	;volsfr
  1514  0578  2D7A               	goto	u441
  1515  0579  2D7B               	goto	u440
  1516  057A                     u441:	
  1517  057A  2D74               	goto	l163
  1518  057B                     u440:	
  1519  057B                     l955:	
  1520                           
  1521                           ;/opt/microchip/xc8/v2.10/pic/sources/c90/pic/__eeread.c: 18:  return ( EEADR = addr, EE
      +                          CON1 &= 0x3F, EECON1bits.RD = 1, EEDATA);
  1522  057B  0871               	movf	eeprom_read@addr,w
  1523  057C  1283               	bcf	3,5	;RP0=0, select bank2
  1524  057D  1703               	bsf	3,6	;RP1=1, select bank2
  1525  057E  008D               	movwf	13	;volatile
  1526  057F  303F               	movlw	63
  1527  0580  00F0               	movwf	??_eeprom_read
  1528  0581  0870               	movf	??_eeprom_read,w
  1529  0582  1683               	bsf	3,5	;RP0=1, select bank3
  1530  0583  1703               	bsf	3,6	;RP1=1, select bank3
  1531  0584  058C               	andwf	12,f	;volsfr
  1532  0585  140C               	bsf	12,0	;volsfr
  1533  0586  1283               	bcf	3,5	;RP0=0, select bank2
  1534  0587  1703               	bsf	3,6	;RP1=1, select bank2
  1535  0588  080C               	movf	12,w	;volatile
  1536  0589                     l165:	
  1537  0589  0008               	return
  1538  058A                     __end_of_eeprom_read:	
  1539                           
  1540                           	psect	text7
  1541  05E1                     __ptext7:	
  1542 ;; *************** function _display *****************
  1543 ;; Defined at:
  1544 ;;		line 17 in file "SSD.c"
  1545 ;; Parameters:    Size  Location     Type
  1546 ;;  data            1    wreg     PTR unsigned char 
  1547 ;;		 -> main@ssd(4), 
  1548 ;; Auto vars:     Size  Location     Type
  1549 ;;  data            1    3[COMMON] PTR unsigned char 
  1550 ;;		 -> main@ssd(4), 
  1551 ;;  i               2    1[COMMON] unsigned int 
  1552 ;;  digit           1    4[COMMON] unsigned char 
  1553 ;; Return value:  Size  Location     Type
  1554 ;;                  1    wreg      void 
  1555 ;; Registers used:
  1556 ;;		wreg, fsr0l, fsr0h, status,2, status,0
  1557 ;; Tracked objects:
  1558 ;;		On entry : 0/0
  1559 ;;		On exit  : 0/0
  1560 ;;		Unchanged: 0/0
  1561 ;; Data sizes:     COMMON   BANK0   BANK1   BANK3   BANK2
  1562 ;;      Params:         0       0       0       0       0
  1563 ;;      Locals:         4       0       0       0       0
  1564 ;;      Temps:          1       0       0       0       0
  1565 ;;      Totals:         5       0       0       0       0
  1566 ;;Total ram usage:        5 bytes
  1567 ;; Hardware stack levels used:    1
  1568 ;; This function calls:
  1569 ;;		Nothing
  1570 ;; This function is called by:
  1571 ;;		_main
  1572 ;; This function uses a non-reentrant model
  1573 ;;
  1574                           
  1575                           
  1576                           ;psect for function _display
  1577  05E1                     _display:	
  1578                           
  1579                           ;incstack = 0
  1580                           ; Regs used in _display: [wreg-fsr0h+status,2+status,0]
  1581                           ;display@data stored from wreg
  1582  05E1  00F3               	movwf	display@data
  1583  05E2                     l887:	
  1584                           
  1585                           ;SSD.c: 17: void display(unsigned char data[]);SSD.c: 18: {;SSD.c: 19:     unsigned char
      +                           digit;;SSD.c: 21:     for(digit = 0;digit < 4;digit++)
  1586  05E2  01F4               	clrf	display@digit
  1587  05E3                     l893:	
  1588                           
  1589                           ;SSD.c: 22:     {;SSD.c: 23:         PORTD =data[digit];
  1590  05E3  0874               	movf	display@digit,w
  1591  05E4  0773               	addwf	display@data,w
  1592  05E5  00F0               	movwf	??_display
  1593  05E6  0870               	movf	??_display,w
  1594  05E7  0084               	movwf	4
  1595  05E8  1383               	bcf	3,7	;select IRP bank0
  1596  05E9  0800               	movf	0,w
  1597  05EA  1283               	bcf	3,5	;RP0=0, select bank0
  1598  05EB  1303               	bcf	3,6	;RP1=0, select bank0
  1599  05EC  0088               	movwf	8	;volatile
  1600  05ED                     l895:	
  1601                           
  1602                           ;SSD.c: 24:         PORTA = (PORTA & 0xC3) | (0x04 << digit);
  1603  05ED  3004               	movlw	4
  1604  05EE  00F0               	movwf	??_display
  1605  05EF  0A74               	incf	display@digit,w
  1606  05F0  2DF3               	goto	u344
  1607  05F1                     u345:	
  1608  05F1  1003               	clrc
  1609  05F2  0DF0               	rlf	??_display,f
  1610  05F3                     u344:	
  1611  05F3  3EFF               	addlw	-1
  1612  05F4  1D03               	skipz
  1613  05F5  2DF1               	goto	u345
  1614  05F6  0805               	movf	5,w	;volatile
  1615  05F7  39C3               	andlw	195
  1616  05F8  0470               	iorwf	??_display,w
  1617  05F9  0085               	movwf	5	;volatile
  1618  05FA                     l897:	
  1619                           
  1620                           ;SSD.c: 25:         for(unsigned int i = 400;i--;);
  1621  05FA  3090               	movlw	144
  1622  05FB  00F1               	movwf	display@i
  1623  05FC  3001               	movlw	1
  1624  05FD  00F2               	movwf	display@i+1
  1625  05FE                     l899:	
  1626  05FE  3001               	movlw	1
  1627  05FF  02F1               	subwf	display@i,f
  1628  0600  3000               	movlw	0
  1629  0601  1C03               	skipc
  1630  0602  03F2               	decf	display@i+1,f
  1631  0603  02F2               	subwf	display@i+1,f
  1632  0604  0A71               	incf	display@i,w
  1633  0605  1D03               	skipz
  1634  0606  2E0B               	goto	u351
  1635  0607  0A72               	incf	display@i+1,w
  1636  0608  1D03               	btfss	3,2
  1637  0609  2E0B               	goto	u351
  1638  060A  2E0C               	goto	u350
  1639  060B                     u351:	
  1640  060B  2DFE               	goto	l899
  1641  060C                     u350:	
  1642  060C                     l901:	
  1643                           
  1644                           ;SSD.c: 26:     }
  1645  060C  3001               	movlw	1
  1646  060D  00F0               	movwf	??_display
  1647  060E  0870               	movf	??_display,w
  1648  060F  07F4               	addwf	display@digit,f
  1649  0610                     l903:	
  1650  0610  3004               	movlw	4
  1651  0611  0274               	subwf	display@digit,w
  1652  0612  1C03               	skipc
  1653  0613  2E15               	goto	u361
  1654  0614  2E16               	goto	u360
  1655  0615                     u361:	
  1656  0615  2DE3               	goto	l893
  1657  0616                     u360:	
  1658  0616                     l19:	
  1659  0616  0008               	return
  1660  0617                     __end_of_display:	
  1661                           
  1662                           	psect	text8
  1663  0617                     __ptext8:	
  1664 ;; *************** function ___lwmod *****************
  1665 ;; Defined at:
  1666 ;;		line 5 in file "/opt/microchip/xc8/v2.10/pic/sources/c90/common/lwmod.c"
  1667 ;; Parameters:    Size  Location     Type
  1668 ;;  divisor         2    8[COMMON] unsigned int 
  1669 ;;  dividend        2   10[COMMON] unsigned int 
  1670 ;; Auto vars:     Size  Location     Type
  1671 ;;  counter         1   13[COMMON] unsigned char 
  1672 ;; Return value:  Size  Location     Type
  1673 ;;                  2    8[COMMON] unsigned int 
  1674 ;; Registers used:
  1675 ;;		wreg, status,2, status,0
  1676 ;; Tracked objects:
  1677 ;;		On entry : 0/0
  1678 ;;		On exit  : 0/0
  1679 ;;		Unchanged: 0/0
  1680 ;; Data sizes:     COMMON   BANK0   BANK1   BANK3   BANK2
  1681 ;;      Params:         4       0       0       0       0
  1682 ;;      Locals:         1       0       0       0       0
  1683 ;;      Temps:          1       0       0       0       0
  1684 ;;      Totals:         6       0       0       0       0
  1685 ;;Total ram usage:        6 bytes
  1686 ;; Hardware stack levels used:    1
  1687 ;; This function calls:
  1688 ;;		Nothing
  1689 ;; This function is called by:
  1690 ;;		_main
  1691 ;; This function uses a non-reentrant model
  1692 ;;
  1693                           
  1694                           
  1695                           ;psect for function ___lwmod
  1696  0617                     ___lwmod:	
  1697  0617                     l985:	
  1698                           ;incstack = 0
  1699                           ; Regs used in ___lwmod: [wreg+status,2+status,0]
  1700                           
  1701  0617  0878               	movf	___lwmod@divisor,w
  1702  0618  0479               	iorwf	___lwmod@divisor+1,w
  1703  0619  1903               	btfsc	3,2
  1704  061A  2E1C               	goto	u521
  1705  061B  2E1D               	goto	u520
  1706  061C                     u521:	
  1707  061C  2E4C               	goto	l1003
  1708  061D                     u520:	
  1709  061D                     l987:	
  1710  061D  01FD               	clrf	___lwmod@counter
  1711  061E  0AFD               	incf	___lwmod@counter,f
  1712  061F  2E2B               	goto	l993
  1713  0620                     l989:	
  1714  0620  3001               	movlw	1
  1715  0621                     u535:	
  1716  0621  1003               	clrc
  1717  0622  0DF8               	rlf	___lwmod@divisor,f
  1718  0623  0DF9               	rlf	___lwmod@divisor+1,f
  1719  0624  3EFF               	addlw	-1
  1720  0625  1D03               	skipz
  1721  0626  2E21               	goto	u535
  1722  0627                     l991:	
  1723  0627  3001               	movlw	1
  1724  0628  00FC               	movwf	??___lwmod
  1725  0629  087C               	movf	??___lwmod,w
  1726  062A  07FD               	addwf	___lwmod@counter,f
  1727  062B                     l993:	
  1728  062B  1FF9               	btfss	___lwmod@divisor+1,7
  1729  062C  2E2E               	goto	u541
  1730  062D  2E2F               	goto	u540
  1731  062E                     u541:	
  1732  062E  2E20               	goto	l989
  1733  062F                     u540:	
  1734  062F                     l995:	
  1735  062F  0879               	movf	___lwmod@divisor+1,w
  1736  0630  027B               	subwf	___lwmod@dividend+1,w
  1737  0631  1D03               	skipz
  1738  0632  2E35               	goto	u555
  1739  0633  0878               	movf	___lwmod@divisor,w
  1740  0634  027A               	subwf	___lwmod@dividend,w
  1741  0635                     u555:	
  1742  0635  1C03               	skipc
  1743  0636  2E38               	goto	u551
  1744  0637  2E39               	goto	u550
  1745  0638                     u551:	
  1746  0638  2E3F               	goto	l999
  1747  0639                     u550:	
  1748  0639                     l997:	
  1749  0639  0878               	movf	___lwmod@divisor,w
  1750  063A  02FA               	subwf	___lwmod@dividend,f
  1751  063B  0879               	movf	___lwmod@divisor+1,w
  1752  063C  1C03               	skipc
  1753  063D  03FB               	decf	___lwmod@dividend+1,f
  1754  063E  02FB               	subwf	___lwmod@dividend+1,f
  1755  063F                     l999:	
  1756  063F  3001               	movlw	1
  1757  0640                     u565:	
  1758  0640  1003               	clrc
  1759  0641  0CF9               	rrf	___lwmod@divisor+1,f
  1760  0642  0CF8               	rrf	___lwmod@divisor,f
  1761  0643  3EFF               	addlw	-1
  1762  0644  1D03               	skipz
  1763  0645  2E40               	goto	u565
  1764  0646                     l1001:	
  1765  0646  3001               	movlw	1
  1766  0647  02FD               	subwf	___lwmod@counter,f
  1767  0648  1D03               	btfss	3,2
  1768  0649  2E4B               	goto	u571
  1769  064A  2E4C               	goto	u570
  1770  064B                     u571:	
  1771  064B  2E2F               	goto	l995
  1772  064C                     u570:	
  1773  064C                     l1003:	
  1774  064C  087B               	movf	___lwmod@dividend+1,w
  1775  064D  00F9               	movwf	?___lwmod+1
  1776  064E  087A               	movf	___lwmod@dividend,w
  1777  064F  00F8               	movwf	?___lwmod
  1778  0650                     l475:	
  1779  0650  0008               	return
  1780  0651                     __end_of___lwmod:	
  1781                           
  1782                           	psect	text9
  1783  0651                     __ptext9:	
  1784 ;; *************** function ___lwdiv *****************
  1785 ;; Defined at:
  1786 ;;		line 5 in file "/opt/microchip/xc8/v2.10/pic/sources/c90/common/lwdiv.c"
  1787 ;; Parameters:    Size  Location     Type
  1788 ;;  divisor         2    0[COMMON] unsigned int 
  1789 ;;  dividend        2    2[COMMON] unsigned int 
  1790 ;; Auto vars:     Size  Location     Type
  1791 ;;  quotient        2    5[COMMON] unsigned int 
  1792 ;;  counter         1    7[COMMON] unsigned char 
  1793 ;; Return value:  Size  Location     Type
  1794 ;;                  2    0[COMMON] unsigned int 
  1795 ;; Registers used:
  1796 ;;		wreg, status,2, status,0
  1797 ;; Tracked objects:
  1798 ;;		On entry : 0/0
  1799 ;;		On exit  : 0/0
  1800 ;;		Unchanged: 0/0
  1801 ;; Data sizes:     COMMON   BANK0   BANK1   BANK3   BANK2
  1802 ;;      Params:         4       0       0       0       0
  1803 ;;      Locals:         3       0       0       0       0
  1804 ;;      Temps:          1       0       0       0       0
  1805 ;;      Totals:         8       0       0       0       0
  1806 ;;Total ram usage:        8 bytes
  1807 ;; Hardware stack levels used:    1
  1808 ;; This function calls:
  1809 ;;		Nothing
  1810 ;; This function is called by:
  1811 ;;		_main
  1812 ;; This function uses a non-reentrant model
  1813 ;;
  1814                           
  1815                           
  1816                           ;psect for function ___lwdiv
  1817  0651                     ___lwdiv:	
  1818  0651                     l959:	
  1819                           ;incstack = 0
  1820                           ; Regs used in ___lwdiv: [wreg+status,2+status,0]
  1821                           
  1822  0651  01F5               	clrf	___lwdiv@quotient
  1823  0652  01F6               	clrf	___lwdiv@quotient+1
  1824  0653                     l961:	
  1825  0653  0870               	movf	___lwdiv@divisor,w
  1826  0654  0471               	iorwf	___lwdiv@divisor+1,w
  1827  0655  1903               	btfsc	3,2
  1828  0656  2E58               	goto	u451
  1829  0657  2E59               	goto	u450
  1830  0658                     u451:	
  1831  0658  2E90               	goto	l981
  1832  0659                     u450:	
  1833  0659                     l963:	
  1834  0659  01F7               	clrf	___lwdiv@counter
  1835  065A  0AF7               	incf	___lwdiv@counter,f
  1836  065B  2E67               	goto	l969
  1837  065C                     l965:	
  1838  065C  3001               	movlw	1
  1839  065D                     u465:	
  1840  065D  1003               	clrc
  1841  065E  0DF0               	rlf	___lwdiv@divisor,f
  1842  065F  0DF1               	rlf	___lwdiv@divisor+1,f
  1843  0660  3EFF               	addlw	-1
  1844  0661  1D03               	skipz
  1845  0662  2E5D               	goto	u465
  1846  0663                     l967:	
  1847  0663  3001               	movlw	1
  1848  0664  00F4               	movwf	??___lwdiv
  1849  0665  0874               	movf	??___lwdiv,w
  1850  0666  07F7               	addwf	___lwdiv@counter,f
  1851  0667                     l969:	
  1852  0667  1FF1               	btfss	___lwdiv@divisor+1,7
  1853  0668  2E6A               	goto	u471
  1854  0669  2E6B               	goto	u470
  1855  066A                     u471:	
  1856  066A  2E5C               	goto	l965
  1857  066B                     u470:	
  1858  066B                     l971:	
  1859  066B  3001               	movlw	1
  1860  066C                     u485:	
  1861  066C  1003               	clrc
  1862  066D  0DF5               	rlf	___lwdiv@quotient,f
  1863  066E  0DF6               	rlf	___lwdiv@quotient+1,f
  1864  066F  3EFF               	addlw	-1
  1865  0670  1D03               	skipz
  1866  0671  2E6C               	goto	u485
  1867  0672  0871               	movf	___lwdiv@divisor+1,w
  1868  0673  0273               	subwf	___lwdiv@dividend+1,w
  1869  0674  1D03               	skipz
  1870  0675  2E78               	goto	u495
  1871  0676  0870               	movf	___lwdiv@divisor,w
  1872  0677  0272               	subwf	___lwdiv@dividend,w
  1873  0678                     u495:	
  1874  0678  1C03               	skipc
  1875  0679  2E7B               	goto	u491
  1876  067A  2E7C               	goto	u490
  1877  067B                     u491:	
  1878  067B  2E83               	goto	l977
  1879  067C                     u490:	
  1880  067C                     l973:	
  1881  067C  0870               	movf	___lwdiv@divisor,w
  1882  067D  02F2               	subwf	___lwdiv@dividend,f
  1883  067E  0871               	movf	___lwdiv@divisor+1,w
  1884  067F  1C03               	skipc
  1885  0680  03F3               	decf	___lwdiv@dividend+1,f
  1886  0681  02F3               	subwf	___lwdiv@dividend+1,f
  1887  0682                     l975:	
  1888  0682  1475               	bsf	___lwdiv@quotient,0
  1889  0683                     l977:	
  1890  0683  3001               	movlw	1
  1891  0684                     u505:	
  1892  0684  1003               	clrc
  1893  0685  0CF1               	rrf	___lwdiv@divisor+1,f
  1894  0686  0CF0               	rrf	___lwdiv@divisor,f
  1895  0687  3EFF               	addlw	-1
  1896  0688  1D03               	skipz
  1897  0689  2E84               	goto	u505
  1898  068A                     l979:	
  1899  068A  3001               	movlw	1
  1900  068B  02F7               	subwf	___lwdiv@counter,f
  1901  068C  1D03               	btfss	3,2
  1902  068D  2E8F               	goto	u511
  1903  068E  2E90               	goto	u510
  1904  068F                     u511:	
  1905  068F  2E6B               	goto	l971
  1906  0690                     u510:	
  1907  0690                     l981:	
  1908  0690  0876               	movf	___lwdiv@quotient+1,w
  1909  0691  00F1               	movwf	?___lwdiv+1
  1910  0692  0875               	movf	___lwdiv@quotient,w
  1911  0693  00F0               	movwf	?___lwdiv
  1912  0694                     l465:	
  1913  0694  0008               	return
  1914  0695                     __end_of___lwdiv:	
  1915  007E                     btemp	set	126	;btemp
  1916  007E                     wtemp0	set	126


Data Sizes:
    Strings     0
    Constant    0
    Data        11
    BSS         2
    Persistent  0
    Stack       0

Auto Spaces:
    Space          Size  Autos    Used
    COMMON           14     14      14
    BANK0            80     28      41
    BANK1            80      0       0
    BANK3            96      0       0
    BANK2            96      0       0

Pointer List with Targets:

    display@data	PTR unsigned char  size(1) Largest target is 4
		 -> main@ssd(BANK0[4]), 


Critical Paths under _main in COMMON

    _main->___lwmod
    ___lwmod->___lwdiv

Critical Paths under _main in BANK0

    None.

Critical Paths under _main in BANK1

    None.

Critical Paths under _main in BANK3

    None.

Critical Paths under _main in BANK2

    None.

Call Graph Tables:

 ---------------------------------------------------------------------------------
 (Depth) Function   	        Calls       Base Space   Used Autos Params    Refs
 ---------------------------------------------------------------------------------
 (0) _main                                                28    28      0    2426
                                              0 BANK0     28    28      0
                            ___lwdiv
                            ___lwmod
                            _display
                        _eeprom_read
                       _eeprom_write
                        _init_config
                _read_digital_keypad
 ---------------------------------------------------------------------------------
 (1) _read_digital_keypad                                  2     2      0      22
                                              0 COMMON     2     2      0
 ---------------------------------------------------------------------------------
 (1) _init_config                                          0     0      0       0
                _init_digital_keypad
                           _init_ssd
 ---------------------------------------------------------------------------------
 (2) _init_ssd                                             0     0      0       0
 ---------------------------------------------------------------------------------
 (2) _init_digital_keypad                                  0     0      0       0
 ---------------------------------------------------------------------------------
 (1) _eeprom_write                                         3     2      1     272
                                              0 COMMON     3     2      1
 ---------------------------------------------------------------------------------
 (1) _eeprom_read                                          2     2      0      22
                                              0 COMMON     2     2      0
 ---------------------------------------------------------------------------------
 (1) _display                                              5     5      0     168
                                              0 COMMON     5     5      0
 ---------------------------------------------------------------------------------
 (1) ___lwmod                                              6     2      4     767
                                              8 COMMON     6     2      4
                            ___lwdiv (ARG)
 ---------------------------------------------------------------------------------
 (1) ___lwdiv                                              8     4      4     618
                                              0 COMMON     8     4      4
 ---------------------------------------------------------------------------------
 Estimated maximum stack depth 2
 ---------------------------------------------------------------------------------

 Call Graph Graphs:

 _main (ROOT)
   ___lwdiv
   ___lwmod
     ___lwdiv (ARG)
   _display
   _eeprom_read
   _eeprom_write
   _init_config
     _init_digital_keypad
     _init_ssd
   _read_digital_keypad

 Address spaces:
Name               Size   Autos  Total    Cost      Usage
BANK3               60      0       0       9        0.0%
BITBANK3            60      0       0       8        0.0%
SFR3                 0      0       0       4        0.0%
BITSFR3              0      0       0       4        0.0%
BANK2               60      0       0      11        0.0%
BITBANK2            60      0       0      10        0.0%
SFR2                 0      0       0       5        0.0%
BITSFR2              0      0       0       5        0.0%
BANK1               50      0       0       7        0.0%
BITBANK1            50      0       0       6        0.0%
SFR1                 0      0       0       2        0.0%
BITSFR1              0      0       0       2        0.0%
BANK0               50     1C      29       5       51.2%
BITBANK0            50      0       0       4        0.0%
SFR0                 0      0       0       1        0.0%
BITSFR0              0      0       0       1        0.0%
COMMON               E      E       E       1      100.0%
BITCOMMON            E      0       0       0        0.0%
CODE                 0      0       0       0        0.0%
DATA                 0      0      37      12        0.0%
ABS                  0      0      37       3        0.0%
NULL                 0      0       0       0        0.0%
STACK                0      0       0       2        0.0%
EEDATA             100      0       0       0        0.0%


Microchip Technology PIC Macro Assembler V2.10 build 88905656 
Symbol Table                                                                                   Wed Jul  8 14:56:14 2020

                           pc 0002                            l11 055F                            l32 05B3  
                          l26 053D                            l19 0616                            l53 0548  
                          fsr 0004                           l163 0574                           l165 0589  
                         l182 05B5                           l183 05B5                           l186 05CF  
                         l189 05E0                           l465 0694                           l475 0650  
                         l901 060C                           l903 0610                           l913 0595  
                         l905 058B                           l915 05A0                           l907 0590  
                         l941 05CA                           l933 053E                           l917 05A5  
                         l925 05A7                           l951 05D9                           l943 05CE  
                         l935 05BB                           l927 05B0                           l961 0653  
                         l953 05DF                           l945 05D3                           l937 05C1  
                         l881 0557                           l929 05B2                           l971 066B  
                         l963 0659                           l955 057B                           l947 05D7  
                         l939 05C7                           l883 055A                           l973 067C  
                         l965 065C                           l981 0690                           l893 05E3  
                         l949 05D8                           l885 0538                           l975 0682  
                         l967 0663                           l959 0651                           l991 0627  
                         l895 05ED                           l887 05E2                           l879 0554  
                         l977 0683                           l969 0667                           l993 062B  
                         l985 0617                           l897 05FA                           l979 068A  
                         l995 062F                           l987 061D                           l899 05FE  
                         l997 0639                           l989 0620                           l999 063F  
                         u400 05B0                           u401 05AF                           u410 05BB  
                         u411 05BA                           u420 05CE                           u421 05CD  
                         u510 0690                           u350 060C                           u430 05DF  
                         u511 068F                           u351 060B                           u431 05DE  
                         u520 061D                           u360 0616                           u344 05F3  
                         u440 057B                           u600 06D9                           u505 0684  
                         u521 061C                           u361 0615                           u345 05F1  
                         u441 057A                           u601 06D8                           u450 0659  
                         u370 0590                           u610 06E9                           u451 0658  
                         u371 058F                           u611 06E8                           u540 062F  
                         u380 05A0                           u620 06F3                           u541 062E  
                         u381 059F                           u621 06F2                           u470 066B  
                         u550 0639                           u390 05A5                           u630 0725  
                         u471 066A                           u551 0638                           u535 0621  
                         u391 05A4                           u631 0724                           u640 072A  
                         u465 065D                           u641 0729                           u490 067C  
                         u570 064C                           u650 0730                           u491 067B  
                         u571 064B                           u555 0635                           u651 072F  
                         u660 075B                           u580 06A4                           u485 066C  
                         u565 0640                           u661 075A                           u590 06CB  
                         u495 0678                           u591 06CA                           u665 0757  
                         fsr0 0004                           indf 0000                          l1001 0646  
                        l1003 064C                          l1011 069C                          l1021 06C5  
                        l1013 06B1                          l1031 06F3                          l1023 06CB  
                        l1015 06B3                          l1007 0695                          l1041 0725  
                        l1033 06F6                          l1025 06D9                          l1017 06B5  
                        l1009 0699                          l1043 072A                          l1051 074C  
                        l1035 0700                          l1027 06E3                          l1019 06BA  
                        l1053 075B                          l1045 0730                          l1037 070C  
                        l1029 06E9                          l1055 07DE                          l1047 0748  
                        l1039 0715                          l1057 07E2                          l1049 0748  
       ??_read_digital_keypad 0070                ??_eeprom_write 0071                   display@data 0073  
                        _main 0695                          btemp 007E                          start 0000  
                       ?_main 0070                         _EEADR 010D                 __CFG_WDTE$OFF 0000  
             __end_of___lwdiv 0695               __end_of___lwmod 0651                  ?_init_config 0070  
                       _PORTA 0005                         _PORTB 0006                         _PORTD 0008  
                       _TRISA 0085                         _TRISB 0086                         _TRISD 0088  
                display@digit 0074               __end_of_display 0617                         pclath 000A  
                       status 0003                         wtemp0 007E               __initialization 07EC  
                __end_of_main 07EC                        ??_main 0020                        _EEDATA 010C  
                      _EECON1 018C                        _EECON2 018D   __end_of_init_digital_keypad 053E  
        __size_of_eeprom_read 0017                     ??___lwdiv 0074                     ??___lwmod 007C  
                      _count1 0047              __end_of_init_ssd 0560          __end_of_eeprom_write 05E1  
                   ??_display 0070       __end_of__initialization 07FC               eeprom_read@addr 0071  
              __pcstackCOMMON 0070                  __pidataBANK0 0549          __size_of_init_config 000B  
           eeprom_write@value 0070                    __pbssBANK0 0047                    __pmaintext 0695  
 __end_of_read_digital_keypad 05B4                     ?_init_ssd 0070         __size_of_eeprom_write 002D  
              main@long_press 0037                       ___lwdiv 0651                       ___lwmod 0617  
                     __ptext1 058A                       __ptext2 053E                       __ptext3 0554  
                     __ptext4 0538                       __ptext5 05B4                       __ptext6 0573  
                     __ptext7 05E1                       __ptext8 0617                       __ptext9 0651  
                     _display 05E1                       main@key 0039                       main@ssd 002E  
        end_of_initialization 07FC                main@prev_count 0036                  _eeprom_write 05B4  
                  ??_init_ssd 0070                    main@count1 003A                 ??_eeprom_read 0070  
__size_of_init_digital_keypad 0006           start_initialization 07EC           __end_of_eeprom_read 058A  
                  init_fetch0 0560                   __pdataBANK0 003C                 ??_init_config 0070  
                   ___latbits 0002                 __pcstackBANK0 0020              eeprom_write@addr 0072  
           __size_of_init_ssd 000C              ___lwdiv@dividend 0072                      ?___lwdiv 0070  
                    ?___lwmod 0078                      ?_display 0070              ___lwdiv@quotient 0075  
         __end_of_init_config 0549  __size_of_read_digital_keypad 002A                   _eeprom_read 0573  
                   main@check 0038                     main@digit 0024                     main@start 0034  
         _init_digital_keypad 0538                    _EECON1bits 018C          ?_init_digital_keypad 0070  
            __size_of___lwdiv 0044              __size_of___lwmod 003A                   _init_config 053E  
            __size_of_display 0036               ___lwdiv@divisor 0070               ___lwdiv@counter 0077  
               __size_of_main 0157                      _init_ssd 0554       read_digital_keypad@mode 0071  
     read_digital_keypad@once 0046                      main@F864 003C         ??_init_digital_keypad 0070  
                    display@i 0071                      main@wait 0032                    _INTCONbits 000B  
                    init_ram0 0564              ___lwmod@dividend 007A           _read_digital_keypad 058A  
             ___lwmod@divisor 0078               ___lwmod@counter 007D          ?_read_digital_keypad 0070  
               ?_eeprom_write 0070                    _STATUSbits 0003                  ?_eeprom_read 0070  
