

Microchip MPLAB XC8 Assembler V2.10 build 88905656 
                                                                                               Tue Jun 23 01:20:24 2020

Microchip MPLAB XC8 C Compiler v2.10 (Free license) build 20190730164152 Og1 
     1                           	processor	16F877A
     2                           	opt	pw 120
     3                           	opt	flic
     4                           	psect	idataCOMMON,global,class=CODE,delta=2
     5                           	psect	idataBANK0,global,class=CODE,delta=2
     6                           	psect	strings,global,class=STRING,delta=2
     7                           	psect	cinit,global,class=CODE,merge=1,delta=2
     8                           	psect	bssCOMMON,global,class=COMMON,space=1,delta=1
     9                           	psect	dataCOMMON,global,class=COMMON,space=1,delta=1
    10                           	psect	bssBANK0,global,class=BANK0,space=1,delta=1
    11                           	psect	dataBANK0,global,class=BANK0,space=1,delta=1
    12                           	psect	clrtext,global,class=CODE,delta=2
    13                           	psect	cstackCOMMON,global,class=COMMON,space=1,delta=1
    14                           	psect	cstackBANK0,global,class=BANK0,space=1,delta=1
    15                           	psect	maintext,global,class=CODE,split=1,delta=2
    16                           	psect	text1,local,class=CODE,merge=1,delta=2,group=2
    17                           	psect	text2,local,class=CODE,merge=1,delta=2
    18                           	psect	text3,local,class=CODE,merge=1,delta=2
    19                           	psect	text4,local,class=CODE,merge=1,delta=2
    20                           	psect	text5,local,class=CODE,merge=1,delta=2,group=1
    21                           	psect	text6,local,class=CODE,merge=1,delta=2
    22                           	psect	text7,local,class=CODE,merge=1,delta=2
    23                           	psect	text8,local,class=CODE,merge=1,delta=2
    24                           	psect	text9,local,class=CODE,merge=1,delta=2
    25                           	psect	text10,local,class=CODE,merge=1,delta=2
    26                           	psect	text11,local,class=CODE,merge=1,delta=2
    27                           	psect	text12,local,class=CODE,merge=1,delta=2
    28                           	psect	text13,local,class=CODE,merge=1,delta=2
    29                           	psect	text14,local,class=CODE,merge=1,delta=2
    30                           	psect	intentry,global,class=CODE,delta=2
    31                           	dabs	1,0x7E,2
    32  0000                     
    33                           ; Version 2.10
    34                           ; Generated 31/07/2019 GMT
    35                           ; 
    36                           ; Copyright © 2019, Microchip Technology Inc. and its subsidiaries ("Microchip")
    37                           ; All rights reserved.
    38                           ; 
    39                           ; This software is developed by Microchip Technology Inc. and its subsidiaries ("Microch
      +                          ip").
    40                           ; 
    41                           ; Redistribution and use in source and binary forms, with or without modification, are
    42                           ; permitted provided that the following conditions are met:
    43                           ; 
    44                           ;     1. Redistributions of source code must retain the above copyright notice, this lis
      +                          t of
    45                           ;        conditions and the following disclaimer.
    46                           ; 
    47                           ;     2. Redistributions in binary form must reproduce the above copyright notice, this 
      +                          list
    48                           ;        of conditions and the following disclaimer in the documentation and/or other
    49                           ;        materials provided with the distribution.
    50                           ; 
    51                           ;     3. Microchip's name may not be used to endorse or promote products derived from th
      +                          is
    52                           ;        software without specific prior written permission.
    53                           ; 
    54                           ; THIS SOFTWARE IS PROVIDED BY MICROCHIP "AS IS" AND ANY EXPRESS OR IMPLIED WARRANTIES,
    55                           ; INCLUDING, BUT NOT LIMITED TO, THE IMPLIED WARRANTIES OF MERCHANTABILITY AND FITNESS F
      +                          OR
    56                           ; PURPOSE ARE DISCLAIMED.  IN NO EVENT SHALL MICROCHIP BE LIABLE FOR ANY DIRECT, INDIREC
      +                          T,
    57                           ; INCIDENTAL, SPECIAL, EXEMPLARY, OR CONSEQUENTIAL DAMAGES (INCLUDING BUT NOT LIMITED TO
    58                           ; PROCUREMENT OF SUBSTITUTE GOODS OR SERVICES; LOSS OF USE, DATA OR PROFITS; OR BUSINESS
    59                           ; INTERRUPTION) HOWSOEVER CAUSED AND ON ANY THEORY OF LIABILITY, WHETHER IN CONTRACT, ST
      +                          RICT
    60                           ; LIABILITY, OR TORT (INCLUDING NEGLIGENCE OR OTHERWISE) ARISING IN ANY WAY OUT OF THE U
      +                          SE OF
    61                           ; THIS SOFTWARE, EVEN IF ADVISED OF THE POSSIBILITY OF SUCH DAMAGE.
    62                           ; 
    63                           ; 
    64                           ; Code-generator required, PIC16F877A Definitions
    65                           ; 
    66                           ; SFR Addresses
    67  0000                     	;# 
    68  0001                     	;# 
    69  0002                     	;# 
    70  0003                     	;# 
    71  0004                     	;# 
    72  0005                     	;# 
    73  0006                     	;# 
    74  0007                     	;# 
    75  0008                     	;# 
    76  0009                     	;# 
    77  000A                     	;# 
    78  000B                     	;# 
    79  000C                     	;# 
    80  000D                     	;# 
    81  000E                     	;# 
    82  000E                     	;# 
    83  000F                     	;# 
    84  0010                     	;# 
    85  0011                     	;# 
    86  0012                     	;# 
    87  0013                     	;# 
    88  0014                     	;# 
    89  0015                     	;# 
    90  0015                     	;# 
    91  0016                     	;# 
    92  0017                     	;# 
    93  0018                     	;# 
    94  0019                     	;# 
    95  001A                     	;# 
    96  001B                     	;# 
    97  001B                     	;# 
    98  001C                     	;# 
    99  001D                     	;# 
   100  001E                     	;# 
   101  001F                     	;# 
   102  0081                     	;# 
   103  0085                     	;# 
   104  0086                     	;# 
   105  0087                     	;# 
   106  0088                     	;# 
   107  0089                     	;# 
   108  008C                     	;# 
   109  008D                     	;# 
   110  008E                     	;# 
   111  0091                     	;# 
   112  0092                     	;# 
   113  0093                     	;# 
   114  0094                     	;# 
   115  0098                     	;# 
   116  0099                     	;# 
   117  009C                     	;# 
   118  009D                     	;# 
   119  009E                     	;# 
   120  009F                     	;# 
   121  010C                     	;# 
   122  010D                     	;# 
   123  010E                     	;# 
   124  010F                     	;# 
   125  018C                     	;# 
   126  018D                     	;# 
   127  0000                     	;# 
   128  0001                     	;# 
   129  0002                     	;# 
   130  0003                     	;# 
   131  0004                     	;# 
   132  0005                     	;# 
   133  0006                     	;# 
   134  0007                     	;# 
   135  0008                     	;# 
   136  0009                     	;# 
   137  000A                     	;# 
   138  000B                     	;# 
   139  000C                     	;# 
   140  000D                     	;# 
   141  000E                     	;# 
   142  000E                     	;# 
   143  000F                     	;# 
   144  0010                     	;# 
   145  0011                     	;# 
   146  0012                     	;# 
   147  0013                     	;# 
   148  0014                     	;# 
   149  0015                     	;# 
   150  0015                     	;# 
   151  0016                     	;# 
   152  0017                     	;# 
   153  0018                     	;# 
   154  0019                     	;# 
   155  001A                     	;# 
   156  001B                     	;# 
   157  001B                     	;# 
   158  001C                     	;# 
   159  001D                     	;# 
   160  001E                     	;# 
   161  001F                     	;# 
   162  0081                     	;# 
   163  0085                     	;# 
   164  0086                     	;# 
   165  0087                     	;# 
   166  0088                     	;# 
   167  0089                     	;# 
   168  008C                     	;# 
   169  008D                     	;# 
   170  008E                     	;# 
   171  0091                     	;# 
   172  0092                     	;# 
   173  0093                     	;# 
   174  0094                     	;# 
   175  0098                     	;# 
   176  0099                     	;# 
   177  009C                     	;# 
   178  009D                     	;# 
   179  009E                     	;# 
   180  009F                     	;# 
   181  010C                     	;# 
   182  010D                     	;# 
   183  010E                     	;# 
   184  010F                     	;# 
   185  018C                     	;# 
   186  018D                     	;# 
   187  0000                     	;# 
   188  0001                     	;# 
   189  0002                     	;# 
   190  0003                     	;# 
   191  0004                     	;# 
   192  0005                     	;# 
   193  0006                     	;# 
   194  0007                     	;# 
   195  0008                     	;# 
   196  0009                     	;# 
   197  000A                     	;# 
   198  000B                     	;# 
   199  000C                     	;# 
   200  000D                     	;# 
   201  000E                     	;# 
   202  000E                     	;# 
   203  000F                     	;# 
   204  0010                     	;# 
   205  0011                     	;# 
   206  0012                     	;# 
   207  0013                     	;# 
   208  0014                     	;# 
   209  0015                     	;# 
   210  0015                     	;# 
   211  0016                     	;# 
   212  0017                     	;# 
   213  0018                     	;# 
   214  0019                     	;# 
   215  001A                     	;# 
   216  001B                     	;# 
   217  001B                     	;# 
   218  001C                     	;# 
   219  001D                     	;# 
   220  001E                     	;# 
   221  001F                     	;# 
   222  0081                     	;# 
   223  0085                     	;# 
   224  0086                     	;# 
   225  0087                     	;# 
   226  0088                     	;# 
   227  0089                     	;# 
   228  008C                     	;# 
   229  008D                     	;# 
   230  008E                     	;# 
   231  0091                     	;# 
   232  0092                     	;# 
   233  0093                     	;# 
   234  0094                     	;# 
   235  0098                     	;# 
   236  0099                     	;# 
   237  009C                     	;# 
   238  009D                     	;# 
   239  009E                     	;# 
   240  009F                     	;# 
   241  010C                     	;# 
   242  010D                     	;# 
   243  010E                     	;# 
   244  010F                     	;# 
   245  018C                     	;# 
   246  018D                     	;# 
   247  0000                     	;# 
   248  0001                     	;# 
   249  0002                     	;# 
   250  0003                     	;# 
   251  0004                     	;# 
   252  0005                     	;# 
   253  0006                     	;# 
   254  0007                     	;# 
   255  0008                     	;# 
   256  0009                     	;# 
   257  000A                     	;# 
   258  000B                     	;# 
   259  000C                     	;# 
   260  000D                     	;# 
   261  000E                     	;# 
   262  000E                     	;# 
   263  000F                     	;# 
   264  0010                     	;# 
   265  0011                     	;# 
   266  0012                     	;# 
   267  0013                     	;# 
   268  0014                     	;# 
   269  0015                     	;# 
   270  0015                     	;# 
   271  0016                     	;# 
   272  0017                     	;# 
   273  0018                     	;# 
   274  0019                     	;# 
   275  001A                     	;# 
   276  001B                     	;# 
   277  001B                     	;# 
   278  001C                     	;# 
   279  001D                     	;# 
   280  001E                     	;# 
   281  001F                     	;# 
   282  0081                     	;# 
   283  0085                     	;# 
   284  0086                     	;# 
   285  0087                     	;# 
   286  0088                     	;# 
   287  0089                     	;# 
   288  008C                     	;# 
   289  008D                     	;# 
   290  008E                     	;# 
   291  0091                     	;# 
   292  0092                     	;# 
   293  0093                     	;# 
   294  0094                     	;# 
   295  0098                     	;# 
   296  0099                     	;# 
   297  009C                     	;# 
   298  009D                     	;# 
   299  009E                     	;# 
   300  009F                     	;# 
   301  010C                     	;# 
   302  010D                     	;# 
   303  010E                     	;# 
   304  010F                     	;# 
   305  018C                     	;# 
   306  018D                     	;# 
   307  0000                     	;# 
   308  0001                     	;# 
   309  0002                     	;# 
   310  0003                     	;# 
   311  0004                     	;# 
   312  0005                     	;# 
   313  0006                     	;# 
   314  0007                     	;# 
   315  0008                     	;# 
   316  0009                     	;# 
   317  000A                     	;# 
   318  000B                     	;# 
   319  000C                     	;# 
   320  000D                     	;# 
   321  000E                     	;# 
   322  000E                     	;# 
   323  000F                     	;# 
   324  0010                     	;# 
   325  0011                     	;# 
   326  0012                     	;# 
   327  0013                     	;# 
   328  0014                     	;# 
   329  0015                     	;# 
   330  0015                     	;# 
   331  0016                     	;# 
   332  0017                     	;# 
   333  0018                     	;# 
   334  0019                     	;# 
   335  001A                     	;# 
   336  001B                     	;# 
   337  001B                     	;# 
   338  001C                     	;# 
   339  001D                     	;# 
   340  001E                     	;# 
   341  001F                     	;# 
   342  0081                     	;# 
   343  0085                     	;# 
   344  0086                     	;# 
   345  0087                     	;# 
   346  0088                     	;# 
   347  0089                     	;# 
   348  008C                     	;# 
   349  008D                     	;# 
   350  008E                     	;# 
   351  0091                     	;# 
   352  0092                     	;# 
   353  0093                     	;# 
   354  0094                     	;# 
   355  0098                     	;# 
   356  0099                     	;# 
   357  009C                     	;# 
   358  009D                     	;# 
   359  009E                     	;# 
   360  009F                     	;# 
   361  010C                     	;# 
   362  010D                     	;# 
   363  010E                     	;# 
   364  010F                     	;# 
   365  018C                     	;# 
   366  018D                     	;# 
   367  0000                     	;# 
   368  0001                     	;# 
   369  0002                     	;# 
   370  0003                     	;# 
   371  0004                     	;# 
   372  0005                     	;# 
   373  0006                     	;# 
   374  0007                     	;# 
   375  0008                     	;# 
   376  0009                     	;# 
   377  000A                     	;# 
   378  000B                     	;# 
   379  000C                     	;# 
   380  000D                     	;# 
   381  000E                     	;# 
   382  000E                     	;# 
   383  000F                     	;# 
   384  0010                     	;# 
   385  0011                     	;# 
   386  0012                     	;# 
   387  0013                     	;# 
   388  0014                     	;# 
   389  0015                     	;# 
   390  0015                     	;# 
   391  0016                     	;# 
   392  0017                     	;# 
   393  0018                     	;# 
   394  0019                     	;# 
   395  001A                     	;# 
   396  001B                     	;# 
   397  001B                     	;# 
   398  001C                     	;# 
   399  001D                     	;# 
   400  001E                     	;# 
   401  001F                     	;# 
   402  0081                     	;# 
   403  0085                     	;# 
   404  0086                     	;# 
   405  0087                     	;# 
   406  0088                     	;# 
   407  0089                     	;# 
   408  008C                     	;# 
   409  008D                     	;# 
   410  008E                     	;# 
   411  0091                     	;# 
   412  0092                     	;# 
   413  0093                     	;# 
   414  0094                     	;# 
   415  0098                     	;# 
   416  0099                     	;# 
   417  009C                     	;# 
   418  009D                     	;# 
   419  009E                     	;# 
   420  009F                     	;# 
   421  010C                     	;# 
   422  010D                     	;# 
   423  010E                     	;# 
   424  010F                     	;# 
   425  018C                     	;# 
   426  018D                     	;# 
   427                           
   428                           	psect	idataCOMMON
   429  0446                     __pidataCOMMON:	
   430                           
   431                           ;initializer for read_matrix_keypad@once
   432  0446  3401               	retlw	1
   433                           
   434                           	psect	idataBANK0
   435  0440                     __pidataBANK0:	
   436                           
   437                           ;initializer for _i
   438  0440  3403               	retlw	3
   439  0441  3400               	retlw	0
   440                           
   441                           ;initializer for _initial
   442  0442  3401               	retlw	1
   443                           
   444                           ;initializer for _password
   445  0443  3467               	retlw	low ((STR_1-__stringbase)| (0+32768))
   446                           
   447                           ;initializer for _chance
   448  0444  3405               	retlw	5
   449  0445  3400               	retlw	0
   450  0008                     _PORTD	set	8
   451  0092                     _TMR2ON	set	146
   452  0091                     _T2CKPS1	set	145
   453  0090                     _T2CKPS0	set	144
   454  0032                     _RB2	set	50
   455  0031                     _RB1	set	49
   456  0030                     _RB0	set	48
   457  0043                     _RD3	set	67
   458  0041                     _RD1	set	65
   459  0042                     _RD2	set	66
   460  0049                     _RE1	set	73
   461  004A                     _RE2	set	74
   462  005E                     _PEIE	set	94
   463  005F                     _GIE	set	95
   464  0047                     _RD7	set	71
   465  0092                     _PR2	set	146
   466  0086                     _TRISB	set	134
   467  0088                     _TRISD	set	136
   468  0461                     _TMR2IE	set	1121
   469  040F                     _nRBPU	set	1039
   470  0449                     _TRISE1	set	1097
   471  044A                     _TRISE2	set	1098
   472  0447                     _TRISD7	set	1095
   473                           
   474                           	psect	strings
   475  0200                     __pstrings:	
   476  0200                     stringtab:	
   477  0200                     __stringtab:	
   478  0200                     stringcode:	
   479                           ;	String table - string pointers are 1 byte each
   480                           
   481  0200                     stringdir:	
   482  0200  3002               	movlw	high stringdir
   483  0201  008A               	movwf	10
   484  0202  0804               	movf	4,w
   485  0203  0A84               	incf	4,f
   486  0204  0782               	addwf	2,f
   487  0205                     __stringbase:	
   488  0205  3400               	retlw	0
   489  0206                     __end_of__stringtab:	
   490  0206                     STR_5:	
   491  0206  3420               	retlw	32	;' '
   492  0207  3420               	retlw	32	;' '
   493  0208  3420               	retlw	32	;' '
   494  0209  3420               	retlw	32	;' '
   495  020A  3420               	retlw	32	;' '
   496  020B  3420               	retlw	32	;' '
   497  020C  3420               	retlw	32	;' '
   498  020D  3420               	retlw	32	;' '
   499  020E  3420               	retlw	32	;' '
   500  020F  3420               	retlw	32	;' '
   501  0210  3420               	retlw	32	;' '
   502  0211  3420               	retlw	32	;' '
   503  0212  3420               	retlw	32	;' '
   504  0213  3420               	retlw	32	;' '
   505  0214  3420               	retlw	32	;' '
   506  0215  3420               	retlw	32	;' '
   507  0216  3400               	retlw	0
   508  0217                     STR_3:	
   509  0217  3452               	retlw	82	;'R'
   510  0218  3465               	retlw	101	;'e'
   511  0219  3473               	retlw	115	;'s'
   512  021A  3465               	retlw	101	;'e'
   513  021B  3474               	retlw	116	;'t'
   514  021C  3420               	retlw	32	;' '
   515  021D  3474               	retlw	116	;'t'
   516  021E  3468               	retlw	104	;'h'
   517  021F  3465               	retlw	101	;'e'
   518  0220  3420               	retlw	32	;' '
   519  0221  3462               	retlw	98	;'b'
   520  0222  346F               	retlw	111	;'o'
   521  0223  3461               	retlw	97	;'a'
   522  0224  3472               	retlw	114	;'r'
   523  0225  3464               	retlw	100	;'d'
   524  0226  3420               	retlw	32	;' '
   525  0227  3400               	retlw	0
   526  0228                     STR_4:	
   527  0228  3420               	retlw	32	;' '
   528  0229  3445               	retlw	69	;'E'
   529  022A  346E               	retlw	110	;'n'
   530  022B  3474               	retlw	116	;'t'
   531  022C  3465               	retlw	101	;'e'
   532  022D  3472               	retlw	114	;'r'
   533  022E  3420               	retlw	32	;' '
   534  022F  3450               	retlw	80	;'P'
   535  0230  3461               	retlw	97	;'a'
   536  0231  3473               	retlw	115	;'s'
   537  0232  3473               	retlw	115	;'s'
   538  0233  3477               	retlw	119	;'w'
   539  0234  346F               	retlw	111	;'o'
   540  0235  3472               	retlw	114	;'r'
   541  0236  3464               	retlw	100	;'d'
   542  0237  3420               	retlw	32	;' '
   543  0238  3400               	retlw	0
   544  0239                     STR_6:	
   545  0239  3420               	retlw	32	;' '
   546  023A  3445               	retlw	69	;'E'
   547  023B  3478               	retlw	120	;'x'
   548  023C  3463               	retlw	99	;'c'
   549  023D  3465               	retlw	101	;'e'
   550  023E  346C               	retlw	108	;'l'
   551  023F  346C               	retlw	108	;'l'
   552  0240  3465               	retlw	101	;'e'
   553  0241  346E               	retlw	110	;'n'
   554  0242  3474               	retlw	116	;'t'
   555  0243  3420               	retlw	32	;' '
   556  0244  3420               	retlw	32	;' '
   557  0245  3459               	retlw	89	;'Y'
   558  0246  346F               	retlw	111	;'o'
   559  0247  3475               	retlw	117	;'u'
   560  0248  3420               	retlw	32	;' '
   561  0249  3400               	retlw	0
   562  024A                     STR_2:	
   563  024A  3443               	retlw	67	;'C'
   564  024B  3468               	retlw	104	;'h'
   565  024C  3461               	retlw	97	;'a'
   566  024D  346E               	retlw	110	;'n'
   567  024E  3463               	retlw	99	;'c'
   568  024F  3465               	retlw	101	;'e'
   569  0250  3473               	retlw	115	;'s'
   570  0251  3420               	retlw	32	;' '
   571  0252  3445               	retlw	69	;'E'
   572  0253  3478               	retlw	120	;'x'
   573  0254  3461               	retlw	97	;'a'
   574  0255  3475               	retlw	117	;'u'
   575  0256  3473               	retlw	115	;'s'
   576  0257  3474               	retlw	116	;'t'
   577  0258  3465               	retlw	101	;'e'
   578  0259  3464               	retlw	100	;'d'
   579  025A  3400               	retlw	0
   580  025B                     STR_7:	
   581  025B  3443               	retlw	67	;'C'
   582  025C  3472               	retlw	114	;'r'
   583  025D  3461               	retlw	97	;'a'
   584  025E  3463               	retlw	99	;'c'
   585  025F  346B               	retlw	107	;'k'
   586  0260  3465               	retlw	101	;'e'
   587  0261  3464               	retlw	100	;'d'
   588  0262  3420               	retlw	32	;' '
   589  0263  3474               	retlw	116	;'t'
   590  0264  3468               	retlw	104	;'h'
   591  0265  3465               	retlw	101	;'e'
   592  0266  3420               	retlw	32	;' '
   593  0267  3463               	retlw	99	;'c'
   594  0268  346F               	retlw	111	;'o'
   595  0269  3464               	retlw	100	;'d'
   596  026A  3465               	retlw	101	;'e'
   597  026B  3400               	retlw	0
   598  026C                     STR_1:	
   599  026C  3431               	retlw	49	;'1'
   600  026D  3432               	retlw	50	;'2'
   601  026E  3431               	retlw	49	;'1'
   602  026F  3432               	retlw	50	;'2'
   603  0270  3431               	retlw	49	;'1'
   604  0271  3432               	retlw	50	;'2'
   605  0272  3431               	retlw	49	;'1'
   606  0273  3432               	retlw	50	;'2'
   607  0274  3400               	retlw	0
   608                           
   609                           ; #config settings
   610  0000                     
   611                           	psect	cinit
   612  000F                     start_initialization:	
   613  000F                     __initialization:	
   614                           
   615                           ; Initialize objects allocated to BANK0
   616  000F  120A  118A  2440  120A  118A  	fcall	__pidataBANK0	;fetch initializer
   617  0014  00B8               	movwf	__pdataBANK0& (0+127)
   618  0015  120A  118A  2441  120A  118A  	fcall	__pidataBANK0+1	;fetch initializer
   619  001A  00B9               	movwf	(__pdataBANK0+1)& (0+127)
   620  001B  120A  118A  2442  120A  118A  	fcall	__pidataBANK0+2	;fetch initializer
   621  0020  00BA               	movwf	(__pdataBANK0+2)& (0+127)
   622  0021  120A  118A  2443  120A  118A  	fcall	__pidataBANK0+3	;fetch initializer
   623  0026  00BB               	movwf	(__pdataBANK0+3)& (0+127)
   624  0027  120A  118A  2444  120A  118A  	fcall	__pidataBANK0+4	;fetch initializer
   625  002C  00BC               	movwf	(__pdataBANK0+4)& (0+127)
   626  002D  120A  118A  2445  120A  118A  	fcall	__pidataBANK0+5	;fetch initializer
   627  0032  00BD               	movwf	(__pdataBANK0+5)& (0+127)
   628                           
   629                           ; Initialize objects allocated to COMMON
   630  0033  120A  118A  2446  120A  118A  	fcall	__pidataCOMMON	;fetch initializer
   631  0038  00FB               	movwf	__pdataCOMMON& (0+127)
   632                           
   633                           ; Clear objects allocated to BANK0
   634  0039  1383               	bcf	3,7	;select IRP bank0
   635  003A  3020               	movlw	low __pbssBANK0
   636  003B  0084               	movwf	4
   637  003C  3030               	movlw	low (__pbssBANK0+16)
   638  003D  120A  118A  2431  120A  118A  	fcall	clear_ram0
   639                           
   640                           ; Clear objects allocated to COMMON
   641  0042  01F8               	clrf	__pbssCOMMON& (0+127)
   642  0043  01F9               	clrf	(__pbssCOMMON+1)& (0+127)
   643  0044  01FA               	clrf	(__pbssCOMMON+2)& (0+127)
   644  0045                     end_of_initialization:	
   645                           ;End of C runtime variable initialization code
   646                           
   647  0045                     __end_of__initialization:	
   648  0045  0183               	clrf	3
   649  0046  120A  118A  2849   	ljmp	_main	;jump to C main() function
   650                           
   651                           	psect	bssCOMMON
   652  0078                     __pbssCOMMON:	
   653  0078                     _count:	
   654  0078                     	ds	1
   655  0079                     _duty_cycle:	
   656  0079                     	ds	1
   657  007A                     _loop_count:	
   658  007A                     	ds	1
   659                           
   660                           	psect	dataCOMMON
   661  007B                     __pdataCOMMON:	
   662  007B                     read_matrix_keypad@once:	
   663  007B                     	ds	1
   664                           
   665                           	psect	bssBANK0
   666  0020                     __pbssBANK0:	
   667  0020                     ledblink@wait:	
   668  0020                     	ds	2
   669  0022                     _blink:	
   670  0022                     	ds	2
   671  0024                     _cursor:	
   672  0024                     	ds	2
   673  0026                     _user:	
   674  0026                     	ds	10
   675                           
   676                           	psect	dataBANK0
   677  0038                     __pdataBANK0:	
   678  0038                     _i:	
   679  0038                     	ds	2
   680  003A                     _initial:	
   681  003A                     	ds	1
   682  003B                     _password:	
   683  003B                     	ds	1
   684  003C                     _chance:	
   685  003C                     	ds	2
   686                           
   687                           	psect	clrtext
   688  0431                     clear_ram0:	
   689                           ;	Called with FSR containing the base address, and
   690                           ;	W with the last address+1
   691                           
   692  0431  0064               	clrwdt	;clear the watchdog before getting into this loop
   693  0432                     clrloop0:	
   694  0432  0180               	clrf	0	;clear RAM location pointed to by FSR
   695  0433  0A84               	incf	4,f	;increment pointer
   696  0434  0604               	xorwf	4,w	;XOR with final address
   697  0435  1903               	btfsc	3,2	;have we reached the end yet?
   698  0436  3400               	retlw	0	;all done for this memory range, return
   699  0437  0604               	xorwf	4,w	;XOR again to restore value
   700  0438  2C32               	goto	clrloop0	;do the next byte
   701                           
   702                           	psect	cstackCOMMON
   703  0070                     __pcstackCOMMON:	
   704  0070                     ?_init_clcd:	
   705  0070                     ?_init_timer2:	
   706                           ; 1 bytes @ 0x0
   707                           
   708  0070                     ?_init_matrix_keypad:	
   709                           ; 1 bytes @ 0x0
   710                           
   711  0070                     ?_read_matrix_keypad:	
   712                           ; 1 bytes @ 0x0
   713                           
   714  0070                     ?_ledblink:	
   715                           ; 1 bytes @ 0x0
   716                           
   717  0070                     ?_init_config:	
   718                           ; 1 bytes @ 0x0
   719                           
   720  0070                     ?_main:	
   721                           ; 1 bytes @ 0x0
   722                           
   723  0070                     ?_init_display_controller:	
   724                           ; 1 bytes @ 0x0
   725                           
   726  0070                     ?_scan_keypad:	
   727                           ; 1 bytes @ 0x0
   728                           
   729  0070                     ?_isr:	
   730                           ; 1 bytes @ 0x0
   731                           
   732  0070                     ??_isr:	
   733                           ; 1 bytes @ 0x0
   734                           
   735                           
   736                           ; 1 bytes @ 0x0
   737  0070                     	ds	2
   738  0072                     ??_init_timer2:	
   739  0072                     ??_init_matrix_keypad:	
   740                           ; 1 bytes @ 0x2
   741                           
   742  0072                     ?_clcd_write:	
   743                           ; 1 bytes @ 0x2
   744                           
   745  0072                     ??_scan_keypad:	
   746                           ; 1 bytes @ 0x2
   747                           
   748  0072                     ?_strcmp:	
   749                           ; 1 bytes @ 0x2
   750                           
   751  0072                     ?___wmul:	
   752                           ; 2 bytes @ 0x2
   753                           
   754  0072                     clcd_write@mode:	
   755                           ; 2 bytes @ 0x2
   756                           
   757  0072                     strcmp@s2:	
   758                           ; 1 bytes @ 0x2
   759                           
   760  0072                     scan_keypad@i:	
   761                           ; 1 bytes @ 0x2
   762                           
   763  0072                     ___wmul@multiplier:	
   764                           ; 2 bytes @ 0x2
   765                           
   766                           
   767                           ; 2 bytes @ 0x2
   768  0072                     	ds	1
   769  0073                     ??_clcd_write:	
   770                           
   771                           ; 1 bytes @ 0x3
   772  0073                     	ds	1
   773  0074                     ??_read_matrix_keypad:	
   774  0074                     ??_strcmp:	
   775                           ; 1 bytes @ 0x4
   776                           
   777  0074                     ___wmul@multiplicand:	
   778                           ; 1 bytes @ 0x4
   779                           
   780                           
   781                           ; 2 bytes @ 0x4
   782  0074                     	ds	1
   783  0075                     clcd_write@byte:	
   784  0075                     read_matrix_keypad@mode:	
   785                           ; 1 bytes @ 0x5
   786                           
   787                           
   788                           ; 1 bytes @ 0x5
   789  0075                     	ds	1
   790  0076                     ?_clcd_print:	
   791  0076                     ?_clcd_putch:	
   792                           ; 1 bytes @ 0x6
   793                           
   794  0076                     ??_init_display_controller:	
   795                           ; 1 bytes @ 0x6
   796                           
   797  0076                     ??___wmul:	
   798                           ; 1 bytes @ 0x6
   799                           
   800  0076                     clcd_putch@addr:	
   801                           ; 1 bytes @ 0x6
   802                           
   803  0076                     clcd_print@addr:	
   804                           ; 1 bytes @ 0x6
   805                           
   806  0076                     read_matrix_keypad@key:	
   807                           ; 1 bytes @ 0x6
   808                           
   809  0076                     ___wmul@product:	
   810                           ; 1 bytes @ 0x6
   811                           
   812                           
   813                           ; 2 bytes @ 0x6
   814  0076                     	ds	1
   815  0077                     ??_clcd_print:	
   816  0077                     ??_clcd_putch:	
   817                           ; 1 bytes @ 0x7
   818                           
   819  0077                     clcd_putch@data:	
   820                           ; 1 bytes @ 0x7
   821                           
   822                           
   823                           ; 1 bytes @ 0x7
   824  0077                     	ds	1
   825  0078                     ??_init_clcd:	
   826  0078                     ??_ledblink:	
   827                           ; 1 bytes @ 0x8
   828                           
   829  0078                     ??_init_config:	
   830                           ; 1 bytes @ 0x8
   831                           
   832                           
   833                           	psect	cstackBANK0
   834  0030                     __pcstackBANK0:	
   835                           ; 1 bytes @ 0x8
   836                           
   837  0030                     ledblink@chance:	
   838  0030                     clcd_print@str:	
   839                           ; 1 bytes @ 0x0
   840                           
   841  0030                     strcmp@r:	
   842                           ; 1 bytes @ 0x0
   843                           
   844                           
   845                           ; 1 bytes @ 0x0
   846  0030                     	ds	1
   847  0031                     strcmp@s1:	
   848                           
   849                           ; 1 bytes @ 0x1
   850  0031                     	ds	1
   851  0032                     ??_main:	
   852                           
   853                           ; 1 bytes @ 0x2
   854  0032                     	ds	1
   855  0033                     main@wait:	
   856                           
   857                           ; 2 bytes @ 0x3
   858  0033                     	ds	2
   859  0035                     main@key:	
   860                           
   861                           ; 1 bytes @ 0x5
   862  0035                     	ds	1
   863  0036                     main@j:	
   864                           
   865                           ; 2 bytes @ 0x6
   866  0036                     	ds	2
   867                           
   868                           	psect	maintext
   869  0049                     __pmaintext:	
   870 ;;
   871 ;;Main: autosize = 0, tempsize = 1, incstack = 0, save=0
   872 ;;
   873 ;; *************** function _main *****************
   874 ;; Defined at:
   875 ;;		line 44 in file "main.c"
   876 ;; Parameters:    Size  Location     Type
   877 ;;		None
   878 ;; Auto vars:     Size  Location     Type
   879 ;;  j               2    6[BANK0 ] unsigned int 
   880 ;;  wait            2    3[BANK0 ] unsigned int 
   881 ;;  key             1    5[BANK0 ] unsigned char 
   882 ;; Return value:  Size  Location     Type
   883 ;;                  1    wreg      void 
   884 ;; Registers used:
   885 ;;		wreg, fsr0l, fsr0h, status,2, status,0, btemp+1, pclath, cstack
   886 ;; Tracked objects:
   887 ;;		On entry : B00/0
   888 ;;		On exit  : 0/0
   889 ;;		Unchanged: 0/0
   890 ;; Data sizes:     COMMON   BANK0   BANK1   BANK3   BANK2
   891 ;;      Params:         0       0       0       0       0
   892 ;;      Locals:         0       5       0       0       0
   893 ;;      Temps:          0       1       0       0       0
   894 ;;      Totals:         0       6       0       0       0
   895 ;;Total ram usage:        6 bytes
   896 ;; Hardware stack levels required when called:    5
   897 ;; This function calls:
   898 ;;		_clcd_print
   899 ;;		_clcd_putch
   900 ;;		_init_config
   901 ;;		_ledblink
   902 ;;		_read_matrix_keypad
   903 ;;		_strcmp
   904 ;; This function is called by:
   905 ;;		Startup code after reset
   906 ;; This function uses a non-reentrant model
   907 ;;
   908                           
   909                           
   910                           ;psect for function _main
   911  0049                     _main:	
   912  0049                     l1461:	
   913                           ;incstack = 0
   914                           ; Regs used in _main: [wreg-fsr0h+status,2+status,0+btemp+1+pclath+cstack]
   915                           
   916                           
   917                           ;main.c: 45:                 user[9]=0;
   918  0049  1283               	bcf	3,5	;RP0=0, select bank0
   919  004A  1303               	bcf	3,6	;RP1=0, select bank0
   920  004B  01B3               	clrf	main@wait
   921  004C  01B4               	clrf	main@wait+1
   922  004D  01B6               	clrf	main@j
   923  004E  01B7               	clrf	main@j+1
   924  004F                     l1463:	
   925                           
   926                           ;main.c: 46:                 initial = 0,j = 0,i = 3,wait = 0;;main.c: 47:             }
   927  004F  120A  118A  23E1  120A  118A  	fcall	_init_config
   928  0054                     l1465:	
   929                           
   930                           ;main.c: 49: 
   931  0054  3001               	movlw	1
   932  0055  120A  118A  2397  120A  118A  	fcall	_read_matrix_keypad
   933  005A  1283               	bcf	3,5	;RP0=0, select bank0
   934  005B  1303               	bcf	3,6	;RP1=0, select bank0
   935  005C  00B2               	movwf	??_main
   936  005D  0832               	movf	??_main,w
   937  005E  00B5               	movwf	main@key
   938  005F                     l1467:	
   939                           
   940                           ;main.c: 50:        if(key != 0xFF)
   941  005F  083A               	movf	_initial,w
   942  0060  1903               	btfsc	3,2
   943  0061  2863               	goto	u841
   944  0062  2864               	goto	u840
   945  0063                     u841:	
   946  0063  28AA               	goto	l1489
   947  0064                     u840:	
   948  0064                     l1469:	
   949                           
   950                           ;main.c: 51:         {;main.c: 52:             if(i <= 10)
   951  0064  083C               	movf	_chance,w
   952  0065  043D               	iorwf	_chance+1,w
   953  0066  1D03               	btfss	3,2
   954  0067  2869               	goto	u851
   955  0068  286A               	goto	u850
   956  0069                     u851:	
   957  0069  2888               	goto	l1477
   958  006A                     u850:	
   959  006A                     l1471:	
   960                           
   961                           ;main.c: 53:             {;main.c: 54:                 user[j]='0' + key;
   962  006A  3080               	movlw	128
   963  006B  00B2               	movwf	??_main
   964  006C  0832               	movf	??_main,w
   965  006D  00F6               	movwf	clcd_print@addr
   966  006E  3045               	movlw	(low ((STR_2-__stringbase)| (0+32768)))& (0+255)
   967  006F  120A  118A  233E  120A  118A  	fcall	_clcd_print
   968                           
   969                           ;main.c: 55:                 clcd_putch('*',(0xC0 + i));
   970  0074  30C0               	movlw	192
   971  0075  1283               	bcf	3,5	;RP0=0, select bank0
   972  0076  1303               	bcf	3,6	;RP1=0, select bank0
   973  0077  00B2               	movwf	??_main
   974  0078  0832               	movf	??_main,w
   975  0079  00F6               	movwf	clcd_print@addr
   976  007A  3012               	movlw	(low ((STR_3-__stringbase)| (0+32768)))& (0+255)
   977  007B  120A  118A  233E  120A  118A  	fcall	_clcd_print
   978  0080                     l1473:	
   979                           
   980                           ;main.c: 56:                 j++;
   981  0080  3011               	movlw	17
   982  0081  1283               	bcf	3,5	;RP0=0, select bank0
   983  0082  1303               	bcf	3,6	;RP1=0, select bank0
   984  0083  00B8               	movwf	_i
   985  0084  3000               	movlw	0
   986  0085  00B9               	movwf	_i+1
   987  0086                     l1475:	
   988                           
   989                           ;main.c: 57:                 i++;
   990  0086  01BA               	clrf	_initial
   991                           
   992                           ;main.c: 58:             }
   993  0087  28AA               	goto	l1489
   994  0088                     l1477:	
   995                           
   996                           ;main.c: 60: ;main.c: 61:         else if(j == 8)
   997  0088  3080               	movlw	128
   998  0089  00B2               	movwf	??_main
   999  008A  0832               	movf	??_main,w
  1000  008B  00F6               	movwf	clcd_print@addr
  1001  008C  3023               	movlw	(low ((STR_4-__stringbase)| (0+32768)))& (0+255)
  1002  008D  120A  118A  233E  120A  118A  	fcall	_clcd_print
  1003                           
  1004                           ;main.c: 62:         {
  1005  0092  30C0               	movlw	192
  1006  0093  1283               	bcf	3,5	;RP0=0, select bank0
  1007  0094  1303               	bcf	3,6	;RP1=0, select bank0
  1008  0095  00B2               	movwf	??_main
  1009  0096  0832               	movf	??_main,w
  1010  0097  00F6               	movwf	clcd_print@addr
  1011  0098  3001               	movlw	(low ((STR_5-__stringbase)| (0+32768)))& (0+255)
  1012  0099  120A  118A  233E  120A  118A  	fcall	_clcd_print
  1013  009E                     l1479:	
  1014                           
  1015                           ;main.c: 63:             user[j]='\0';
  1016  009E  1283               	bcf	3,5	;RP0=0, select bank0
  1017  009F  1303               	bcf	3,6	;RP1=0, select bank0
  1018  00A0  01AF               	clrf	_user+9
  1019  00A1                     l1481:	
  1020                           
  1021                           ;main.c: 64: 
  1022  00A1  01BA               	clrf	_initial
  1023  00A2                     l1483:	
  1024  00A2  01B6               	clrf	main@j
  1025  00A3  01B7               	clrf	main@j+1
  1026  00A4                     l1485:	
  1027  00A4  3003               	movlw	3
  1028  00A5  00B8               	movwf	_i
  1029  00A6  3000               	movlw	0
  1030  00A7  00B9               	movwf	_i+1
  1031  00A8                     l1487:	
  1032  00A8  01B3               	clrf	main@wait
  1033  00A9  01B4               	clrf	main@wait+1
  1034  00AA                     l1489:	
  1035                           
  1036                           ;main.c: 68:                clcd_print("Cracked the code",(0xC0 + 0));
  1037  00AA  0A35               	incf	main@key,w
  1038  00AB  1903               	btfsc	3,2
  1039  00AC  28AE               	goto	u861
  1040  00AD  28AF               	goto	u860
  1041  00AE                     u861:	
  1042  00AE  28E1               	goto	l1501
  1043  00AF                     u860:	
  1044  00AF                     l1491:	
  1045                           
  1046                           ;main.c: 69:                wait = 4;;main.c: 70:                chance = 0;
  1047  00AF  0839               	movf	_i+1,w
  1048  00B0  3A80               	xorlw	128
  1049  00B1  00FF               	movwf	btemp+1
  1050  00B2  3080               	movlw	128
  1051  00B3  027F               	subwf	btemp+1,w
  1052  00B4  1D03               	skipz
  1053  00B5  28B8               	goto	u875
  1054  00B6  300B               	movlw	11
  1055  00B7  0238               	subwf	_i,w
  1056  00B8                     u875:	
  1057  00B8  1803               	skipnc
  1058  00B9  28BB               	goto	u871
  1059  00BA  28BC               	goto	u870
  1060  00BB                     u871:	
  1061  00BB  294A               	goto	l1521
  1062  00BC                     u870:	
  1063  00BC                     l1493:	
  1064                           
  1065                           ;main.c: 71:            };main.c: 72:            else
  1066  00BC  1283               	bcf	3,5	;RP0=0, select bank0
  1067  00BD  1303               	bcf	3,6	;RP1=0, select bank0
  1068  00BE  0835               	movf	main@key,w
  1069  00BF  3E30               	addlw	48
  1070  00C0  00B2               	movwf	??_main
  1071  00C1  0836               	movf	main@j,w
  1072  00C2  3E26               	addlw	(low (_user| 0))& (0+255)
  1073  00C3  0084               	movwf	4
  1074  00C4  0832               	movf	??_main,w
  1075  00C5  1383               	bcf	3,7	;select IRP bank0
  1076  00C6  0080               	movwf	0
  1077  00C7                     l1495:	
  1078                           
  1079                           ;main.c: 73:            {
  1080  00C7  0838               	movf	_i,w
  1081  00C8  3EC0               	addlw	192
  1082  00C9  00B2               	movwf	??_main
  1083  00CA  0832               	movf	??_main,w
  1084  00CB  00F6               	movwf	clcd_putch@addr
  1085  00CC  302A               	movlw	42
  1086  00CD  120A  118A  23F9  120A  118A  	fcall	_clcd_putch
  1087  00D2                     l1497:	
  1088                           
  1089                           ;main.c: 74:                initial = 1;
  1090  00D2  3001               	movlw	1
  1091  00D3  1283               	bcf	3,5	;RP0=0, select bank0
  1092  00D4  1303               	bcf	3,6	;RP1=0, select bank0
  1093  00D5  07B6               	addwf	main@j,f
  1094  00D6  1803               	skipnc
  1095  00D7  0AB7               	incf	main@j+1,f
  1096  00D8  3000               	movlw	0
  1097  00D9  07B7               	addwf	main@j+1,f
  1098  00DA                     l1499:	
  1099                           
  1100                           ;main.c: 75:                chance--;
  1101  00DA  3001               	movlw	1
  1102  00DB  07B8               	addwf	_i,f
  1103  00DC  1803               	skipnc
  1104  00DD  0AB9               	incf	_i+1,f
  1105  00DE  3000               	movlw	0
  1106  00DF  07B9               	addwf	_i+1,f
  1107  00E0  294A               	goto	l1521
  1108  00E1                     l1501:	
  1109  00E1  3008               	movlw	8
  1110  00E2  0636               	xorwf	main@j,w
  1111  00E3  0437               	iorwf	main@j+1,w
  1112  00E4  1D03               	btfss	3,2
  1113  00E5  28E7               	goto	u881
  1114  00E6  28E8               	goto	u880
  1115  00E7                     u881:	
  1116  00E7  294A               	goto	l1521
  1117  00E8                     u880:	
  1118  00E8                     l1503:	
  1119                           
  1120                           ;main.c: 80:             };main.c: 81:         }
  1121  00E8  0836               	movf	main@j,w
  1122  00E9  3E26               	addlw	(low (_user| 0))& (0+255)
  1123  00EA  0084               	movwf	4
  1124  00EB  1383               	bcf	3,7	;select IRP bank0
  1125  00EC  0180               	clrf	0
  1126  00ED                     l1505:	
  1127                           
  1128                           ;main.c: 83:         {
  1129  00ED  3067               	movlw	(low ((STR_1-__stringbase)| (0+32768)))& (0+255)
  1130  00EE  00B2               	movwf	??_main
  1131  00EF  0832               	movf	??_main,w
  1132  00F0  00F2               	movwf	strcmp@s2
  1133  00F1  3026               	movlw	(low (_user| 0))& (0+255)
  1134  00F2  120A  118A  230E  120A  118A  	fcall	_strcmp
  1135  00F7  0872               	movf	?_strcmp,w
  1136  00F8  0473               	iorwf	?_strcmp+1,w
  1137  00F9  1D03               	btfss	3,2
  1138  00FA  28FC               	goto	u891
  1139  00FB  28FD               	goto	u890
  1140  00FC                     u891:	
  1141  00FC  291E               	goto	l64
  1142  00FD                     u890:	
  1143  00FD                     l1507:	
  1144                           
  1145                           ;main.c: 84: ;main.c: 85:             clcd_putch('_',(0xC0 + i));
  1146  00FD  3080               	movlw	128
  1147  00FE  1283               	bcf	3,5	;RP0=0, select bank0
  1148  00FF  1303               	bcf	3,6	;RP1=0, select bank0
  1149  0100  00B2               	movwf	??_main
  1150  0101  0832               	movf	??_main,w
  1151  0102  00F6               	movwf	clcd_print@addr
  1152  0103  3034               	movlw	(low ((STR_6-__stringbase)| (0+32768)))& (0+255)
  1153  0104  120A  118A  233E  120A  118A  	fcall	_clcd_print
  1154                           
  1155                           ;main.c: 86:             wait++;
  1156  0109  30C0               	movlw	192
  1157  010A  1283               	bcf	3,5	;RP0=0, select bank0
  1158  010B  1303               	bcf	3,6	;RP1=0, select bank0
  1159  010C  00B2               	movwf	??_main
  1160  010D  0832               	movf	??_main,w
  1161  010E  00F6               	movwf	clcd_print@addr
  1162  010F  3056               	movlw	(low ((STR_7-__stringbase)| (0+32768)))& (0+255)
  1163  0110  120A  118A  233E  120A  118A  	fcall	_clcd_print
  1164  0115                     l1509:	
  1165                           
  1166                           ;main.c: 87:         }
  1167  0115  3004               	movlw	4
  1168  0116  1283               	bcf	3,5	;RP0=0, select bank0
  1169  0117  1303               	bcf	3,6	;RP1=0, select bank0
  1170  0118  00B3               	movwf	main@wait
  1171  0119  3000               	movlw	0
  1172  011A  00B4               	movwf	main@wait+1
  1173  011B                     l1511:	
  1174                           
  1175                           ;main.c: 88:         else
  1176  011B  01BC               	clrf	_chance
  1177  011C  01BD               	clrf	_chance+1
  1178                           
  1179                           ;main.c: 89:         {
  1180  011D  2928               	goto	l1515
  1181  011E                     l64:	
  1182                           ;main.c: 90:             clcd_putch(' ',(0xC0 + i));
  1183                           
  1184                           
  1185                           ;main.c: 91:             wait = 0;;main.c: 92:         }
  1186  011E  1283               	bcf	3,5	;RP0=0, select bank0
  1187  011F  1303               	bcf	3,6	;RP1=0, select bank0
  1188  0120  01BA               	clrf	_initial
  1189  0121  0ABA               	incf	_initial,f
  1190  0122                     l1513:	
  1191                           
  1192                           ;main.c: 93: 
  1193  0122  30FF               	movlw	255
  1194  0123  07BC               	addwf	_chance,f
  1195  0124  1803               	skipnc
  1196  0125  0ABD               	incf	_chance+1,f
  1197  0126  30FF               	movlw	255
  1198  0127  07BD               	addwf	_chance+1,f
  1199  0128                     l1515:	
  1200                           
  1201                           ;main.c: 95: 
  1202  0128  083D               	movf	_chance+1,w
  1203  0129  3A80               	xorlw	128
  1204  012A  00FF               	movwf	btemp+1
  1205  012B  3080               	movlw	128
  1206  012C  027F               	subwf	btemp+1,w
  1207  012D  1D03               	skipz
  1208  012E  2931               	goto	u905
  1209  012F  3005               	movlw	5
  1210  0130  023C               	subwf	_chance,w
  1211  0131                     u905:	
  1212  0131  1803               	skipnc
  1213  0132  2934               	goto	u901
  1214  0133  2935               	goto	u900
  1215  0134                     u901:	
  1216  0134  294A               	goto	l1521
  1217  0135                     u900:	
  1218  0135                     l1517:	
  1219  0135  1283               	bcf	3,5	;RP0=0, select bank0
  1220  0136  1303               	bcf	3,6	;RP1=0, select bank0
  1221  0137  083D               	movf	_chance+1,w
  1222  0138  3A80               	xorlw	128
  1223  0139  00FF               	movwf	btemp+1
  1224  013A  3080               	movlw	128
  1225  013B  027F               	subwf	btemp+1,w
  1226  013C  1D03               	skipz
  1227  013D  2940               	goto	u915
  1228  013E  3001               	movlw	1
  1229  013F  023C               	subwf	_chance,w
  1230  0140                     u915:	
  1231  0140  1C03               	skipc
  1232  0141  2943               	goto	u911
  1233  0142  2944               	goto	u910
  1234  0143                     u911:	
  1235  0143  294A               	goto	l1521
  1236  0144                     u910:	
  1237  0144                     l1519:	
  1238                           
  1239                           ;main.c: 96:     return;;main.c: 97: }
  1240  0144  303C               	movlw	(low (_chance| 0))& (0+255)
  1241  0145  120A  118A  236C  120A  118A  	fcall	_ledblink
  1242  014A                     l1521:	
  1243  014A  3000               	movlw	0
  1244  014B  1283               	bcf	3,5	;RP0=0, select bank0
  1245  014C  1303               	bcf	3,6	;RP1=0, select bank0
  1246  014D  0234               	subwf	main@wait+1,w
  1247  014E  3002               	movlw	2
  1248  014F  1903               	skipnz
  1249  0150  0233               	subwf	main@wait,w
  1250  0151  1803               	skipnc
  1251  0152  2954               	goto	u921
  1252  0153  2955               	goto	u920
  1253  0154                     u921:	
  1254  0154  2969               	goto	l1527
  1255  0155                     u920:	
  1256  0155                     l1523:	
  1257  0155  0838               	movf	_i,w
  1258  0156  3EC0               	addlw	192
  1259  0157  00B2               	movwf	??_main
  1260  0158  0832               	movf	??_main,w
  1261  0159  00F6               	movwf	clcd_putch@addr
  1262  015A  305F               	movlw	95
  1263  015B  120A  118A  23F9  120A  118A  	fcall	_clcd_putch
  1264  0160                     l1525:	
  1265  0160  3001               	movlw	1
  1266  0161  1283               	bcf	3,5	;RP0=0, select bank0
  1267  0162  1303               	bcf	3,6	;RP1=0, select bank0
  1268  0163  07B3               	addwf	main@wait,f
  1269  0164  1803               	skipnc
  1270  0165  0AB4               	incf	main@wait+1,f
  1271  0166  3000               	movlw	0
  1272  0167  07B4               	addwf	main@wait+1,f
  1273  0168  2854               	goto	l1465
  1274  0169                     l1527:	
  1275  0169  0838               	movf	_i,w
  1276  016A  3EC0               	addlw	192
  1277  016B  00B2               	movwf	??_main
  1278  016C  0832               	movf	??_main,w
  1279  016D  00F6               	movwf	clcd_putch@addr
  1280  016E  3020               	movlw	32
  1281  016F  120A  118A  23F9  120A  118A  	fcall	_clcd_putch
  1282  0174                     l1529:	
  1283  0174  1283               	bcf	3,5	;RP0=0, select bank0
  1284  0175  1303               	bcf	3,6	;RP1=0, select bank0
  1285  0176  01B3               	clrf	main@wait
  1286  0177  01B4               	clrf	main@wait+1
  1287  0178  2854               	goto	l1465
  1288  0179  120A  118A  280C   	ljmp	start
  1289  017C                     __end_of_main:	
  1290                           
  1291                           	psect	text1
  1292  030E                     __ptext1:	
  1293 ;; *************** function _strcmp *****************
  1294 ;; Defined at:
  1295 ;;		line 33 in file "/opt/microchip/xc8/v2.10/pic/sources/c90/common/strcmp.c"
  1296 ;; Parameters:    Size  Location     Type
  1297 ;;  s1              1    wreg     PTR const unsigned char 
  1298 ;;		 -> user(10), 
  1299 ;;  s2              1    2[COMMON] PTR const unsigned char 
  1300 ;;		 -> STR_1(9), 
  1301 ;; Auto vars:     Size  Location     Type
  1302 ;;  s1              1    1[BANK0 ] PTR const unsigned char 
  1303 ;;		 -> user(10), 
  1304 ;;  r               1    0[BANK0 ] char 
  1305 ;; Return value:  Size  Location     Type
  1306 ;;                  2    2[COMMON] int 
  1307 ;; Registers used:
  1308 ;;		wreg, fsr0l, fsr0h, status,2, status,0, pclath
  1309 ;; Tracked objects:
  1310 ;;		On entry : 0/0
  1311 ;;		On exit  : 0/0
  1312 ;;		Unchanged: 0/0
  1313 ;; Data sizes:     COMMON   BANK0   BANK1   BANK3   BANK2
  1314 ;;      Params:         2       0       0       0       0
  1315 ;;      Locals:         0       2       0       0       0
  1316 ;;      Temps:          3       0       0       0       0
  1317 ;;      Totals:         5       2       0       0       0
  1318 ;;Total ram usage:        7 bytes
  1319 ;; Hardware stack levels used:    2
  1320 ;; Hardware stack levels required when called:    1
  1321 ;; This function calls:
  1322 ;;		Nothing
  1323 ;; This function is called by:
  1324 ;;		_main
  1325 ;; This function uses a non-reentrant model
  1326 ;;
  1327                           
  1328                           
  1329                           ;psect for function _strcmp
  1330  030E                     _strcmp:	
  1331                           
  1332                           ;incstack = 0
  1333                           ; Regs used in _strcmp: [wreg-fsr0h+status,2+status,0+pclath]
  1334                           ;strcmp@s1 stored from wreg
  1335  030E  1283               	bcf	3,5	;RP0=0, select bank0
  1336  030F  1303               	bcf	3,6	;RP1=0, select bank0
  1337  0310  00B1               	movwf	strcmp@s1
  1338  0311                     l1447:	
  1339  0311  2B1A               	goto	l1453
  1340  0312                     l1449:	
  1341  0312  3001               	movlw	1
  1342  0313  00F4               	movwf	??_strcmp
  1343  0314  0874               	movf	??_strcmp,w
  1344  0315  07B1               	addwf	strcmp@s1,f
  1345  0316                     l1451:	
  1346  0316  3001               	movlw	1
  1347  0317  00F4               	movwf	??_strcmp
  1348  0318  0874               	movf	??_strcmp,w
  1349  0319  07F2               	addwf	strcmp@s2,f
  1350  031A                     l1453:	
  1351  031A  0872               	movf	strcmp@s2,w
  1352  031B  0084               	movwf	4
  1353  031C  120A  118A  2200  120A  118A  	fcall	stringdir
  1354  0321  00F4               	movwf	??_strcmp
  1355  0322  0831               	movf	strcmp@s1,w
  1356  0323  0084               	movwf	4
  1357  0324  1383               	bcf	3,7	;select IRP bank0
  1358  0325  0800               	movf	0,w
  1359  0326  00F5               	movwf	??_strcmp+1
  1360  0327  0874               	movf	??_strcmp,w
  1361  0328  0275               	subwf	??_strcmp+1,w
  1362  0329  00F6               	movwf	??_strcmp+2
  1363  032A  0876               	movf	??_strcmp+2,w
  1364  032B  00B0               	movwf	strcmp@r
  1365  032C  0830               	movf	strcmp@r,w
  1366  032D  1D03               	btfss	3,2
  1367  032E  2B30               	goto	u821
  1368  032F  2B31               	goto	u820
  1369  0330                     u821:	
  1370  0330  2B38               	goto	l1457
  1371  0331                     u820:	
  1372  0331                     l1455:	
  1373  0331  0831               	movf	strcmp@s1,w
  1374  0332  0084               	movwf	4
  1375  0333  0800               	movf	0,w
  1376  0334  1D03               	btfss	3,2
  1377  0335  2B37               	goto	u831
  1378  0336  2B38               	goto	u830
  1379  0337                     u831:	
  1380  0337  2B12               	goto	l1449
  1381  0338                     u830:	
  1382  0338                     l1457:	
  1383  0338  0830               	movf	strcmp@r,w
  1384  0339  00F2               	movwf	?_strcmp
  1385  033A  01F3               	clrf	?_strcmp+1
  1386  033B  1BF2               	btfsc	?_strcmp,7
  1387  033C  03F3               	decf	?_strcmp+1,f
  1388  033D                     l715:	
  1389  033D  0008               	return
  1390  033E                     __end_of_strcmp:	
  1391                           
  1392                           	psect	text2
  1393  0397                     __ptext2:	
  1394 ;; *************** function _read_matrix_keypad *****************
  1395 ;; Defined at:
  1396 ;;		line 89 in file "matrix_keypad.c"
  1397 ;; Parameters:    Size  Location     Type
  1398 ;;  mode            1    wreg     unsigned char 
  1399 ;; Auto vars:     Size  Location     Type
  1400 ;;  mode            1    5[COMMON] unsigned char 
  1401 ;;  key             1    6[COMMON] unsigned char 
  1402 ;; Return value:  Size  Location     Type
  1403 ;;                  1    wreg      unsigned char 
  1404 ;; Registers used:
  1405 ;;		wreg, status,2, status,0, pclath, cstack
  1406 ;; Tracked objects:
  1407 ;;		On entry : 0/0
  1408 ;;		On exit  : 0/0
  1409 ;;		Unchanged: 0/0
  1410 ;; Data sizes:     COMMON   BANK0   BANK1   BANK3   BANK2
  1411 ;;      Params:         0       0       0       0       0
  1412 ;;      Locals:         2       0       0       0       0
  1413 ;;      Temps:          1       0       0       0       0
  1414 ;;      Totals:         3       0       0       0       0
  1415 ;;Total ram usage:        3 bytes
  1416 ;; Hardware stack levels used:    1
  1417 ;; Hardware stack levels required when called:    2
  1418 ;; This function calls:
  1419 ;;		_scan_keypad
  1420 ;; This function is called by:
  1421 ;;		_main
  1422 ;; This function uses a non-reentrant model
  1423 ;;
  1424                           
  1425                           
  1426                           ;psect for function _read_matrix_keypad
  1427  0397                     _read_matrix_keypad:	
  1428                           
  1429                           ;incstack = 0
  1430                           ; Regs used in _read_matrix_keypad: [wreg+status,2+status,0+pclath+cstack]
  1431                           ;read_matrix_keypad@mode stored from wreg
  1432  0397  00F5               	movwf	read_matrix_keypad@mode
  1433  0398                     l1231:	
  1434                           
  1435                           ;matrix_keypad.c: 89: unsigned char read_matrix_keypad(unsigned char mode);matrix_keypad
      +                          .c: 90: {;matrix_keypad.c: 91:     static unsigned char once = 1;;matrix_keypad.c: 92:  
      +                             unsigned char key;;matrix_keypad.c: 94:     key = scan_keypad();
  1436  0398  120A  118A  217C  120A  118A  	fcall	_scan_keypad
  1437  039D  00F4               	movwf	??_read_matrix_keypad
  1438  039E  0874               	movf	??_read_matrix_keypad,w
  1439  039F  00F6               	movwf	read_matrix_keypad@key
  1440  03A0                     l1233:	
  1441                           
  1442                           ;matrix_keypad.c: 96:     if (mode == 0)
  1443  03A0  0875               	movf	read_matrix_keypad@mode,w
  1444  03A1  1D03               	btfss	3,2
  1445  03A2  2BA4               	goto	u571
  1446  03A3  2BA5               	goto	u570
  1447  03A4                     u571:	
  1448  03A4  2BA7               	goto	l1241
  1449  03A5                     u570:	
  1450  03A5                     l1235:	
  1451                           
  1452                           ;matrix_keypad.c: 97:     {;matrix_keypad.c: 98:         return key;
  1453  03A5  0876               	movf	read_matrix_keypad@key,w
  1454  03A6  2BBB               	goto	l157
  1455  03A7                     l1241:	
  1456                           
  1457                           ;matrix_keypad.c: 101:     {;matrix_keypad.c: 102:         if ((key != 0xFF) && once)
  1458  03A7  0A76               	incf	read_matrix_keypad@key,w
  1459  03A8  1903               	btfsc	3,2
  1460  03A9  2BAB               	goto	u581
  1461  03AA  2BAC               	goto	u580
  1462  03AB                     u581:	
  1463  03AB  2BB3               	goto	l1253
  1464  03AC                     u580:	
  1465  03AC                     l1243:	
  1466  03AC  087B               	movf	read_matrix_keypad@once,w
  1467  03AD  1903               	btfsc	3,2
  1468  03AE  2BB0               	goto	u591
  1469  03AF  2BB1               	goto	u590
  1470  03B0                     u591:	
  1471  03B0  2BB3               	goto	l1253
  1472  03B1                     u590:	
  1473  03B1                     l1245:	
  1474                           
  1475                           ;matrix_keypad.c: 103:         {;matrix_keypad.c: 104:             once = 0;
  1476  03B1  01FB               	clrf	read_matrix_keypad@once
  1477  03B2  2BA5               	goto	l1235
  1478  03B3                     l1253:	
  1479  03B3  0A76               	incf	read_matrix_keypad@key,w
  1480  03B4  1D03               	btfss	3,2
  1481  03B5  2BB7               	goto	u601
  1482  03B6  2BB8               	goto	u600
  1483  03B7                     u601:	
  1484  03B7  2BBA               	goto	l1257
  1485  03B8                     u600:	
  1486  03B8                     l1255:	
  1487                           
  1488                           ;matrix_keypad.c: 109:         {;matrix_keypad.c: 110:             once = 1;
  1489  03B8  01FB               	clrf	read_matrix_keypad@once
  1490  03B9  0AFB               	incf	read_matrix_keypad@once,f
  1491  03BA                     l1257:	
  1492                           
  1493                           ;matrix_keypad.c: 114:     return 0xFF;
  1494  03BA  30FF               	movlw	255
  1495  03BB                     l157:	
  1496  03BB  0008               	return
  1497  03BC                     __end_of_read_matrix_keypad:	
  1498                           
  1499                           	psect	text3
  1500  017C                     __ptext3:	
  1501 ;; *************** function _scan_keypad *****************
  1502 ;; Defined at:
  1503 ;;		line 21 in file "matrix_keypad.c"
  1504 ;; Parameters:    Size  Location     Type
  1505 ;;		None
  1506 ;; Auto vars:     Size  Location     Type
  1507 ;;  i               2    2[COMMON] int 
  1508 ;; Return value:  Size  Location     Type
  1509 ;;                  1    wreg      unsigned char 
  1510 ;; Registers used:
  1511 ;;		wreg, status,2, status,0
  1512 ;; Tracked objects:
  1513 ;;		On entry : 0/0
  1514 ;;		On exit  : 0/0
  1515 ;;		Unchanged: 0/0
  1516 ;; Data sizes:     COMMON   BANK0   BANK1   BANK3   BANK2
  1517 ;;      Params:         0       0       0       0       0
  1518 ;;      Locals:         2       0       0       0       0
  1519 ;;      Temps:          0       0       0       0       0
  1520 ;;      Totals:         2       0       0       0       0
  1521 ;;Total ram usage:        2 bytes
  1522 ;; Hardware stack levels used:    1
  1523 ;; Hardware stack levels required when called:    1
  1524 ;; This function calls:
  1525 ;;		Nothing
  1526 ;; This function is called by:
  1527 ;;		_read_matrix_keypad
  1528 ;; This function uses a non-reentrant model
  1529 ;;
  1530                           
  1531                           
  1532                           ;psect for function _scan_keypad
  1533  017C                     _scan_keypad:	
  1534  017C                     l1135:	
  1535                           ;incstack = 0
  1536                           ; Regs used in _scan_keypad: [wreg+status,2+status,0]
  1537                           
  1538                           
  1539                           ;matrix_keypad.c: 23:     int i;;matrix_keypad.c: 25:     RD3 = 0;
  1540  017C  1283               	bcf	3,5	;RP0=0, select bank0
  1541  017D  1303               	bcf	3,6	;RP1=0, select bank0
  1542  017E  1188               	bcf	8,3	;volatile
  1543                           
  1544                           ;matrix_keypad.c: 26:     RD2 = 1;
  1545  017F  1508               	bsf	8,2	;volatile
  1546                           
  1547                           ;matrix_keypad.c: 27:     RD1 = 1;
  1548  0180  1488               	bsf	8,1	;volatile
  1549  0181                     l1137:	
  1550                           
  1551                           ;matrix_keypad.c: 30:     for (i = 100; i--; );
  1552  0181  3064               	movlw	100
  1553  0182  00F2               	movwf	scan_keypad@i
  1554  0183  3000               	movlw	0
  1555  0184  00F3               	movwf	scan_keypad@i+1
  1556  0185                     l1139:	
  1557  0185  30FF               	movlw	255
  1558  0186  07F2               	addwf	scan_keypad@i,f
  1559  0187  1803               	skipnc
  1560  0188  0AF3               	incf	scan_keypad@i+1,f
  1561  0189  30FF               	movlw	255
  1562  018A  07F3               	addwf	scan_keypad@i+1,f
  1563  018B  0A72               	incf	scan_keypad@i,w
  1564  018C  1D03               	skipz
  1565  018D  2992               	goto	u401
  1566  018E  0A73               	incf	scan_keypad@i+1,w
  1567  018F  1D03               	btfss	3,2
  1568  0190  2992               	goto	u401
  1569  0191  2993               	goto	u400
  1570  0192                     u401:	
  1571  0192  2985               	goto	l1139
  1572  0193                     u400:	
  1573  0193                     l129:	
  1574                           
  1575                           ;matrix_keypad.c: 32:     if (RB0 == 0)
  1576  0193  1283               	bcf	3,5	;RP0=0, select bank0
  1577  0194  1303               	bcf	3,6	;RP1=0, select bank0
  1578  0195  1806               	btfsc	6,0	;volatile
  1579  0196  2998               	goto	u411
  1580  0197  2999               	goto	u410
  1581  0198                     u411:	
  1582  0198  299B               	goto	l130
  1583  0199                     u410:	
  1584  0199                     l1141:	
  1585                           
  1586                           ;matrix_keypad.c: 33:     {;matrix_keypad.c: 34:         return 1;
  1587  0199  3001               	movlw	1
  1588  019A  29FA               	goto	l131
  1589  019B                     l130:	
  1590                           ;matrix_keypad.c: 36:     else if (RB1 == 0)
  1591                           
  1592  019B  1886               	btfsc	6,1	;volatile
  1593  019C  299E               	goto	u421
  1594  019D  299F               	goto	u420
  1595  019E                     u421:	
  1596  019E  29A1               	goto	l133
  1597  019F                     u420:	
  1598  019F                     l1147:	
  1599                           
  1600                           ;matrix_keypad.c: 37:     {;matrix_keypad.c: 38:         return 2;
  1601  019F  3002               	movlw	2
  1602  01A0  29FA               	goto	l131
  1603  01A1                     l133:	
  1604                           ;matrix_keypad.c: 40:     else if (RB2 == 0)
  1605                           
  1606  01A1  1906               	btfsc	6,2	;volatile
  1607  01A2  29A4               	goto	u431
  1608  01A3  29A5               	goto	u430
  1609  01A4                     u431:	
  1610  01A4  29A7               	goto	l132
  1611  01A5                     u430:	
  1612  01A5                     l1153:	
  1613                           
  1614                           ;matrix_keypad.c: 41:     {;matrix_keypad.c: 42:         return 3;
  1615  01A5  3003               	movlw	3
  1616  01A6  29FA               	goto	l131
  1617  01A7                     l132:	
  1618                           
  1619                           ;matrix_keypad.c: 46:     RD2 = 0;
  1620  01A7  1108               	bcf	8,2	;volatile
  1621                           
  1622                           ;matrix_keypad.c: 47:     RD1 = 1;
  1623  01A8  1488               	bsf	8,1	;volatile
  1624                           
  1625                           ;matrix_keypad.c: 48:     RD3 = 1;
  1626  01A9  1588               	bsf	8,3	;volatile
  1627  01AA                     l1157:	
  1628                           
  1629                           ;matrix_keypad.c: 50:     for (i = 100; i--; );
  1630  01AA  3064               	movlw	100
  1631  01AB  00F2               	movwf	scan_keypad@i
  1632  01AC  3000               	movlw	0
  1633  01AD  00F3               	movwf	scan_keypad@i+1
  1634  01AE                     l1159:	
  1635  01AE  30FF               	movlw	255
  1636  01AF  07F2               	addwf	scan_keypad@i,f
  1637  01B0  1803               	skipnc
  1638  01B1  0AF3               	incf	scan_keypad@i+1,f
  1639  01B2  30FF               	movlw	255
  1640  01B3  07F3               	addwf	scan_keypad@i+1,f
  1641  01B4  0A72               	incf	scan_keypad@i,w
  1642  01B5  1D03               	skipz
  1643  01B6  29BB               	goto	u441
  1644  01B7  0A73               	incf	scan_keypad@i+1,w
  1645  01B8  1D03               	btfss	3,2
  1646  01B9  29BB               	goto	u441
  1647  01BA  29BC               	goto	u440
  1648  01BB                     u441:	
  1649  01BB  29AE               	goto	l1159
  1650  01BC                     u440:	
  1651  01BC                     l138:	
  1652                           
  1653                           ;matrix_keypad.c: 52:     if (RB0 == 0)
  1654  01BC  1283               	bcf	3,5	;RP0=0, select bank0
  1655  01BD  1303               	bcf	3,6	;RP1=0, select bank0
  1656  01BE  1806               	btfsc	6,0	;volatile
  1657  01BF  29C1               	goto	u451
  1658  01C0  29C2               	goto	u450
  1659  01C1                     u451:	
  1660  01C1  29C4               	goto	l139
  1661  01C2                     u450:	
  1662  01C2                     l1161:	
  1663                           
  1664                           ;matrix_keypad.c: 53:     {;matrix_keypad.c: 54:         return 4;
  1665  01C2  3004               	movlw	4
  1666  01C3  29FA               	goto	l131
  1667  01C4                     l139:	
  1668                           ;matrix_keypad.c: 56:     else if (RB1 == 0)
  1669                           
  1670  01C4  1886               	btfsc	6,1	;volatile
  1671  01C5  29C7               	goto	u461
  1672  01C6  29C8               	goto	u460
  1673  01C7                     u461:	
  1674  01C7  29CA               	goto	l141
  1675  01C8                     u460:	
  1676  01C8                     l1167:	
  1677                           
  1678                           ;matrix_keypad.c: 57:     {;matrix_keypad.c: 58:         return 5;
  1679  01C8  3005               	movlw	5
  1680  01C9  29FA               	goto	l131
  1681  01CA                     l141:	
  1682                           ;matrix_keypad.c: 60:     else if (RB2 == 0)
  1683                           
  1684  01CA  1906               	btfsc	6,2	;volatile
  1685  01CB  29CD               	goto	u471
  1686  01CC  29CE               	goto	u470
  1687  01CD                     u471:	
  1688  01CD  29D0               	goto	l140
  1689  01CE                     u470:	
  1690  01CE                     l1173:	
  1691                           
  1692                           ;matrix_keypad.c: 61:     {;matrix_keypad.c: 62:         return 6;
  1693  01CE  3006               	movlw	6
  1694  01CF  29FA               	goto	l131
  1695  01D0                     l140:	
  1696                           
  1697                           ;matrix_keypad.c: 66:     RD2 = 1;
  1698  01D0  1508               	bsf	8,2	;volatile
  1699                           
  1700                           ;matrix_keypad.c: 67:     RD1 = 0;
  1701  01D1  1088               	bcf	8,1	;volatile
  1702                           
  1703                           ;matrix_keypad.c: 68:     RD3 = 1;
  1704  01D2  1588               	bsf	8,3	;volatile
  1705  01D3                     l1177:	
  1706                           
  1707                           ;matrix_keypad.c: 70:     for (i = 100; i--; );
  1708  01D3  3064               	movlw	100
  1709  01D4  00F2               	movwf	scan_keypad@i
  1710  01D5  3000               	movlw	0
  1711  01D6  00F3               	movwf	scan_keypad@i+1
  1712  01D7                     l1179:	
  1713  01D7  30FF               	movlw	255
  1714  01D8  07F2               	addwf	scan_keypad@i,f
  1715  01D9  1803               	skipnc
  1716  01DA  0AF3               	incf	scan_keypad@i+1,f
  1717  01DB  30FF               	movlw	255
  1718  01DC  07F3               	addwf	scan_keypad@i+1,f
  1719  01DD  0A72               	incf	scan_keypad@i,w
  1720  01DE  1D03               	skipz
  1721  01DF  29E4               	goto	u481
  1722  01E0  0A73               	incf	scan_keypad@i+1,w
  1723  01E1  1D03               	btfss	3,2
  1724  01E2  29E4               	goto	u481
  1725  01E3  29E5               	goto	u480
  1726  01E4                     u481:	
  1727  01E4  29D7               	goto	l1179
  1728  01E5                     u480:	
  1729  01E5                     l146:	
  1730                           
  1731                           ;matrix_keypad.c: 72:     if (RB0 == 0)
  1732  01E5  1283               	bcf	3,5	;RP0=0, select bank0
  1733  01E6  1303               	bcf	3,6	;RP1=0, select bank0
  1734  01E7  1806               	btfsc	6,0	;volatile
  1735  01E8  29EA               	goto	u491
  1736  01E9  29EB               	goto	u490
  1737  01EA                     u491:	
  1738  01EA  29ED               	goto	l147
  1739  01EB                     u490:	
  1740  01EB                     l1181:	
  1741                           
  1742                           ;matrix_keypad.c: 73:     {;matrix_keypad.c: 74:         return 7;
  1743  01EB  3007               	movlw	7
  1744  01EC  29FA               	goto	l131
  1745  01ED                     l147:	
  1746                           ;matrix_keypad.c: 76:     else if (RB1 == 0)
  1747                           
  1748  01ED  1886               	btfsc	6,1	;volatile
  1749  01EE  29F0               	goto	u501
  1750  01EF  29F1               	goto	u500
  1751  01F0                     u501:	
  1752  01F0  29F3               	goto	l149
  1753  01F1                     u500:	
  1754  01F1                     l1187:	
  1755                           
  1756                           ;matrix_keypad.c: 77:     {;matrix_keypad.c: 78:         return 8;
  1757  01F1  3008               	movlw	8
  1758  01F2  29FA               	goto	l131
  1759  01F3                     l149:	
  1760                           ;matrix_keypad.c: 80:     else if (RB2 == 0)
  1761                           
  1762  01F3  1906               	btfsc	6,2	;volatile
  1763  01F4  29F6               	goto	u511
  1764  01F5  29F7               	goto	u510
  1765  01F6                     u511:	
  1766  01F6  29F9               	goto	l1197
  1767  01F7                     u510:	
  1768  01F7                     l1193:	
  1769                           
  1770                           ;matrix_keypad.c: 81:     {;matrix_keypad.c: 82:         return 9;
  1771  01F7  3009               	movlw	9
  1772  01F8  29FA               	goto	l131
  1773  01F9                     l1197:	
  1774                           
  1775                           ;matrix_keypad.c: 86:     return 0xFF;
  1776  01F9  30FF               	movlw	255
  1777  01FA                     l131:	
  1778  01FA  0008               	return
  1779  01FB                     __end_of_scan_keypad:	
  1780                           
  1781                           	psect	text4
  1782  036C                     __ptext4:	
  1783 ;; *************** function _ledblink *****************
  1784 ;; Defined at:
  1785 ;;		line 24 in file "main.c"
  1786 ;; Parameters:    Size  Location     Type
  1787 ;;  chance          1    wreg     PTR int 
  1788 ;;		 -> chance(2), 
  1789 ;; Auto vars:     Size  Location     Type
  1790 ;;  chance          1    0[BANK0 ] PTR int 
  1791 ;;		 -> chance(2), 
  1792 ;; Return value:  Size  Location     Type
  1793 ;;                  1    wreg      void 
  1794 ;; Registers used:
  1795 ;;		wreg, fsr0l, fsr0h, status,2, status,0, pclath, cstack
  1796 ;; Tracked objects:
  1797 ;;		On entry : 0/0
  1798 ;;		On exit  : 0/0
  1799 ;;		Unchanged: 0/0
  1800 ;; Data sizes:     COMMON   BANK0   BANK1   BANK3   BANK2
  1801 ;;      Params:         0       0       0       0       0
  1802 ;;      Locals:         0       1       0       0       0
  1803 ;;      Temps:          0       0       0       0       0
  1804 ;;      Totals:         0       1       0       0       0
  1805 ;;Total ram usage:        1 bytes
  1806 ;; Hardware stack levels used:    1
  1807 ;; Hardware stack levels required when called:    2
  1808 ;; This function calls:
  1809 ;;		___wmul
  1810 ;; This function is called by:
  1811 ;;		_main
  1812 ;; This function uses a non-reentrant model
  1813 ;;
  1814                           
  1815                           
  1816                           ;psect for function _ledblink
  1817  036C                     _ledblink:	
  1818                           
  1819                           ;incstack = 0
  1820                           ; Regs used in _ledblink: [wreg-fsr0h+status,2+status,0+pclath+cstack]
  1821                           ;ledblink@chance stored from wreg
  1822  036C  1283               	bcf	3,5	;RP0=0, select bank0
  1823  036D  1303               	bcf	3,6	;RP1=0, select bank0
  1824  036E  00B0               	movwf	ledblink@chance
  1825  036F                     l1421:	
  1826                           
  1827                           ;main.c: 24: };main.c: 25: ;main.c: 26: void main(void) {;main.c: 27:     unsigned int w
      +                          ait = 0,j = 0;
  1828  036F  3001               	movlw	1
  1829  0370  02A0               	subwf	ledblink@wait,f
  1830  0371  3000               	movlw	0
  1831  0372  1C03               	skipc
  1832  0373  03A1               	decf	ledblink@wait+1,f
  1833  0374  02A1               	subwf	ledblink@wait+1,f
  1834  0375  0A20               	incf	ledblink@wait,w
  1835  0376  1D03               	skipz
  1836  0377  2B7C               	goto	u801
  1837  0378  0A21               	incf	ledblink@wait+1,w
  1838  0379  1D03               	btfss	3,2
  1839  037A  2B7C               	goto	u801
  1840  037B  2B7D               	goto	u800
  1841  037C                     u801:	
  1842  037C  2B96               	goto	l48
  1843  037D                     u800:	
  1844  037D                     l1423:	
  1845                           
  1846                           ;main.c: 28:     unsigned char key;;main.c: 29:     init_config();
  1847  037D  0830               	movf	ledblink@chance,w
  1848  037E  0084               	movwf	4
  1849  037F  1383               	bcf	3,7	;select IRP bank0
  1850  0380  0800               	movf	0,w
  1851  0381  00F2               	movwf	___wmul@multiplier
  1852  0382  0A84               	incf	4,f
  1853  0383  0800               	movf	0,w
  1854  0384  00F3               	movwf	___wmul@multiplier+1
  1855  0385  3028               	movlw	40
  1856  0386  00F4               	movwf	___wmul@multiplicand
  1857  0387  3000               	movlw	0
  1858  0388  00F5               	movwf	___wmul@multiplicand+1
  1859  0389  120A  118A  23BC  120A  118A  	fcall	___wmul
  1860  038E  0873               	movf	?___wmul+1,w
  1861  038F  1283               	bcf	3,5	;RP0=0, select bank0
  1862  0390  1303               	bcf	3,6	;RP1=0, select bank0
  1863  0391  00A1               	movwf	ledblink@wait+1
  1864  0392  0872               	movf	?___wmul,w
  1865  0393  00A0               	movwf	ledblink@wait
  1866  0394                     l1425:	
  1867                           
  1868                           ;main.c: 31:         key = read_matrix_keypad(1);
  1869  0394  3080               	movlw	128
  1870  0395  0688               	xorwf	8,f
  1871  0396                     l48:	
  1872  0396  0008               	return
  1873  0397                     __end_of_ledblink:	
  1874                           
  1875                           	psect	text5
  1876  03BC                     __ptext5:	
  1877 ;; *************** function ___wmul *****************
  1878 ;; Defined at:
  1879 ;;		line 15 in file "/opt/microchip/xc8/v2.10/pic/sources/c90/common/Umul16.c"
  1880 ;; Parameters:    Size  Location     Type
  1881 ;;  multiplier      2    2[COMMON] unsigned int 
  1882 ;;  multiplicand    2    4[COMMON] unsigned int 
  1883 ;; Auto vars:     Size  Location     Type
  1884 ;;  product         2    6[COMMON] unsigned int 
  1885 ;; Return value:  Size  Location     Type
  1886 ;;                  2    2[COMMON] unsigned int 
  1887 ;; Registers used:
  1888 ;;		wreg, status,2, status,0
  1889 ;; Tracked objects:
  1890 ;;		On entry : 0/0
  1891 ;;		On exit  : 0/0
  1892 ;;		Unchanged: 0/0
  1893 ;; Data sizes:     COMMON   BANK0   BANK1   BANK3   BANK2
  1894 ;;      Params:         4       0       0       0       0
  1895 ;;      Locals:         2       0       0       0       0
  1896 ;;      Temps:          0       0       0       0       0
  1897 ;;      Totals:         6       0       0       0       0
  1898 ;;Total ram usage:        6 bytes
  1899 ;; Hardware stack levels used:    1
  1900 ;; Hardware stack levels required when called:    1
  1901 ;; This function calls:
  1902 ;;		Nothing
  1903 ;; This function is called by:
  1904 ;;		_ledblink
  1905 ;; This function uses a non-reentrant model
  1906 ;;
  1907                           
  1908                           
  1909                           ;psect for function ___wmul
  1910  03BC                     ___wmul:	
  1911  03BC                     l1407:	
  1912                           ;incstack = 0
  1913                           ; Regs used in ___wmul: [wreg+status,2+status,0]
  1914                           
  1915  03BC  01F6               	clrf	___wmul@product
  1916  03BD  01F7               	clrf	___wmul@product+1
  1917  03BE                     l1409:	
  1918  03BE  1C72               	btfss	___wmul@multiplier,0
  1919  03BF  2BC1               	goto	u761
  1920  03C0  2BC2               	goto	u760
  1921  03C1                     u761:	
  1922  03C1  2BC8               	goto	l265
  1923  03C2                     u760:	
  1924  03C2                     l1411:	
  1925  03C2  0874               	movf	___wmul@multiplicand,w
  1926  03C3  07F6               	addwf	___wmul@product,f
  1927  03C4  1803               	skipnc
  1928  03C5  0AF7               	incf	___wmul@product+1,f
  1929  03C6  0875               	movf	___wmul@multiplicand+1,w
  1930  03C7  07F7               	addwf	___wmul@product+1,f
  1931  03C8                     l265:	
  1932  03C8  3001               	movlw	1
  1933  03C9                     u775:	
  1934  03C9  1003               	clrc
  1935  03CA  0DF4               	rlf	___wmul@multiplicand,f
  1936  03CB  0DF5               	rlf	___wmul@multiplicand+1,f
  1937  03CC  3EFF               	addlw	-1
  1938  03CD  1D03               	skipz
  1939  03CE  2BC9               	goto	u775
  1940  03CF                     l1413:	
  1941  03CF  3001               	movlw	1
  1942  03D0                     u785:	
  1943  03D0  1003               	clrc
  1944  03D1  0CF3               	rrf	___wmul@multiplier+1,f
  1945  03D2  0CF2               	rrf	___wmul@multiplier,f
  1946  03D3  3EFF               	addlw	-1
  1947  03D4  1D03               	skipz
  1948  03D5  2BD0               	goto	u785
  1949  03D6                     l1415:	
  1950  03D6  0872               	movf	___wmul@multiplier,w
  1951  03D7  0473               	iorwf	___wmul@multiplier+1,w
  1952  03D8  1D03               	btfss	3,2
  1953  03D9  2BDB               	goto	u791
  1954  03DA  2BDC               	goto	u790
  1955  03DB                     u791:	
  1956  03DB  2BBE               	goto	l1409
  1957  03DC                     u790:	
  1958  03DC                     l1417:	
  1959  03DC  0877               	movf	___wmul@product+1,w
  1960  03DD  00F3               	movwf	?___wmul+1
  1961  03DE  0876               	movf	___wmul@product,w
  1962  03DF  00F2               	movwf	?___wmul
  1963  03E0                     l267:	
  1964  03E0  0008               	return
  1965  03E1                     __end_of___wmul:	
  1966                           
  1967                           	psect	text6
  1968  03E1                     __ptext6:	
  1969 ;; *************** function _init_config *****************
  1970 ;; Defined at:
  1971 ;;		line 34 in file "main.c"
  1972 ;; Parameters:    Size  Location     Type
  1973 ;;		None
  1974 ;; Auto vars:     Size  Location     Type
  1975 ;;		None
  1976 ;; Return value:  Size  Location     Type
  1977 ;;                  1    wreg      void 
  1978 ;; Registers used:
  1979 ;;		wreg, status,2, status,0, pclath, cstack
  1980 ;; Tracked objects:
  1981 ;;		On entry : 0/0
  1982 ;;		On exit  : 0/0
  1983 ;;		Unchanged: 0/0
  1984 ;; Data sizes:     COMMON   BANK0   BANK1   BANK3   BANK2
  1985 ;;      Params:         0       0       0       0       0
  1986 ;;      Locals:         0       0       0       0       0
  1987 ;;      Temps:          0       0       0       0       0
  1988 ;;      Totals:         0       0       0       0       0
  1989 ;;Total ram usage:        0 bytes
  1990 ;; Hardware stack levels used:    1
  1991 ;; Hardware stack levels required when called:    4
  1992 ;; This function calls:
  1993 ;;		_init_clcd
  1994 ;;		_init_matrix_keypad
  1995 ;;		_init_timer2
  1996 ;; This function is called by:
  1997 ;;		_main
  1998 ;; This function uses a non-reentrant model
  1999 ;;
  2000                           
  2001                           
  2002                           ;psect for function _init_config
  2003  03E1                     _init_config:	
  2004  03E1                     l1427:	
  2005                           ;incstack = 0
  2006                           ; Regs used in _init_config: [wreg+status,2+status,0+pclath+cstack]
  2007                           
  2008                           
  2009                           ;main.c: 35:             {
  2010  03E1  120A  118A  2426  120A  118A  	fcall	_init_clcd
  2011                           
  2012                           ;main.c: 36:                 clcd_print("Chances Exausted",(0x80 + 0));
  2013  03E6  120A  118A  2419  120A  118A  	fcall	_init_timer2
  2014                           
  2015                           ;main.c: 37:                 clcd_print("Reset the board ",(0xC0 + 0));
  2016  03EB  120A  118A  240A  120A  118A  	fcall	_init_matrix_keypad
  2017  03F0                     l1429:	
  2018                           
  2019                           ;main.c: 38:                 i = 17;
  2020  03F0  1683               	bsf	3,5	;RP0=1, select bank1
  2021  03F1  1303               	bcf	3,6	;RP1=0, select bank1
  2022  03F2  1388               	bcf	8,7	;volatile
  2023  03F3                     l1431:	
  2024                           
  2025                           ;main.c: 39:                 initial = 0;
  2026  03F3  1283               	bcf	3,5	;RP0=0, select bank0
  2027  03F4  1303               	bcf	3,6	;RP1=0, select bank0
  2028  03F5  1388               	bcf	8,7	;volatile
  2029  03F6                     l1433:	
  2030                           
  2031                           ;main.c: 40:             }
  2032  03F6  178B               	bsf	11,7	;volatile
  2033  03F7                     l1435:	
  2034                           
  2035                           ;main.c: 41:             else
  2036  03F7  170B               	bsf	11,6	;volatile
  2037  03F8                     l51:	
  2038  03F8  0008               	return
  2039  03F9                     __end_of_init_config:	
  2040                           
  2041                           	psect	text7
  2042  0419                     __ptext7:	
  2043 ;; *************** function _init_timer2 *****************
  2044 ;; Defined at:
  2045 ;;		line 3 in file "Timers.c"
  2046 ;; Parameters:    Size  Location     Type
  2047 ;;		None
  2048 ;; Auto vars:     Size  Location     Type
  2049 ;;		None
  2050 ;; Return value:  Size  Location     Type
  2051 ;;                  1    wreg      void 
  2052 ;; Registers used:
  2053 ;;		wreg
  2054 ;; Tracked objects:
  2055 ;;		On entry : 0/0
  2056 ;;		On exit  : 0/0
  2057 ;;		Unchanged: 0/0
  2058 ;; Data sizes:     COMMON   BANK0   BANK1   BANK3   BANK2
  2059 ;;      Params:         0       0       0       0       0
  2060 ;;      Locals:         0       0       0       0       0
  2061 ;;      Temps:          0       0       0       0       0
  2062 ;;      Totals:         0       0       0       0       0
  2063 ;;Total ram usage:        0 bytes
  2064 ;; Hardware stack levels used:    1
  2065 ;; Hardware stack levels required when called:    1
  2066 ;; This function calls:
  2067 ;;		Nothing
  2068 ;; This function is called by:
  2069 ;;		_init_config
  2070 ;; This function uses a non-reentrant model
  2071 ;;
  2072                           
  2073                           
  2074                           ;psect for function _init_timer2
  2075  0419                     _init_timer2:	
  2076  0419                     l1119:	
  2077                           ;incstack = 0
  2078                           ; Regs used in _init_timer2: [wreg]
  2079                           
  2080                           
  2081                           ;Timers.c: 7:     T2CKPS0 = 0;
  2082  0419  1283               	bcf	3,5	;RP0=0, select bank0
  2083  041A  1303               	bcf	3,6	;RP1=0, select bank0
  2084  041B  1012               	bcf	18,0	;volatile
  2085                           
  2086                           ;Timers.c: 8:     T2CKPS1 = 0;
  2087  041C  1092               	bcf	18,1	;volatile
  2088                           
  2089                           ;Timers.c: 12:     TMR2IE = 1;
  2090  041D  1683               	bsf	3,5	;RP0=1, select bank1
  2091  041E  1303               	bcf	3,6	;RP1=0, select bank1
  2092  041F  148C               	bsf	12,1	;volatile
  2093  0420                     l1121:	
  2094                           
  2095                           ;Timers.c: 17:     PR2 = 250;
  2096  0420  30FA               	movlw	250
  2097  0421  0092               	movwf	18	;volatile
  2098  0422                     l1123:	
  2099                           
  2100                           ;Timers.c: 19:     TMR2ON = 1;
  2101  0422  1283               	bcf	3,5	;RP0=0, select bank0
  2102  0423  1303               	bcf	3,6	;RP1=0, select bank0
  2103  0424  1512               	bsf	18,2	;volatile
  2104  0425                     l174:	
  2105  0425  0008               	return
  2106  0426                     __end_of_init_timer2:	
  2107                           
  2108                           	psect	text8
  2109  040A                     __ptext8:	
  2110 ;; *************** function _init_matrix_keypad *****************
  2111 ;; Defined at:
  2112 ;;		line 4 in file "matrix_keypad.c"
  2113 ;; Parameters:    Size  Location     Type
  2114 ;;		None
  2115 ;; Auto vars:     Size  Location     Type
  2116 ;;		None
  2117 ;; Return value:  Size  Location     Type
  2118 ;;                  1    wreg      void 
  2119 ;; Registers used:
  2120 ;;		wreg, status,2
  2121 ;; Tracked objects:
  2122 ;;		On entry : 0/0
  2123 ;;		On exit  : 0/0
  2124 ;;		Unchanged: 0/0
  2125 ;; Data sizes:     COMMON   BANK0   BANK1   BANK3   BANK2
  2126 ;;      Params:         0       0       0       0       0
  2127 ;;      Locals:         0       0       0       0       0
  2128 ;;      Temps:          0       0       0       0       0
  2129 ;;      Totals:         0       0       0       0       0
  2130 ;;Total ram usage:        0 bytes
  2131 ;; Hardware stack levels used:    1
  2132 ;; Hardware stack levels required when called:    1
  2133 ;; This function calls:
  2134 ;;		Nothing
  2135 ;; This function is called by:
  2136 ;;		_init_config
  2137 ;; This function uses a non-reentrant model
  2138 ;;
  2139                           
  2140                           
  2141                           ;psect for function _init_matrix_keypad
  2142  040A                     _init_matrix_keypad:	
  2143  040A                     l1125:	
  2144                           ;incstack = 0
  2145                           ; Regs used in _init_matrix_keypad: [wreg+status,2]
  2146                           
  2147                           
  2148                           ;matrix_keypad.c: 7:     TRISB = TRISB | 0x07;
  2149  040A  1683               	bsf	3,5	;RP0=1, select bank1
  2150  040B  1303               	bcf	3,6	;RP1=0, select bank1
  2151  040C  0806               	movf	6,w	;volatile
  2152  040D  3807               	iorlw	7
  2153  040E  0086               	movwf	6	;volatile
  2154                           
  2155                           ;matrix_keypad.c: 9:     TRISD = TRISD & 0xF0;
  2156  040F  0808               	movf	8,w	;volatile
  2157  0410  39F0               	andlw	240
  2158  0411  0088               	movwf	8	;volatile
  2159  0412                     l1127:	
  2160                           
  2161                           ;matrix_keypad.c: 12:     nRBPU = 0;
  2162  0412  1381               	bcf	1,7	;volatile
  2163  0413                     l1129:	
  2164                           
  2165                           ;matrix_keypad.c: 16:     RD2 = 1;
  2166  0413  1283               	bcf	3,5	;RP0=0, select bank0
  2167  0414  1303               	bcf	3,6	;RP1=0, select bank0
  2168  0415  1508               	bsf	8,2	;volatile
  2169  0416                     l1131:	
  2170                           
  2171                           ;matrix_keypad.c: 17:     RD1 = 1;
  2172  0416  1488               	bsf	8,1	;volatile
  2173  0417                     l1133:	
  2174                           
  2175                           ;matrix_keypad.c: 18:     RD3 = 1;
  2176  0417  1588               	bsf	8,3	;volatile
  2177  0418                     l124:	
  2178  0418  0008               	return
  2179  0419                     __end_of_init_matrix_keypad:	
  2180                           
  2181                           	psect	text9
  2182  0426                     __ptext9:	
  2183 ;; *************** function _init_clcd *****************
  2184 ;; Defined at:
  2185 ;;		line 44 in file "clcd.c"
  2186 ;; Parameters:    Size  Location     Type
  2187 ;;		None
  2188 ;; Auto vars:     Size  Location     Type
  2189 ;;		None
  2190 ;; Return value:  Size  Location     Type
  2191 ;;                  1    wreg      void 
  2192 ;; Registers used:
  2193 ;;		wreg, status,2, status,0, pclath, cstack
  2194 ;; Tracked objects:
  2195 ;;		On entry : 0/0
  2196 ;;		On exit  : 0/0
  2197 ;;		Unchanged: 0/0
  2198 ;; Data sizes:     COMMON   BANK0   BANK1   BANK3   BANK2
  2199 ;;      Params:         0       0       0       0       0
  2200 ;;      Locals:         0       0       0       0       0
  2201 ;;      Temps:          0       0       0       0       0
  2202 ;;      Totals:         0       0       0       0       0
  2203 ;;Total ram usage:        0 bytes
  2204 ;; Hardware stack levels used:    1
  2205 ;; Hardware stack levels required when called:    3
  2206 ;; This function calls:
  2207 ;;		_init_display_controller
  2208 ;; This function is called by:
  2209 ;;		_init_config
  2210 ;; This function uses a non-reentrant model
  2211 ;;
  2212                           
  2213                           
  2214                           ;psect for function _init_clcd
  2215  0426                     _init_clcd:	
  2216  0426                     l1399:	
  2217                           ;incstack = 0
  2218                           ; Regs used in _init_clcd: [wreg+status,2+status,0+pclath+cstack]
  2219                           
  2220                           
  2221                           ;clcd.c: 47:     TRISD = 0x00;
  2222  0426  1683               	bsf	3,5	;RP0=1, select bank1
  2223  0427  1303               	bcf	3,6	;RP1=0, select bank1
  2224  0428  0188               	clrf	8	;volatile
  2225  0429                     l1401:	
  2226                           
  2227                           ;clcd.c: 50:     TRISE2 = 0;
  2228  0429  1109               	bcf	9,2	;volatile
  2229  042A                     l1403:	
  2230                           
  2231                           ;clcd.c: 51:     TRISE1 = 0;
  2232  042A  1089               	bcf	9,1	;volatile
  2233  042B                     l1405:	
  2234                           
  2235                           ;clcd.c: 53:     init_display_controller();
  2236  042B  120A  118A  2275  120A  118A  	fcall	_init_display_controller
  2237  0430                     l94:	
  2238  0430  0008               	return
  2239  0431                     __end_of_init_clcd:	
  2240                           
  2241                           	psect	text10
  2242  0275                     __ptext10:	
  2243 ;; *************** function _init_display_controller *****************
  2244 ;; Defined at:
  2245 ;;		line 21 in file "clcd.c"
  2246 ;; Parameters:    Size  Location     Type
  2247 ;;		None
  2248 ;; Auto vars:     Size  Location     Type
  2249 ;;		None
  2250 ;; Return value:  Size  Location     Type
  2251 ;;                  1    wreg      void 
  2252 ;; Registers used:
  2253 ;;		wreg, status,2, status,0, pclath, cstack
  2254 ;; Tracked objects:
  2255 ;;		On entry : 0/0
  2256 ;;		On exit  : 0/0
  2257 ;;		Unchanged: 0/0
  2258 ;; Data sizes:     COMMON   BANK0   BANK1   BANK3   BANK2
  2259 ;;      Params:         0       0       0       0       0
  2260 ;;      Locals:         0       0       0       0       0
  2261 ;;      Temps:          2       0       0       0       0
  2262 ;;      Totals:         2       0       0       0       0
  2263 ;;Total ram usage:        2 bytes
  2264 ;; Hardware stack levels used:    1
  2265 ;; Hardware stack levels required when called:    2
  2266 ;; This function calls:
  2267 ;;		_clcd_write
  2268 ;; This function is called by:
  2269 ;;		_init_clcd
  2270 ;; This function uses a non-reentrant model
  2271 ;;
  2272                           
  2273                           
  2274                           ;psect for function _init_display_controller
  2275  0275                     _init_display_controller:	
  2276  0275                     l1375:	
  2277                           ;incstack = 0
  2278                           ; Regs used in _init_display_controller: [wreg+status,2+status,0+pclath+cstack]
  2279                           
  2280                           
  2281                           ;clcd.c: 24:     _delay((unsigned long)((30)*(20000000/4000.0)));
  2282  0275  30C3               	movlw	195
  2283  0276  00F7               	movwf	??_init_display_controller+1
  2284  0277  30CD               	movlw	205
  2285  0278  00F6               	movwf	??_init_display_controller
  2286  0279                     u937:	
  2287  0279  0BF6               	decfsz	??_init_display_controller,f
  2288  027A  2A79               	goto	u937
  2289  027B  0BF7               	decfsz	??_init_display_controller+1,f
  2290  027C  2A79               	goto	u937
  2291  027D                     l1377:	
  2292                           
  2293                           ;clcd.c: 27:     clcd_write(0x33, 0);
  2294  027D  01F2               	clrf	clcd_write@mode
  2295  027E  3033               	movlw	51
  2296  027F  120A  118A  22D8  120A  118A  	fcall	_clcd_write
  2297  0284                     l1379:	
  2298                           
  2299                           ;clcd.c: 28:     _delay((unsigned long)((4100)*(20000000/4000000.0)));
  2300  0284  301B               	movlw	27
  2301  0285  00F7               	movwf	??_init_display_controller+1
  2302  0286  309E               	movlw	158
  2303  0287  00F6               	movwf	??_init_display_controller
  2304  0288                     u947:	
  2305  0288  0BF6               	decfsz	??_init_display_controller,f
  2306  0289  2A88               	goto	u947
  2307  028A  0BF7               	decfsz	??_init_display_controller+1,f
  2308  028B  2A88               	goto	u947
  2309  028C  0000               	nop
  2310                           
  2311                           ;clcd.c: 29:     clcd_write(0x33, 0);
  2312  028D  01F2               	clrf	clcd_write@mode
  2313  028E  3033               	movlw	51
  2314  028F  120A  118A  22D8  120A  118A  	fcall	_clcd_write
  2315  0294                     l1381:	
  2316                           
  2317                           ;clcd.c: 30:     _delay((unsigned long)((100)*(20000000/4000000.0)));
  2318  0294  30A6               	movlw	166
  2319  0295  00F6               	movwf	??_init_display_controller
  2320  0296                     u957:	
  2321  0296  0BF6               	decfsz	??_init_display_controller,f
  2322  0297  2A96               	goto	u957
  2323  0298  0000               	nop
  2324  0299                     l1383:	
  2325                           
  2326                           ;clcd.c: 31:     clcd_write(0x33, 0);
  2327  0299  01F2               	clrf	clcd_write@mode
  2328  029A  3033               	movlw	51
  2329  029B  120A  118A  22D8  120A  118A  	fcall	_clcd_write
  2330  02A0                     l1385:	
  2331                           
  2332                           ;clcd.c: 32:     _delay((unsigned long)((1)*(20000000/4000000.0)));
  2333  02A0  2AA1               	nop2	;2 cycle nop
  2334  02A1  2AA2               	nop2	;2 cycle nop
  2335  02A2  0000               	nop
  2336  02A3                     l1387:	
  2337                           
  2338                           ;clcd.c: 34:     clcd_write(0x02, 0);
  2339  02A3  01F2               	clrf	clcd_write@mode
  2340  02A4  3002               	movlw	2
  2341  02A5  120A  118A  22D8  120A  118A  	fcall	_clcd_write
  2342  02AA                     l1389:	
  2343                           
  2344                           ;clcd.c: 35:     _delay((unsigned long)((100)*(20000000/4000000.0)));
  2345  02AA  30A6               	movlw	166
  2346  02AB  00F6               	movwf	??_init_display_controller
  2347  02AC                     u967:	
  2348  02AC  0BF6               	decfsz	??_init_display_controller,f
  2349  02AD  2AAC               	goto	u967
  2350  02AE  0000               	nop
  2351                           
  2352                           ;clcd.c: 36:     clcd_write(0x28, 0);
  2353  02AF  01F2               	clrf	clcd_write@mode
  2354  02B0  3028               	movlw	40
  2355  02B1  120A  118A  22D8  120A  118A  	fcall	_clcd_write
  2356  02B6                     l1391:	
  2357                           
  2358                           ;clcd.c: 37:     _delay((unsigned long)((100)*(20000000/4000000.0)));
  2359  02B6  30A6               	movlw	166
  2360  02B7  00F6               	movwf	??_init_display_controller
  2361  02B8                     u977:	
  2362  02B8  0BF6               	decfsz	??_init_display_controller,f
  2363  02B9  2AB8               	goto	u977
  2364  02BA  0000               	nop
  2365  02BB                     l1393:	
  2366                           
  2367                           ;clcd.c: 38:     clcd_write(0x01, 0);
  2368  02BB  01F2               	clrf	clcd_write@mode
  2369  02BC  3001               	movlw	1
  2370  02BD  120A  118A  22D8  120A  118A  	fcall	_clcd_write
  2371                           
  2372                           ;clcd.c: 39:     _delay((unsigned long)((500)*(20000000/4000000.0)));
  2373  02C2  3004               	movlw	4
  2374  02C3  00F7               	movwf	??_init_display_controller+1
  2375  02C4  303D               	movlw	61
  2376  02C5  00F6               	movwf	??_init_display_controller
  2377  02C6                     u987:	
  2378  02C6  0BF6               	decfsz	??_init_display_controller,f
  2379  02C7  2AC6               	goto	u987
  2380  02C8  0BF7               	decfsz	??_init_display_controller+1,f
  2381  02C9  2AC6               	goto	u987
  2382  02CA  2ACB               	nop2
  2383  02CB                     l1395:	
  2384                           
  2385                           ;clcd.c: 40:     clcd_write(0x0C, 0);
  2386  02CB  01F2               	clrf	clcd_write@mode
  2387  02CC  300C               	movlw	12
  2388  02CD  120A  118A  22D8  120A  118A  	fcall	_clcd_write
  2389  02D2                     l1397:	
  2390                           
  2391                           ;clcd.c: 41:     _delay((unsigned long)((100)*(20000000/4000000.0)));
  2392  02D2  30A6               	movlw	166
  2393  02D3  00F6               	movwf	??_init_display_controller
  2394  02D4                     u997:	
  2395  02D4  0BF6               	decfsz	??_init_display_controller,f
  2396  02D5  2AD4               	goto	u997
  2397  02D6  0000               	nop
  2398  02D7                     l91:	
  2399  02D7  0008               	return
  2400  02D8                     __end_of_init_display_controller:	
  2401                           
  2402                           	psect	text11
  2403  03F9                     __ptext11:	
  2404 ;; *************** function _clcd_putch *****************
  2405 ;; Defined at:
  2406 ;;		line 56 in file "clcd.c"
  2407 ;; Parameters:    Size  Location     Type
  2408 ;;  data            1    wreg     const unsigned char 
  2409 ;;  addr            1    6[COMMON] unsigned char 
  2410 ;; Auto vars:     Size  Location     Type
  2411 ;;  data            1    7[COMMON] const unsigned char 
  2412 ;; Return value:  Size  Location     Type
  2413 ;;                  1    wreg      void 
  2414 ;; Registers used:
  2415 ;;		wreg, status,2, status,0, pclath, cstack
  2416 ;; Tracked objects:
  2417 ;;		On entry : 0/0
  2418 ;;		On exit  : 0/0
  2419 ;;		Unchanged: 0/0
  2420 ;; Data sizes:     COMMON   BANK0   BANK1   BANK3   BANK2
  2421 ;;      Params:         1       0       0       0       0
  2422 ;;      Locals:         1       0       0       0       0
  2423 ;;      Temps:          0       0       0       0       0
  2424 ;;      Totals:         2       0       0       0       0
  2425 ;;Total ram usage:        2 bytes
  2426 ;; Hardware stack levels used:    1
  2427 ;; Hardware stack levels required when called:    2
  2428 ;; This function calls:
  2429 ;;		_clcd_write
  2430 ;; This function is called by:
  2431 ;;		_main
  2432 ;; This function uses a non-reentrant model
  2433 ;;
  2434                           
  2435                           
  2436                           ;psect for function _clcd_putch
  2437  03F9                     _clcd_putch:	
  2438                           
  2439                           ;incstack = 0
  2440                           ; Regs used in _clcd_putch: [wreg+status,2+status,0+pclath+cstack]
  2441                           ;clcd_putch@data stored from wreg
  2442  03F9  00F7               	movwf	clcd_putch@data
  2443  03FA                     l1445:	
  2444                           
  2445                           ;clcd.c: 56: void clcd_putch(const char data, unsigned char addr);clcd.c: 57: {;clcd.c: 
      +                          58:     clcd_write(addr, 0);
  2446  03FA  01F2               	clrf	clcd_write@mode
  2447  03FB  0876               	movf	clcd_putch@addr,w
  2448  03FC  120A  118A  22D8  120A  118A  	fcall	_clcd_write
  2449                           
  2450                           ;clcd.c: 59:     clcd_write(data, 1);
  2451  0401  01F2               	clrf	clcd_write@mode
  2452  0402  0AF2               	incf	clcd_write@mode,f
  2453  0403  0877               	movf	clcd_putch@data,w
  2454  0404  120A  118A  22D8  120A  118A  	fcall	_clcd_write
  2455  0409                     l97:	
  2456  0409  0008               	return
  2457  040A                     __end_of_clcd_putch:	
  2458                           
  2459                           	psect	text12
  2460  033E                     __ptext12:	
  2461 ;; *************** function _clcd_print *****************
  2462 ;; Defined at:
  2463 ;;		line 62 in file "clcd.c"
  2464 ;; Parameters:    Size  Location     Type
  2465 ;;  str             1    wreg     PTR const unsigned char 
  2466 ;;		 -> STR_7(17), STR_6(17), STR_5(17), STR_4(17), 
  2467 ;;		 -> STR_3(17), STR_2(17), 
  2468 ;;  addr            1    6[COMMON] unsigned char 
  2469 ;; Auto vars:     Size  Location     Type
  2470 ;;  str             1    0[BANK0 ] PTR const unsigned char 
  2471 ;;		 -> STR_7(17), STR_6(17), STR_5(17), STR_4(17), 
  2472 ;;		 -> STR_3(17), STR_2(17), 
  2473 ;; Return value:  Size  Location     Type
  2474 ;;                  1    wreg      void 
  2475 ;; Registers used:
  2476 ;;		wreg, fsr0l, fsr0h, status,2, status,0, pclath, cstack
  2477 ;; Tracked objects:
  2478 ;;		On entry : 0/0
  2479 ;;		On exit  : 0/0
  2480 ;;		Unchanged: 0/0
  2481 ;; Data sizes:     COMMON   BANK0   BANK1   BANK3   BANK2
  2482 ;;      Params:         1       0       0       0       0
  2483 ;;      Locals:         0       1       0       0       0
  2484 ;;      Temps:          1       0       0       0       0
  2485 ;;      Totals:         2       1       0       0       0
  2486 ;;Total ram usage:        3 bytes
  2487 ;; Hardware stack levels used:    1
  2488 ;; Hardware stack levels required when called:    2
  2489 ;; This function calls:
  2490 ;;		_clcd_write
  2491 ;; This function is called by:
  2492 ;;		_main
  2493 ;; This function uses a non-reentrant model
  2494 ;;
  2495                           
  2496                           
  2497                           ;psect for function _clcd_print
  2498  033E                     _clcd_print:	
  2499                           
  2500                           ;incstack = 0
  2501                           ; Regs used in _clcd_print: [wreg-fsr0h+status,2+status,0+pclath+cstack]
  2502                           ;clcd_print@str stored from wreg
  2503  033E  1283               	bcf	3,5	;RP0=0, select bank0
  2504  033F  1303               	bcf	3,6	;RP1=0, select bank0
  2505  0340  00B0               	movwf	clcd_print@str
  2506  0341                     l1437:	
  2507                           
  2508                           ;clcd.c: 62: void clcd_print(const char *str, unsigned char addr);clcd.c: 63: {;clcd.c: 
      +                          64:     clcd_write(addr, 0);
  2509  0341  01F2               	clrf	clcd_write@mode
  2510  0342  0876               	movf	clcd_print@addr,w
  2511  0343  120A  118A  22D8  120A  118A  	fcall	_clcd_write
  2512                           
  2513                           ;clcd.c: 66:     while (*str != '\0')
  2514  0348  2B5D               	goto	l1443
  2515  0349                     l1439:	
  2516                           
  2517                           ;clcd.c: 67:     {;clcd.c: 68:         clcd_write(*str, 1);
  2518  0349  01F2               	clrf	clcd_write@mode
  2519  034A  0AF2               	incf	clcd_write@mode,f
  2520  034B  0830               	movf	clcd_print@str,w
  2521  034C  0084               	movwf	4
  2522  034D  120A  118A  2200  120A  118A  	fcall	stringdir
  2523  0352  120A  118A  22D8  120A  118A  	fcall	_clcd_write
  2524  0357                     l1441:	
  2525                           
  2526                           ;clcd.c: 69:         str++;
  2527  0357  3001               	movlw	1
  2528  0358  00F7               	movwf	??_clcd_print
  2529  0359  0877               	movf	??_clcd_print,w
  2530  035A  1283               	bcf	3,5	;RP0=0, select bank0
  2531  035B  1303               	bcf	3,6	;RP1=0, select bank0
  2532  035C  07B0               	addwf	clcd_print@str,f
  2533  035D                     l1443:	
  2534                           
  2535                           ;clcd.c: 66:     while (*str != '\0')
  2536  035D  1283               	bcf	3,5	;RP0=0, select bank0
  2537  035E  1303               	bcf	3,6	;RP1=0, select bank0
  2538  035F  0830               	movf	clcd_print@str,w
  2539  0360  0084               	movwf	4
  2540  0361  120A  118A  2200  120A  118A  	fcall	stringdir
  2541  0366  3A00               	xorlw	0
  2542  0367  1D03               	skipz
  2543  0368  2B6A               	goto	u811
  2544  0369  2B6B               	goto	u810
  2545  036A                     u811:	
  2546  036A  2B49               	goto	l1439
  2547  036B                     u810:	
  2548  036B                     l103:	
  2549  036B  0008               	return
  2550  036C                     __end_of_clcd_print:	
  2551                           
  2552                           	psect	text13
  2553  02D8                     __ptext13:	
  2554 ;; *************** function _clcd_write *****************
  2555 ;; Defined at:
  2556 ;;		line 4 in file "clcd.c"
  2557 ;; Parameters:    Size  Location     Type
  2558 ;;  byte            1    wreg     unsigned char 
  2559 ;;  mode            1    2[COMMON] unsigned char 
  2560 ;; Auto vars:     Size  Location     Type
  2561 ;;  byte            1    5[COMMON] unsigned char 
  2562 ;; Return value:  Size  Location     Type
  2563 ;;                  1    wreg      void 
  2564 ;; Registers used:
  2565 ;;		wreg, status,2, status,0
  2566 ;; Tracked objects:
  2567 ;;		On entry : 0/0
  2568 ;;		On exit  : 0/0
  2569 ;;		Unchanged: 0/0
  2570 ;; Data sizes:     COMMON   BANK0   BANK1   BANK3   BANK2
  2571 ;;      Params:         1       0       0       0       0
  2572 ;;      Locals:         1       0       0       0       0
  2573 ;;      Temps:          2       0       0       0       0
  2574 ;;      Totals:         4       0       0       0       0
  2575 ;;Total ram usage:        4 bytes
  2576 ;; Hardware stack levels used:    1
  2577 ;; Hardware stack levels required when called:    1
  2578 ;; This function calls:
  2579 ;;		Nothing
  2580 ;; This function is called by:
  2581 ;;		_init_display_controller
  2582 ;;		_clcd_putch
  2583 ;;		_clcd_print
  2584 ;; This function uses a non-reentrant model
  2585 ;;
  2586                           
  2587                           
  2588                           ;psect for function _clcd_write
  2589  02D8                     _clcd_write:	
  2590                           
  2591                           ;incstack = 0
  2592                           ; Regs used in _clcd_write: [wreg+status,2+status,0]
  2593                           ;clcd_write@byte stored from wreg
  2594  02D8  00F5               	movwf	clcd_write@byte
  2595  02D9                     l1355:	
  2596                           
  2597                           ;clcd.c: 4: static void clcd_write(unsigned char byte, unsigned char mode);clcd.c: 5: {;
      +                          clcd.c: 6:     RE2 = mode;
  2598  02D9  1872               	btfsc	clcd_write@mode,0
  2599  02DA  2ADC               	goto	u731
  2600  02DB  2AE0               	goto	u730
  2601  02DC                     u731:	
  2602  02DC  1283               	bcf	3,5	;RP0=0, select bank0
  2603  02DD  1303               	bcf	3,6	;RP1=0, select bank0
  2604  02DE  1509               	bsf	9,2	;volatile
  2605  02DF  2AE3               	goto	u744
  2606  02E0                     u730:	
  2607  02E0  1283               	bcf	3,5	;RP0=0, select bank0
  2608  02E1  1303               	bcf	3,6	;RP1=0, select bank0
  2609  02E2  1109               	bcf	9,2	;volatile
  2610  02E3                     u744:	
  2611  02E3                     l1357:	
  2612                           
  2613                           ;clcd.c: 8:     PORTD = byte & 0xF0;
  2614  02E3  0875               	movf	clcd_write@byte,w
  2615  02E4  39F0               	andlw	240
  2616  02E5  0088               	movwf	8	;volatile
  2617  02E6                     l1359:	
  2618                           
  2619                           ;clcd.c: 9:     RE1 = 1;
  2620  02E6  1489               	bsf	9,1	;volatile
  2621  02E7                     l1361:	
  2622                           
  2623                           ;clcd.c: 10:     _delay((unsigned long)((100)*(20000000/4000000.0)));
  2624  02E7  30A6               	movlw	166
  2625  02E8  00F3               	movwf	??_clcd_write
  2626  02E9                     u1007:	
  2627  02E9  0BF3               	decfsz	??_clcd_write,f
  2628  02EA  2AE9               	goto	u1007
  2629  02EB  0000               	nop
  2630  02EC                     l1363:	
  2631                           
  2632                           ;clcd.c: 11:     RE1 = 0;
  2633  02EC  1283               	bcf	3,5	;RP0=0, select bank0
  2634  02ED  1303               	bcf	3,6	;RP1=0, select bank0
  2635  02EE  1089               	bcf	9,1	;volatile
  2636  02EF                     l1365:	
  2637                           
  2638                           ;clcd.c: 13:     PORTD = (byte & 0x0F) << 4;
  2639  02EF  0875               	movf	clcd_write@byte,w
  2640  02F0  390F               	andlw	15
  2641  02F1  00F3               	movwf	??_clcd_write
  2642  02F2  3003               	movlw	3
  2643  02F3                     u755:	
  2644  02F3  1003               	clrc
  2645  02F4  0DF3               	rlf	??_clcd_write,f
  2646  02F5  3EFF               	addlw	-1
  2647  02F6  1D03               	skipz
  2648  02F7  2AF3               	goto	u755
  2649  02F8  1003               	clrc
  2650  02F9  0D73               	rlf	??_clcd_write,w
  2651  02FA  0088               	movwf	8	;volatile
  2652  02FB                     l1367:	
  2653                           
  2654                           ;clcd.c: 14:     RE1 = 1;
  2655  02FB  1489               	bsf	9,1	;volatile
  2656  02FC                     l1369:	
  2657                           
  2658                           ;clcd.c: 15:     _delay((unsigned long)((100)*(20000000/4000000.0)));
  2659  02FC  30A6               	movlw	166
  2660  02FD  00F3               	movwf	??_clcd_write
  2661  02FE                     u1017:	
  2662  02FE  0BF3               	decfsz	??_clcd_write,f
  2663  02FF  2AFE               	goto	u1017
  2664  0300  0000               	nop
  2665  0301                     l1371:	
  2666                           
  2667                           ;clcd.c: 16:     RE1 = 0;
  2668  0301  1283               	bcf	3,5	;RP0=0, select bank0
  2669  0302  1303               	bcf	3,6	;RP1=0, select bank0
  2670  0303  1089               	bcf	9,1	;volatile
  2671  0304                     l1373:	
  2672                           
  2673                           ;clcd.c: 18:     _delay((unsigned long)((4100)*(20000000/4000000.0)));
  2674  0304  301B               	movlw	27
  2675  0305  00F4               	movwf	??_clcd_write+1
  2676  0306  309E               	movlw	158
  2677  0307  00F3               	movwf	??_clcd_write
  2678  0308                     u1027:	
  2679  0308  0BF3               	decfsz	??_clcd_write,f
  2680  0309  2B08               	goto	u1027
  2681  030A  0BF4               	decfsz	??_clcd_write+1,f
  2682  030B  2B08               	goto	u1027
  2683  030C  0000               	nop
  2684  030D                     l88:	
  2685  030D  0008               	return
  2686  030E                     __end_of_clcd_write:	
  2687                           
  2688                           	psect	text14
  2689  0439                     __ptext14:	
  2690 ;; *************** function _isr *****************
  2691 ;; Defined at:
  2692 ;;		line 4 in file "isr.c"
  2693 ;; Parameters:    Size  Location     Type
  2694 ;;		None
  2695 ;; Auto vars:     Size  Location     Type
  2696 ;;		None
  2697 ;; Return value:  Size  Location     Type
  2698 ;;                  1    wreg      void 
  2699 ;; Registers used:
  2700 ;;		None
  2701 ;; Tracked objects:
  2702 ;;		On entry : 0/0
  2703 ;;		On exit  : 0/0
  2704 ;;		Unchanged: 0/0
  2705 ;; Data sizes:     COMMON   BANK0   BANK1   BANK3   BANK2
  2706 ;;      Params:         0       0       0       0       0
  2707 ;;      Locals:         0       0       0       0       0
  2708 ;;      Temps:          2       0       0       0       0
  2709 ;;      Totals:         2       0       0       0       0
  2710 ;;Total ram usage:        2 bytes
  2711 ;; Hardware stack levels used:    1
  2712 ;; This function calls:
  2713 ;;		Nothing
  2714 ;; This function is called by:
  2715 ;;		Interrupt level 1
  2716 ;; This function uses a non-reentrant model
  2717 ;;
  2718                           
  2719                           
  2720                           ;psect for function _isr
  2721  0439                     _isr:	
  2722  0439                     i1l179:	
  2723  0439  0871               	movf	??_isr+1,w
  2724  043A  008A               	movwf	10
  2725  043B  0E70               	swapf	??_isr^(0+4294967168),w
  2726  043C  0083               	movwf	3
  2727  043D  0EFE               	swapf	btemp,f
  2728  043E  0E7E               	swapf	btemp,w
  2729  043F  0009               	retfie
  2730  0440                     __end_of_isr:	
  2731  007E                     btemp	set	126	;btemp
  2732  007E                     wtemp0	set	126
  2733                           
  2734                           	psect	intentry
  2735  0004                     __pintentry:	
  2736                           ;incstack = 0
  2737                           ; Regs used in _isr: []
  2738                           
  2739  0004                     interrupt_function:	
  2740  007E                     saved_w	set	btemp
  2741  0004  00FE               	movwf	btemp
  2742  0005  0E03               	swapf	3,w
  2743  0006  00F0               	movwf	??_isr
  2744  0007  080A               	movf	10,w
  2745  0008  00F1               	movwf	??_isr+1
  2746  0009  120A  118A  2C39   	ljmp	_isr


Data Sizes:
    Strings     111
    Constant    0
    Data        7
    BSS         19
    Persistent  0
    Stack       0

Auto Spaces:
    Space          Size  Autos    Used
    COMMON           14      8      12
    BANK0            80      8      30
    BANK1            80      0       0
    BANK3            96      0       0
    BANK2            96      0       0

Pointer List with Targets:

    strcmp@s2	PTR const unsigned char  size(1) Largest target is 9
		 -> STR_1(CODE[9]), 

    strcmp@s1	PTR const unsigned char  size(1) Largest target is 10
		 -> user(BANK0[10]), 

    clcd_print@str	PTR const unsigned char  size(1) Largest target is 17
		 -> STR_7(CODE[17]), STR_6(CODE[17]), STR_5(CODE[17]), STR_4(CODE[17]), 
		 -> STR_3(CODE[17]), STR_2(CODE[17]), 

    ledblink@chance	PTR int  size(1) Largest target is 2
		 -> chance(BANK0[2]), 

    password	PTR unsigned char  size(1) Largest target is 9
		 -> STR_1(CODE[9]), 


Critical Paths under _main in COMMON

    _main->_clcd_print
    _main->_clcd_putch
    _read_matrix_keypad->_scan_keypad
    _ledblink->___wmul
    _init_clcd->_init_display_controller
    _init_display_controller->_clcd_write
    _clcd_putch->_clcd_write
    _clcd_print->_clcd_write

Critical Paths under _isr in COMMON

    None.

Critical Paths under _main in BANK0

    _main->_strcmp

Critical Paths under _isr in BANK0

    None.

Critical Paths under _main in BANK1

    None.

Critical Paths under _isr in BANK1

    None.

Critical Paths under _main in BANK3

    None.

Critical Paths under _isr in BANK3

    None.

Critical Paths under _main in BANK2

    None.

Critical Paths under _isr in BANK2

    None.

Call Graph Tables:

 ---------------------------------------------------------------------------------
 (Depth) Function   	        Calls       Base Space   Used Autos Params    Refs
 ---------------------------------------------------------------------------------
 (0) _main                                                 6     6      0    5468
                                              2 BANK0      6     6      0
                         _clcd_print
                         _clcd_putch
                        _init_config
                           _ledblink
                 _read_matrix_keypad
                             _strcmp
 ---------------------------------------------------------------------------------
 (2) _strcmp                                               7     5      2     259
                                              2 COMMON     5     3      2
                                              0 BANK0      2     2      0
 ---------------------------------------------------------------------------------
 (1) _read_matrix_keypad                                   3     3      0     180
                                              4 COMMON     3     3      0
                        _scan_keypad
 ---------------------------------------------------------------------------------
 (2) _scan_keypad                                          2     2      0      69
                                              2 COMMON     2     2      0
 ---------------------------------------------------------------------------------
 (1) _ledblink                                             1     1      0     383
                                              0 BANK0      1     1      0
                             ___wmul
 ---------------------------------------------------------------------------------
 (2) ___wmul                                               6     2      4     316
                                              2 COMMON     6     2      4
 ---------------------------------------------------------------------------------
 (1) _init_config                                          0     0      0    1083
                          _init_clcd
                 _init_matrix_keypad
                        _init_timer2
 ---------------------------------------------------------------------------------
 (2) _init_timer2                                          0     0      0       0
 ---------------------------------------------------------------------------------
 (2) _init_matrix_keypad                                   0     0      0       0
 ---------------------------------------------------------------------------------
 (2) _init_clcd                                            0     0      0    1083
            _init_display_controller
 ---------------------------------------------------------------------------------
 (3) _init_display_controller                              2     2      0    1083
                                              6 COMMON     2     2      0
                         _clcd_write
 ---------------------------------------------------------------------------------
 (1) _clcd_putch                                           2     1      1    1415
                                              6 COMMON     2     1      1
                         _clcd_write
 ---------------------------------------------------------------------------------
 (1) _clcd_print                                           3     2      1    1935
                                              6 COMMON     2     1      1
                                              0 BANK0      1     1      0
                         _clcd_write
 ---------------------------------------------------------------------------------
 (4) _clcd_write                                           4     3      1    1083
                                              2 COMMON     4     3      1
 ---------------------------------------------------------------------------------
 Estimated maximum stack depth 4
 ---------------------------------------------------------------------------------
 (Depth) Function   	        Calls       Base Space   Used Autos Params    Refs
 ---------------------------------------------------------------------------------
 (5) _isr                                                  2     2      0       0
                                              0 COMMON     2     2      0
 ---------------------------------------------------------------------------------
 Estimated maximum stack depth 5
 ---------------------------------------------------------------------------------

 Call Graph Graphs:

 _main (ROOT)
   _clcd_print
     _clcd_write
   _clcd_putch
     _clcd_write
   _init_config
     _init_clcd
       _init_display_controller
         _clcd_write
     _init_matrix_keypad
     _init_timer2
   _ledblink
     ___wmul
   _read_matrix_keypad
     _scan_keypad
   _strcmp

 _isr (ROOT)

 Address spaces:
Name               Size   Autos  Total    Cost      Usage
BANK3               60      0       0       9        0.0%
BITBANK3            60      0       0       8        0.0%
SFR3                 0      0       0       4        0.0%
BITSFR3              0      0       0       4        0.0%
BANK2               60      0       0      11        0.0%
BITBANK2            60      0       0      10        0.0%
SFR2                 0      0       0       5        0.0%
BITSFR2              0      0       0       5        0.0%
BANK1               50      0       0       7        0.0%
BITBANK1            50      0       0       6        0.0%
SFR1                 0      0       0       2        0.0%
BITSFR1              0      0       0       2        0.0%
BANK0               50      8      1E       5       37.5%
BITBANK0            50      0       0       4        0.0%
SFR0                 0      0       0       1        0.0%
BITSFR0              0      0       0       1        0.0%
COMMON               E      8       C       1       85.7%
BITCOMMON            E      0       0       0        0.0%
CODE                 0      0       0       0        0.0%
DATA                 0      0      2A      12        0.0%
ABS                  0      0      2A       3        0.0%
NULL                 0      0       0       0        0.0%
STACK                0      0       0       2        0.0%
EEDATA             100      0       0       0        0.0%


Microchip Technology PIC Macro Assembler V2.10 build 88905656 
Symbol Table                                                                                   Tue Jun 23 01:20:24 2020

                               _i 0038                                 pc 0002                    clcd_print@addr 0076  
__size_of_init_display_controller 0063                                l51 03F8                                l48 0396  
                              l64 011E                                l91 02D7                                l94 0430  
                              l88 030D                                l97 0409                                fsr 0004  
             ___wmul@multiplicand 0074                _init_matrix_keypad 040A                               l103 036B  
                             l130 019B                               l131 01FA                               l124 0418  
                             l140 01D0                               l132 01A7                               l141 01CA  
                             l133 01A1                               l129 0193                               l146 01E5  
                             l138 01BC                               l147 01ED                               l139 01C4  
                             l149 01F3                               l157 03BB                               l174 0425  
                             l265 03C8                               l267 03E0                               l715 033D  
                             _GIE 005F                               _RB0 0030                               _RB1 0031  
                             _RB2 0032                               _RD1 0041                               _RD2 0042  
                             _RE1 0049                               _RD3 0043                               _RE2 004A  
                             _RD7 0047                               u400 0193                               u401 0192  
                             u410 0199                               u411 0198                               u500 01F1  
                             u420 019F                               u501 01F0                               u421 019E  
                             u510 01F7                               u430 01A5                               _PR2 0092  
                             u511 01F6                               u431 01A4                               u440 01BC  
                             u600 03B8                               u441 01BB                               u601 03B7  
                             u450 01C2                               u451 01C1                               u460 01C8  
                             u461 01C7                               u470 01CE                               u471 01CD  
                             u800 037D                               u480 01E5                               u801 037C  
                             u481 01E4                               u730 02E0                               u810 036B  
                             u490 01EB                               u570 03A5                               u731 02DC  
                             u811 036A                               u491 01EA                               u571 03A4  
                             u580 03AC                               u820 0331                               u900 0135  
                             u581 03AB                               u821 0330                               u901 0134  
                             u590 03B1                               u830 0338                               u910 0144  
                             u591 03B0                               u831 0337                               u911 0143  
                             u744 02E3                               u760 03C2                               u920 0155  
                             u840 0064                               u761 03C1                               u921 0154  
                             u905 0131                               u841 0063                               u850 006A  
                             u755 02F3                               u915 0140                               u851 0069  
                             u860 00AF                               u861 00AE                               u790 03DC  
                             u870 00BC                               u791 03DB                               u775 03C9  
                             u871 00BB                               u880 00E8                               u937 0279  
                             u785 03D0                               u881 00E7                               u890 00FD  
                             u947 0288                               u891 00FC                               u875 00B8  
                             u957 0296                               u967 02AC                               u977 02B8  
                             u987 02C6                               u997 02D4                               _isr 0439  
                  clcd_putch@addr 0076                               fsr0 0004                    clcd_putch@data 0077  
                             indf 0000               ?_init_matrix_keypad 0070                              l1121 0420  
                            l1131 0416                              l1123 0422                              l1133 0417  
                            l1125 040A                              l1141 0199                              l1127 0412  
                            l1119 0419                              l1135 017C                              l1231 0398  
                            l1401 0429                              l1129 0413                              l1161 01C2  
                            l1153 01A5                              l1137 0181                              l1241 03A7  
                            l1233 03A0                              l1403 042A                              l1411 03C2  
                            l1147 019F                              l1139 0185                              l1243 03AC  
                            l1235 03A5                              l1405 042B                              l1413 03CF  
                            l1421 036F                              l1181 01EB                              l1173 01CE  
                            l1157 01AA                              l1245 03B1                              l1253 03B3  
                            l1501 00E1                              l1431 03F3                              l1415 03D6  
                            l1407 03BC                              l1423 037D                              l1167 01C8  
                            l1159 01AE                              l1255 03B8                              l1511 011B  
                            l1503 00E8                              l1361 02E7                              l1441 0357  
                            l1433 03F6                              l1417 03DC                              l1409 03BE  
                            l1425 0394                              l1193 01F7                              l1177 01D3  
                            l1257 03BA                              l1513 0122                              l1505 00ED  
                            l1521 014A                              l1371 0301                              l1363 02EC  
                            l1355 02D9                              l1443 035D                              l1435 03F7  
                            l1427 03E1                              l1187 01F1                              l1179 01D7  
                            l1451 0316                              l1523 0155                              l1515 0128  
                            l1507 00FD                              l1373 0304                              l1365 02EF  
                            l1357 02E3                              l1437 0341                              l1445 03FA  
                            l1381 0294                              l1429 03F0                              l1197 01F9  
                            l1453 031A                              l1525 0160                              l1517 0135  
                            l1509 0115                              l1461 0049                              l1367 02FB  
                            l1359 02E6                              l1439 0349                              l1391 02B6  
                            l1383 0299                              l1375 0275                              l1455 0331  
                            l1447 0311                              l1527 0169                              l1519 0144  
                            l1471 006A                              l1463 004F                              l1369 02FC  
                            l1393 02BB                              l1385 02A0                              l1377 027D  
                            l1457 0338                              l1449 0312                              l1529 0174  
                            l1481 00A1                              l1473 0080                              l1465 0054  
                            l1395 02CB                              l1387 02A3                              l1379 0284  
                            l1491 00AF                              l1483 00A2                              l1475 0086  
                            l1467 005F                              l1397 02D2                              l1389 02AA  
                            l1493 00BC                              l1485 00A4                              l1477 0088  
                            l1469 0064                              l1399 0426                              l1495 00C7  
                            l1487 00A8                              l1479 009E                              l1497 00D2  
                            l1489 00AA                              l1499 00DA                              ?_isr 0070  
                            STR_1 026C                              STR_2 024A                              STR_3 0217  
                            STR_4 0228                              STR_5 0206                              STR_6 0239  
                            STR_7 025B                              u1007 02E9                              u1017 02FE  
                            u1027 0308                              _PEIE 005E                              _main 0049  
                            btemp 007E                              _user 0026                              start 000C  
            ??_init_matrix_keypad 0072                    clcd_write@byte 0075                    clcd_write@mode 0072  
                           ??_isr 0070                             ?_main 0070                     __CFG_WDTE$OFF 0000  
                           i1l179 0439                      ?_init_config 0070                             _PORTD 0008  
                           _TRISB 0086                             _TRISD 0088                      ?_init_timer2 0070  
                           _nRBPU 040F                _read_matrix_keypad 0397                             _blink 0022  
                           _count 0078                             main@j 0036                             pclath 000A  
             ?_read_matrix_keypad 0070                             status 0003                             wtemp0 007E  
                    ?_scan_keypad 0070                   __initialization 000F                      __end_of_main 017C  
            ??_read_matrix_keypad 0074                      ledblink@wait 0020                            ??_main 0032  
                          _TMR2IE 0461                            _TMR2ON 0092                            _TRISE1 0449  
                          _TRISE2 044A                            _TRISD7 0447           _init_display_controller 0275  
                __end_of_ledblink 0397                            ___wmul 03BC                            _chance 003C  
                          _cursor 0024                            _strcmp 030E                      __pdataCOMMON 007B  
                          saved_w 007E           __end_of__initialization 0045                    __pcstackCOMMON 0070  
                    __pidataBANK0 0440              __size_of_init_config 0018              __size_of_init_timer2 000D  
                      __pbssBANK0 0020                __size_of_init_clcd 000B         ??_init_display_controller 0076  
                      _clcd_print 033E                        _clcd_putch 03F9                        _clcd_write 02D8  
            __size_of_scan_keypad 007F                        __pmaintext 0049                           ?___wmul 0072  
                      __pintentry 0004                           ?_strcmp 0072                           _T2CKPS0 0090  
                         _T2CKPS1 0091                        __stringtab 0200                         ?_ledblink 0070  
     __size_of_init_matrix_keypad 000F                   __size_of___wmul 0025                           __ptext1 030E  
                         __ptext2 0397                           __ptext3 017C                           __ptext4 036C  
                         __ptext5 03BC                           __ptext6 03E1                           __ptext7 0419  
                         __ptext8 040A                           __ptext9 0426                   __size_of_strcmp 0030  
 __end_of_init_display_controller 02D8                 __end_of_init_clcd 0431                           _initial 003A  
                    __size_of_isr 0007                        _duty_cycle 0079                           main@key 0035  
                         clrloop0 0432              end_of_initialization 0045                        ??_ledblink 0078  
                      _loop_count 007A                       ?_clcd_print 0076                       ?_clcd_putch 0076  
                     ?_clcd_write 0072                           strcmp@r 0030       __size_of_read_matrix_keypad 0025  
                   clcd_print@str 0030                    __end_of___wmul 03E1                     __pidataCOMMON 0446  
                  __end_of_strcmp 033E               start_initialization 000F               __size_of_clcd_print 002E  
                    scan_keypad@i 0072               __size_of_clcd_putch 0011               __size_of_clcd_write 0036  
          read_matrix_keypad@mode 0075            read_matrix_keypad@once 007B                       __end_of_isr 0440  
                  ledblink@chance 0030                          ??___wmul 0076                       __pdataBANK0 0038  
                        ??_strcmp 0074                     ??_init_config 0078                     ??_init_timer2 0072  
                     __pbssCOMMON 0078                         ___latbits 0002                     __pcstackBANK0 0030  
               __size_of_ledblink 002B                     ??_scan_keypad 0072                         __pstrings 0200  
                       _init_clcd 0426               __end_of_init_config 03F9               __end_of_init_timer2 0426  
        ?_init_display_controller 0070                 interrupt_function 0004                    ___wmul@product 0076  
                       clear_ram0 0431                      ??_clcd_print 0077                      ??_clcd_putch 0077  
      __end_of_init_matrix_keypad 0419                      ??_clcd_write 0073               __end_of_scan_keypad 01FB  
                     __stringbase 0205                 ___wmul@multiplier 0072                __end_of_clcd_print 036C  
              __end_of_clcd_putch 040A                __end_of_clcd_write 030E                        ?_init_clcd 0070  
           read_matrix_keypad@key 0076        __end_of_read_matrix_keypad 03BC                __end_of__stringtab 0206  
                     _init_config 03E1                       _init_timer2 0419                          __ptext10 0275  
                        __ptext11 03F9                          __ptext12 033E                          __ptext13 02D8  
                        __ptext14 0439                          _ledblink 036C                     __size_of_main 0133  
                     _scan_keypad 017C                          _password 003B                          main@wait 0033  
                     ??_init_clcd 0078                          intlevel1 0000                         stringcode 0200  
                        strcmp@s1 0031                          strcmp@s2 0072                          stringdir 0200  
                        stringtab 0200  
