

Microchip MPLAB XC8 Assembler V2.10 build 88905656 
                                                                                               Sun Jul  5 14:38:59 2020

Microchip MPLAB XC8 C Compiler v2.10 (Free license) build 20190730164152 Og1 
     1                           	processor	16F877A
     2                           	opt	pw 120
     3                           	opt	flic
     4                           	psect	strings,global,class=STRING,delta=2
     5                           	psect	cinit,global,class=CODE,merge=1,delta=2
     6                           	psect	cstackCOMMON,global,class=COMMON,space=1,delta=1
     7                           	psect	cstackBANK0,global,class=BANK0,space=1,delta=1
     8                           	psect	maintext,global,class=CODE,split=1,delta=2
     9                           	psect	text1,local,class=CODE,merge=1,delta=2
    10                           	psect	text2,local,class=CODE,merge=1,delta=2
    11                           	psect	text3,local,class=CODE,merge=1,delta=2
    12                           	psect	text4,local,class=CODE,merge=1,delta=2
    13                           	psect	text5,local,class=CODE,merge=1,delta=2
    14                           	psect	text6,local,class=CODE,merge=1,delta=2
    15                           	psect	text7,local,class=CODE,merge=1,delta=2
    16                           	psect	text8,local,class=CODE,merge=1,delta=2,group=1
    17                           	psect	text9,local,class=CODE,merge=1,delta=2,group=1
    18                           	psect	text10,local,class=CODE,merge=1,delta=2,group=1
    19                           	psect	text11,local,class=CODE,merge=1,delta=2,group=1
    20                           	psect	text12,local,class=CODE,merge=1,delta=2,group=1
    21                           	psect	text13,local,class=CODE,merge=1,delta=2,group=1
    22                           	psect	text14,local,class=CODE,merge=1,delta=2,group=1
    23                           	psect	text15,local,class=CODE,merge=1,delta=2
    24                           	psect	text16,local,class=CODE,merge=1,delta=2
    25                           	dabs	1,0x7E,2
    26  0000                     
    27                           ; Version 2.10
    28                           ; Generated 31/07/2019 GMT
    29                           ; 
    30                           ; Copyright © 2019, Microchip Technology Inc. and its subsidiaries ("Microchip")
    31                           ; All rights reserved.
    32                           ; 
    33                           ; This software is developed by Microchip Technology Inc. and its subsidiaries ("Microch
      +                          ip").
    34                           ; 
    35                           ; Redistribution and use in source and binary forms, with or without modification, are
    36                           ; permitted provided that the following conditions are met:
    37                           ; 
    38                           ;     1. Redistributions of source code must retain the above copyright notice, this lis
      +                          t of
    39                           ;        conditions and the following disclaimer.
    40                           ; 
    41                           ;     2. Redistributions in binary form must reproduce the above copyright notice, this 
      +                          list
    42                           ;        of conditions and the following disclaimer in the documentation and/or other
    43                           ;        materials provided with the distribution.
    44                           ; 
    45                           ;     3. Microchip's name may not be used to endorse or promote products derived from th
      +                          is
    46                           ;        software without specific prior written permission.
    47                           ; 
    48                           ; THIS SOFTWARE IS PROVIDED BY MICROCHIP "AS IS" AND ANY EXPRESS OR IMPLIED WARRANTIES,
    49                           ; INCLUDING, BUT NOT LIMITED TO, THE IMPLIED WARRANTIES OF MERCHANTABILITY AND FITNESS F
      +                          OR
    50                           ; PURPOSE ARE DISCLAIMED.  IN NO EVENT SHALL MICROCHIP BE LIABLE FOR ANY DIRECT, INDIREC
      +                          T,
    51                           ; INCIDENTAL, SPECIAL, EXEMPLARY, OR CONSEQUENTIAL DAMAGES (INCLUDING BUT NOT LIMITED TO
    52                           ; PROCUREMENT OF SUBSTITUTE GOODS OR SERVICES; LOSS OF USE, DATA OR PROFITS; OR BUSINESS
    53                           ; INTERRUPTION) HOWSOEVER CAUSED AND ON ANY THEORY OF LIABILITY, WHETHER IN CONTRACT, ST
      +                          RICT
    54                           ; LIABILITY, OR TORT (INCLUDING NEGLIGENCE OR OTHERWISE) ARISING IN ANY WAY OUT OF THE U
      +                          SE OF
    55                           ; THIS SOFTWARE, EVEN IF ADVISED OF THE POSSIBILITY OF SUCH DAMAGE.
    56                           ; 
    57                           ; 
    58                           ; Code-generator required, PIC16F877A Definitions
    59                           ; 
    60                           ; SFR Addresses
    61  0000                     	;# 
    62  0001                     	;# 
    63  0002                     	;# 
    64  0003                     	;# 
    65  0004                     	;# 
    66  0005                     	;# 
    67  0006                     	;# 
    68  0007                     	;# 
    69  0008                     	;# 
    70  0009                     	;# 
    71  000A                     	;# 
    72  000B                     	;# 
    73  000C                     	;# 
    74  000D                     	;# 
    75  000E                     	;# 
    76  000E                     	;# 
    77  000F                     	;# 
    78  0010                     	;# 
    79  0011                     	;# 
    80  0012                     	;# 
    81  0013                     	;# 
    82  0014                     	;# 
    83  0015                     	;# 
    84  0015                     	;# 
    85  0016                     	;# 
    86  0017                     	;# 
    87  0018                     	;# 
    88  0019                     	;# 
    89  001A                     	;# 
    90  001B                     	;# 
    91  001B                     	;# 
    92  001C                     	;# 
    93  001D                     	;# 
    94  001E                     	;# 
    95  001F                     	;# 
    96  0081                     	;# 
    97  0085                     	;# 
    98  0086                     	;# 
    99  0087                     	;# 
   100  0088                     	;# 
   101  0089                     	;# 
   102  008C                     	;# 
   103  008D                     	;# 
   104  008E                     	;# 
   105  0091                     	;# 
   106  0092                     	;# 
   107  0093                     	;# 
   108  0094                     	;# 
   109  0098                     	;# 
   110  0099                     	;# 
   111  009C                     	;# 
   112  009D                     	;# 
   113  009E                     	;# 
   114  009F                     	;# 
   115  010C                     	;# 
   116  010D                     	;# 
   117  010E                     	;# 
   118  010F                     	;# 
   119  018C                     	;# 
   120  018D                     	;# 
   121  0000                     	;# 
   122  0001                     	;# 
   123  0002                     	;# 
   124  0003                     	;# 
   125  0004                     	;# 
   126  0005                     	;# 
   127  0006                     	;# 
   128  0007                     	;# 
   129  0008                     	;# 
   130  0009                     	;# 
   131  000A                     	;# 
   132  000B                     	;# 
   133  000C                     	;# 
   134  000D                     	;# 
   135  000E                     	;# 
   136  000E                     	;# 
   137  000F                     	;# 
   138  0010                     	;# 
   139  0011                     	;# 
   140  0012                     	;# 
   141  0013                     	;# 
   142  0014                     	;# 
   143  0015                     	;# 
   144  0015                     	;# 
   145  0016                     	;# 
   146  0017                     	;# 
   147  0018                     	;# 
   148  0019                     	;# 
   149  001A                     	;# 
   150  001B                     	;# 
   151  001B                     	;# 
   152  001C                     	;# 
   153  001D                     	;# 
   154  001E                     	;# 
   155  001F                     	;# 
   156  0081                     	;# 
   157  0085                     	;# 
   158  0086                     	;# 
   159  0087                     	;# 
   160  0088                     	;# 
   161  0089                     	;# 
   162  008C                     	;# 
   163  008D                     	;# 
   164  008E                     	;# 
   165  0091                     	;# 
   166  0092                     	;# 
   167  0093                     	;# 
   168  0094                     	;# 
   169  0098                     	;# 
   170  0099                     	;# 
   171  009C                     	;# 
   172  009D                     	;# 
   173  009E                     	;# 
   174  009F                     	;# 
   175  010C                     	;# 
   176  010D                     	;# 
   177  010E                     	;# 
   178  010F                     	;# 
   179  018C                     	;# 
   180  018D                     	;# 
   181  0000                     	;# 
   182  0001                     	;# 
   183  0002                     	;# 
   184  0003                     	;# 
   185  0004                     	;# 
   186  0005                     	;# 
   187  0006                     	;# 
   188  0007                     	;# 
   189  0008                     	;# 
   190  0009                     	;# 
   191  000A                     	;# 
   192  000B                     	;# 
   193  000C                     	;# 
   194  000D                     	;# 
   195  000E                     	;# 
   196  000E                     	;# 
   197  000F                     	;# 
   198  0010                     	;# 
   199  0011                     	;# 
   200  0012                     	;# 
   201  0013                     	;# 
   202  0014                     	;# 
   203  0015                     	;# 
   204  0015                     	;# 
   205  0016                     	;# 
   206  0017                     	;# 
   207  0018                     	;# 
   208  0019                     	;# 
   209  001A                     	;# 
   210  001B                     	;# 
   211  001B                     	;# 
   212  001C                     	;# 
   213  001D                     	;# 
   214  001E                     	;# 
   215  001F                     	;# 
   216  0081                     	;# 
   217  0085                     	;# 
   218  0086                     	;# 
   219  0087                     	;# 
   220  0088                     	;# 
   221  0089                     	;# 
   222  008C                     	;# 
   223  008D                     	;# 
   224  008E                     	;# 
   225  0091                     	;# 
   226  0092                     	;# 
   227  0093                     	;# 
   228  0094                     	;# 
   229  0098                     	;# 
   230  0099                     	;# 
   231  009C                     	;# 
   232  009D                     	;# 
   233  009E                     	;# 
   234  009F                     	;# 
   235  010C                     	;# 
   236  010D                     	;# 
   237  010E                     	;# 
   238  010F                     	;# 
   239  018C                     	;# 
   240  018D                     	;# 
   241  0000                     	;# 
   242  0001                     	;# 
   243  0002                     	;# 
   244  0003                     	;# 
   245  0004                     	;# 
   246  0005                     	;# 
   247  0006                     	;# 
   248  0007                     	;# 
   249  0008                     	;# 
   250  0009                     	;# 
   251  000A                     	;# 
   252  000B                     	;# 
   253  000C                     	;# 
   254  000D                     	;# 
   255  000E                     	;# 
   256  000E                     	;# 
   257  000F                     	;# 
   258  0010                     	;# 
   259  0011                     	;# 
   260  0012                     	;# 
   261  0013                     	;# 
   262  0014                     	;# 
   263  0015                     	;# 
   264  0015                     	;# 
   265  0016                     	;# 
   266  0017                     	;# 
   267  0018                     	;# 
   268  0019                     	;# 
   269  001A                     	;# 
   270  001B                     	;# 
   271  001B                     	;# 
   272  001C                     	;# 
   273  001D                     	;# 
   274  001E                     	;# 
   275  001F                     	;# 
   276  0081                     	;# 
   277  0085                     	;# 
   278  0086                     	;# 
   279  0087                     	;# 
   280  0088                     	;# 
   281  0089                     	;# 
   282  008C                     	;# 
   283  008D                     	;# 
   284  008E                     	;# 
   285  0091                     	;# 
   286  0092                     	;# 
   287  0093                     	;# 
   288  0094                     	;# 
   289  0098                     	;# 
   290  0099                     	;# 
   291  009C                     	;# 
   292  009D                     	;# 
   293  009E                     	;# 
   294  009F                     	;# 
   295  010C                     	;# 
   296  010D                     	;# 
   297  010E                     	;# 
   298  010F                     	;# 
   299  018C                     	;# 
   300  018D                     	;# 
   301  0008                     _PORTD	set	8
   302  001E                     _ADRESH	set	30
   303  001F                     _ADCON0	set	31
   304  0049                     _RE1	set	73
   305  004A                     _RE2	set	74
   306  00FA                     _nDONE	set	250
   307  00FA                     _GO	set	250
   308  00FE                     _ADCS0	set	254
   309  00FF                     _ADCS1	set	255
   310  00F8                     _ADON	set	248
   311  0088                     _TRISD	set	136
   312  009E                     _ADRESL	set	158
   313  0449                     _TRISE1	set	1097
   314  044A                     _TRISE2	set	1098
   315  04FF                     _ADFM	set	1279
   316                           
   317                           	psect	strings
   318  0800                     __pstrings:	
   319  0800                     stringtab:	
   320  0800                     __stringtab:	
   321                           
   322                           ;	String table - string pointers are 1 byte each
   323  0800  1BFF               	btfsc	btemp+1,7
   324  0801  280A               	ljmp	stringcode
   325  0802  1383               	bcf	3,7
   326  0803  187F               	btfsc	btemp+1,0
   327  0804  1783               	bsf	3,7
   328  0805  0800               	movf	0,w
   329  0806  0A84               	incf	4,f
   330  0807  1903               	skipnz
   331  0808  0AFF               	incf	btemp+1,f
   332  0809  0008               	return
   333  080A                     stringcode:	
   334  080A                     stringdir:	
   335  080A  3008               	movlw	high stringdir
   336  080B  008A               	movwf	10
   337  080C  0804               	movf	4,w
   338  080D  0A84               	incf	4,f
   339  080E  0782               	addwf	2,f
   340  080F                     __stringbase:	
   341  080F  3400               	retlw	0
   342  0810                     __end_of__stringtab:	
   343  0810                     STR_3:	
   344  0810  344C               	retlw	76	;'L'
   345  0811  344D               	retlw	77	;'M'
   346  0812  3433               	retlw	51	;'3'
   347  0813  3435               	retlw	53	;'5'
   348  0814  3420               	retlw	32	;' '
   349  0815  3454               	retlw	84	;'T'
   350  0816  3445               	retlw	69	;'E'
   351  0817  344D               	retlw	77	;'M'
   352  0818  3450               	retlw	80	;'P'
   353  0819  3445               	retlw	69	;'E'
   354  081A  3452               	retlw	82	;'R'
   355  081B  3420               	retlw	32	;' '
   356  081C  3454               	retlw	84	;'T'
   357  081D  3445               	retlw	69	;'E'
   358  081E  3453               	retlw	83	;'S'
   359  081F  3454               	retlw	84	;'T'
   360  0820  3400               	retlw	0
   361  0821                     STR_1:	
   362  0821  3454               	retlw	84	;'T'
   363  0822  3465               	retlw	101	;'e'
   364  0823  346D               	retlw	109	;'m'
   365  0824  3470               	retlw	112	;'p'
   366  0825  343A               	retlw	58	;':'
   367  0826  3400               	retlw	0
   368  0827                     STR_2:	
   369  0827  3443               	retlw	67	;'C'
   370  0828  3400               	retlw	0
   371                           
   372                           ; #config settings
   373  0000                     
   374                           	psect	cinit
   375  07FC                     start_initialization:	
   376  07FC                     __initialization:	
   377  07FC                     end_of_initialization:	
   378                           ;End of C runtime variable initialization code
   379                           
   380  07FC                     __end_of__initialization:	
   381  07FC  0183               	clrf	3
   382  07FD  120A  118A  2804   	ljmp	_main	;jump to C main() function
   383                           
   384                           	psect	cstackCOMMON
   385  0070                     __pcstackCOMMON:	
   386  0070                     ?_init_clcd:	
   387  0070                     ?_init_adc:	
   388                           ; 1 bytes @ 0x0
   389                           
   390  0070                     ??_init_adc:	
   391                           ; 1 bytes @ 0x0
   392                           
   393  0070                     ?_init_config:	
   394                           ; 1 bytes @ 0x0
   395                           
   396  0070                     ?_main:	
   397                           ; 1 bytes @ 0x0
   398                           
   399  0070                     ?_clcd_write:	
   400                           ; 1 bytes @ 0x0
   401                           
   402  0070                     ?_init_display_controller:	
   403                           ; 1 bytes @ 0x0
   404                           
   405  0070                     ?__Umul8_16:	
   406                           ; 1 bytes @ 0x0
   407                           
   408  0070                     ?_read_adc:	
   409                           ; 2 bytes @ 0x0
   410                           
   411  0070                     ?___fltol:	
   412                           ; 2 bytes @ 0x0
   413                           
   414  0070                     ?___fldiv:	
   415                           ; 4 bytes @ 0x0
   416                           
   417  0070                     clcd_write@mode:	
   418                           ; 4 bytes @ 0x0
   419                           
   420  0070                     __Umul8_16@multiplicand:	
   421                           ; 1 bytes @ 0x0
   422                           
   423  0070                     ___fltol@f1:	
   424                           ; 1 bytes @ 0x0
   425                           
   426  0070                     ___fldiv@a:	
   427                           ; 4 bytes @ 0x0
   428                           
   429                           
   430                           ; 4 bytes @ 0x0
   431  0070                     	ds	1
   432  0071                     ??_clcd_write:	
   433                           
   434                           ; 1 bytes @ 0x1
   435  0071                     	ds	1
   436  0072                     ??__Umul8_16:	
   437  0072                     ??_read_adc:	
   438                           ; 1 bytes @ 0x2
   439                           
   440                           
   441                           ; 1 bytes @ 0x2
   442  0072                     	ds	1
   443  0073                     clcd_write@byte:	
   444  0073                     read_adc@adc_reg_val:	
   445                           ; 1 bytes @ 0x3
   446                           
   447                           
   448                           ; 2 bytes @ 0x3
   449  0073                     	ds	1
   450  0074                     ?_clcd_print:	
   451  0074                     ?_clcd_putch:	
   452                           ; 1 bytes @ 0x4
   453                           
   454  0074                     ??_init_display_controller:	
   455                           ; 1 bytes @ 0x4
   456                           
   457  0074                     ??___fltol:	
   458                           ; 1 bytes @ 0x4
   459                           
   460  0074                     clcd_putch@addr:	
   461                           ; 1 bytes @ 0x4
   462                           
   463  0074                     clcd_print@str:	
   464                           ; 1 bytes @ 0x4
   465                           
   466  0074                     __Umul8_16@product:	
   467                           ; 2 bytes @ 0x4
   468                           
   469  0074                     ___fldiv@b:	
   470                           ; 2 bytes @ 0x4
   471                           
   472                           
   473                           ; 4 bytes @ 0x4
   474  0074                     	ds	1
   475  0075                     ??_clcd_putch:	
   476  0075                     read_adc@channel:	
   477                           ; 1 bytes @ 0x5
   478                           
   479  0075                     clcd_putch@data:	
   480                           ; 1 bytes @ 0x5
   481                           
   482                           
   483                           ; 1 bytes @ 0x5
   484  0075                     	ds	1
   485  0076                     ??_init_clcd:	
   486  0076                     clcd_print@addr:	
   487                           ; 1 bytes @ 0x6
   488                           
   489  0076                     __Umul8_16@word_mpld:	
   490                           ; 1 bytes @ 0x6
   491                           
   492                           
   493                           ; 2 bytes @ 0x6
   494  0076                     	ds	1
   495  0077                     ??_clcd_print:	
   496  0077                     ??_init_config:	
   497                           ; 1 bytes @ 0x7
   498                           
   499                           
   500                           ; 1 bytes @ 0x7
   501  0077                     	ds	1
   502  0078                     ??___fldiv:	
   503  0078                     __Umul8_16@multiplier:	
   504                           ; 1 bytes @ 0x8
   505                           
   506                           
   507                           ; 1 bytes @ 0x8
   508  0078                     	ds	1
   509  0079                     ___fltol@sign1:	
   510                           
   511                           ; 1 bytes @ 0x9
   512  0079                     	ds	1
   513  007A                     ___fltol@exp1:	
   514                           
   515                           ; 1 bytes @ 0xA
   516  007A                     	ds	1
   517  007B                     ??___awdiv:	
   518  007B                     ??___awmod:	
   519                           ; 1 bytes @ 0xB
   520                           
   521                           
   522                           ; 1 bytes @ 0xB
   523  007B                     	ds	1
   524  007C                     ___awmod@counter:	
   525                           
   526                           ; 1 bytes @ 0xC
   527  007C                     	ds	1
   528  007D                     ___awmod@sign:	
   529                           
   530                           ; 1 bytes @ 0xD
   531  007D                     	ds	1
   532                           
   533                           	psect	cstackBANK0
   534  0020                     __pcstackBANK0:	
   535  0020                     ?___awdiv:	
   536  0020                     ?___awmod:	
   537                           ; 2 bytes @ 0x0
   538                           
   539  0020                     ___awdiv@divisor:	
   540                           ; 2 bytes @ 0x0
   541                           
   542  0020                     ___awmod@divisor:	
   543                           ; 2 bytes @ 0x0
   544                           
   545  0020                     ___fldiv@rem:	
   546                           ; 2 bytes @ 0x0
   547                           
   548                           
   549                           ; 4 bytes @ 0x0
   550  0020                     	ds	2
   551  0022                     ___awdiv@dividend:	
   552  0022                     ___awmod@dividend:	
   553                           ; 2 bytes @ 0x2
   554                           
   555                           
   556                           ; 2 bytes @ 0x2
   557  0022                     	ds	2
   558  0024                     ___awdiv@counter:	
   559  0024                     ___fldiv@sign:	
   560                           ; 1 bytes @ 0x4
   561                           
   562                           
   563                           ; 1 bytes @ 0x4
   564  0024                     	ds	1
   565  0025                     ___awdiv@sign:	
   566  0025                     ___fldiv@new_exp:	
   567                           ; 1 bytes @ 0x5
   568                           
   569                           
   570                           ; 2 bytes @ 0x5
   571  0025                     	ds	1
   572  0026                     ___awdiv@quotient:	
   573                           
   574                           ; 2 bytes @ 0x6
   575  0026                     	ds	1
   576  0027                     ___fldiv@grs:	
   577                           
   578                           ; 4 bytes @ 0x7
   579  0027                     	ds	1
   580  0028                     ?___xxtofl:	
   581  0028                     ___xxtofl@val:	
   582                           ; 4 bytes @ 0x8
   583                           
   584                           
   585                           ; 4 bytes @ 0x8
   586  0028                     	ds	3
   587  002B                     ___fldiv@bexp:	
   588                           
   589                           ; 1 bytes @ 0xB
   590  002B                     	ds	1
   591  002C                     ??___xxtofl:	
   592  002C                     ___fldiv@aexp:	
   593                           ; 1 bytes @ 0xC
   594                           
   595                           
   596                           ; 1 bytes @ 0xC
   597  002C                     	ds	4
   598  0030                     ___xxtofl@sign:	
   599                           
   600                           ; 1 bytes @ 0x10
   601  0030                     	ds	1
   602  0031                     ___xxtofl@exp:	
   603                           
   604                           ; 1 bytes @ 0x11
   605  0031                     	ds	1
   606  0032                     ___xxtofl@arg:	
   607                           
   608                           ; 4 bytes @ 0x12
   609  0032                     	ds	4
   610  0036                     ?___flmul:	
   611  0036                     ___flmul@b:	
   612                           ; 4 bytes @ 0x16
   613                           
   614                           
   615                           ; 4 bytes @ 0x16
   616  0036                     	ds	4
   617  003A                     ___flmul@a:	
   618                           
   619                           ; 4 bytes @ 0x1A
   620  003A                     	ds	4
   621  003E                     ??___flmul:	
   622                           
   623                           ; 1 bytes @ 0x1E
   624  003E                     	ds	5
   625  0043                     ___flmul@sign:	
   626                           
   627                           ; 1 bytes @ 0x23
   628  0043                     	ds	1
   629  0044                     ___flmul@grs:	
   630                           
   631                           ; 4 bytes @ 0x24
   632  0044                     	ds	4
   633  0048                     ___flmul@aexp:	
   634                           
   635                           ; 1 bytes @ 0x28
   636  0048                     	ds	1
   637  0049                     ___flmul@bexp:	
   638                           
   639                           ; 1 bytes @ 0x29
   640  0049                     	ds	1
   641  004A                     ___flmul@prod:	
   642                           
   643                           ; 4 bytes @ 0x2A
   644  004A                     	ds	4
   645  004E                     ___flmul@temp:	
   646                           
   647                           ; 2 bytes @ 0x2E
   648  004E                     	ds	2
   649  0050                     ?_display:	
   650  0050                     display@adc_reg_val:	
   651                           ; 1 bytes @ 0x30
   652                           
   653                           
   654                           ; 2 bytes @ 0x30
   655  0050                     	ds	2
   656  0052                     ??_display:	
   657                           
   658                           ; 1 bytes @ 0x32
   659  0052                     	ds	1
   660  0053                     display@buff:	
   661                           
   662                           ; 4 bytes @ 0x33
   663  0053                     	ds	4
   664  0057                     display@voltage:	
   665                           
   666                           ; 4 bytes @ 0x37
   667  0057                     	ds	4
   668  005B                     display@i:	
   669                           
   670                           ; 2 bytes @ 0x3B
   671  005B                     	ds	2
   672  005D                     display@temperature:	
   673                           
   674                           ; 4 bytes @ 0x3D
   675  005D                     	ds	4
   676  0061                     ??_main:	
   677                           
   678                           ; 1 bytes @ 0x41
   679  0061                     	ds	1
   680  0062                     main@adc_reg_val:	
   681                           
   682                           ; 2 bytes @ 0x42
   683  0062                     	ds	2
   684                           
   685                           	psect	maintext
   686  0004                     __pmaintext:	
   687 ;;
   688 ;;Main: autosize = 0, tempsize = 1, incstack = 0, save=0
   689 ;;
   690 ;; *************** function _main *****************
   691 ;; Defined at:
   692 ;;		line 62 in file "main.c"
   693 ;; Parameters:    Size  Location     Type
   694 ;;		None
   695 ;; Auto vars:     Size  Location     Type
   696 ;;  adc_reg_val     2   66[BANK0 ] unsigned short 
   697 ;;  d               1    0        unsigned char 
   698 ;; Return value:  Size  Location     Type
   699 ;;                  1    wreg      void 
   700 ;; Registers used:
   701 ;;		wreg, fsr0l, fsr0h, status,2, status,0, btemp+1, pclath, cstack
   702 ;; Tracked objects:
   703 ;;		On entry : B00/0
   704 ;;		On exit  : 0/0
   705 ;;		Unchanged: 0/0
   706 ;; Data sizes:     COMMON   BANK0   BANK1   BANK3   BANK2
   707 ;;      Params:         0       0       0       0       0
   708 ;;      Locals:         0       3       0       0       0
   709 ;;      Temps:          0       1       0       0       0
   710 ;;      Totals:         0       4       0       0       0
   711 ;;Total ram usage:        4 bytes
   712 ;; Hardware stack levels required when called:    4
   713 ;; This function calls:
   714 ;;		_clcd_putch
   715 ;;		_display
   716 ;;		_init_config
   717 ;;		_read_adc
   718 ;; This function is called by:
   719 ;;		Startup code after reset
   720 ;; This function uses a non-reentrant model
   721 ;;
   722                           
   723                           
   724                           ;psect for function _main
   725  0004                     _main:	
   726  0004                     l1795:	
   727                           ;incstack = 0
   728                           ; Regs used in _main: [wreg-fsr0h+status,2+status,0+btemp+1+pclath+cstack]
   729                           
   730  0004  120A  158A  2681  120A  118A  	fcall	_init_config
   731  0009                     l1797:	
   732  0009                     l1799:	
   733  0009  30CE               	movlw	206
   734  000A  1283               	bcf	3,5	;RP0=0, select bank0
   735  000B  1303               	bcf	3,6	;RP1=0, select bank0
   736  000C  00E1               	movwf	??_main
   737  000D  0861               	movf	??_main,w
   738  000E  00F4               	movwf	clcd_putch@addr
   739  000F  30DF               	movlw	223
   740  0010  120A  158A  2670  120A  118A  	fcall	_clcd_putch
   741  0015                     l1801:	
   742  0015  3000               	movlw	0
   743  0016  120A  158A  2699  120A  118A  	fcall	_read_adc
   744  001B  0871               	movf	?_read_adc+1,w
   745  001C  1283               	bcf	3,5	;RP0=0, select bank0
   746  001D  1303               	bcf	3,6	;RP1=0, select bank0
   747  001E  00E3               	movwf	main@adc_reg_val+1
   748  001F  0870               	movf	?_read_adc,w
   749  0020  00E2               	movwf	main@adc_reg_val
   750  0021                     l1803:	
   751  0021  0863               	movf	main@adc_reg_val+1,w
   752  0022  00D1               	movwf	display@adc_reg_val+1
   753  0023  0862               	movf	main@adc_reg_val,w
   754  0024  00D0               	movwf	display@adc_reg_val
   755  0025  120A  118A  21CD  120A  118A  	fcall	_display
   756  002A  2815               	goto	l1801
   757  002B  120A  118A  2800   	ljmp	start
   758  002E                     __end_of_main:	
   759                           
   760                           	psect	text1
   761  0E99                     __ptext1:	
   762 ;; *************** function _read_adc *****************
   763 ;; Defined at:
   764 ;;		line 18 in file "adc.c"
   765 ;; Parameters:    Size  Location     Type
   766 ;;  channel         1    wreg     unsigned char 
   767 ;; Auto vars:     Size  Location     Type
   768 ;;  channel         1    5[COMMON] unsigned char 
   769 ;;  adc_reg_val     2    3[COMMON] unsigned short 
   770 ;; Return value:  Size  Location     Type
   771 ;;                  2    0[COMMON] unsigned short 
   772 ;; Registers used:
   773 ;;		wreg, status,2, status,0
   774 ;; Tracked objects:
   775 ;;		On entry : 0/0
   776 ;;		On exit  : 0/0
   777 ;;		Unchanged: 0/0
   778 ;; Data sizes:     COMMON   BANK0   BANK1   BANK3   BANK2
   779 ;;      Params:         2       0       0       0       0
   780 ;;      Locals:         3       0       0       0       0
   781 ;;      Temps:          1       0       0       0       0
   782 ;;      Totals:         6       0       0       0       0
   783 ;;Total ram usage:        6 bytes
   784 ;; Hardware stack levels used:    1
   785 ;; This function calls:
   786 ;;		Nothing
   787 ;; This function is called by:
   788 ;;		_main
   789 ;; This function uses a non-reentrant model
   790 ;;
   791                           
   792                           
   793                           ;psect for function _read_adc
   794  0E99                     _read_adc:	
   795                           
   796                           ;incstack = 0
   797                           ; Regs used in _read_adc: [wreg+status,2+status,0]
   798                           ;read_adc@channel stored from wreg
   799  0E99  00F5               	movwf	read_adc@channel
   800  0E9A                     l1761:	
   801                           
   802                           ;adc.c: 18: unsigned short read_adc(unsigned char channel);adc.c: 19: {;adc.c: 20:     u
      +                          nsigned short adc_reg_val;;adc.c: 23:     ADCON0 = (ADCON0 & 0xC7) | (channel << 3);
   803  0E9A  0875               	movf	read_adc@channel,w
   804  0E9B  00F2               	movwf	??_read_adc
   805  0E9C  3003               	movlw	3
   806  0E9D                     u2385:	
   807  0E9D  1003               	clrc
   808  0E9E  0DF2               	rlf	??_read_adc,f
   809  0E9F  3EFF               	addlw	-1
   810  0EA0  1D03               	skipz
   811  0EA1  2E9D               	goto	u2385
   812  0EA2  1283               	bcf	3,5	;RP0=0, select bank0
   813  0EA3  1303               	bcf	3,6	;RP1=0, select bank0
   814  0EA4  081F               	movf	31,w	;volatile
   815  0EA5  39C7               	andlw	199
   816  0EA6  0472               	iorwf	??_read_adc,w
   817  0EA7  009F               	movwf	31	;volatile
   818  0EA8                     l1763:	
   819                           
   820                           ;adc.c: 26:     GO = 1;
   821  0EA8  151F               	bsf	31,2	;volatile
   822  0EA9                     l24:	
   823                           ;adc.c: 29:     while(nDONE);
   824                           
   825  0EA9  191F               	btfsc	31,2	;volatile
   826  0EAA  2EAC               	goto	u2391
   827  0EAB  2EAD               	goto	u2390
   828  0EAC                     u2391:	
   829  0EAC  2EA9               	goto	l24
   830  0EAD                     u2390:	
   831  0EAD                     l1765:	
   832                           
   833                           ;adc.c: 31:     adc_reg_val = ((ADRESH<<8) | ADRESL);
   834  0EAD  081E               	movf	30,w	;volatile
   835  0EAE  00F4               	movwf	read_adc@adc_reg_val+1
   836  0EAF  1683               	bsf	3,5	;RP0=1, select bank1
   837  0EB0  1303               	bcf	3,6	;RP1=0, select bank1
   838  0EB1  081E               	movf	30,w	;volatile
   839  0EB2  00F3               	movwf	read_adc@adc_reg_val
   840                           
   841                           ;adc.c: 33:     return adc_reg_val;
   842  0EB3  0874               	movf	read_adc@adc_reg_val+1,w
   843  0EB4  00F1               	movwf	?_read_adc+1
   844  0EB5  0873               	movf	read_adc@adc_reg_val,w
   845  0EB6  00F0               	movwf	?_read_adc
   846  0EB7                     l27:	
   847  0EB7  0008               	return
   848  0EB8                     __end_of_read_adc:	
   849                           
   850                           	psect	text2
   851  0E81                     __ptext2:	
   852 ;; *************** function _init_config *****************
   853 ;; Defined at:
   854 ;;		line 52 in file "main.c"
   855 ;; Parameters:    Size  Location     Type
   856 ;;		None
   857 ;; Auto vars:     Size  Location     Type
   858 ;;		None
   859 ;; Return value:  Size  Location     Type
   860 ;;                  1    wreg      void 
   861 ;; Registers used:
   862 ;;		wreg, fsr0l, fsr0h, status,2, status,0, btemp+1, pclath, cstack
   863 ;; Tracked objects:
   864 ;;		On entry : 0/0
   865 ;;		On exit  : 0/0
   866 ;;		Unchanged: 0/0
   867 ;; Data sizes:     COMMON   BANK0   BANK1   BANK3   BANK2
   868 ;;      Params:         0       0       0       0       0
   869 ;;      Locals:         0       0       0       0       0
   870 ;;      Temps:          1       0       0       0       0
   871 ;;      Totals:         1       0       0       0       0
   872 ;;Total ram usage:        1 bytes
   873 ;; Hardware stack levels used:    1
   874 ;; Hardware stack levels required when called:    3
   875 ;; This function calls:
   876 ;;		_clcd_print
   877 ;;		_init_adc
   878 ;;		_init_clcd
   879 ;; This function is called by:
   880 ;;		_main
   881 ;; This function uses a non-reentrant model
   882 ;;
   883                           
   884                           
   885                           ;psect for function _init_config
   886  0E81                     _init_config:	
   887  0E81                     l1787:	
   888                           ;incstack = 0
   889                           ; Regs used in _init_config: [wreg-fsr0h+status,2+status,0+btemp+1+pclath+cstack]
   890                           
   891                           
   892                           ;main.c: 54:       display(adc_reg_val);
   893  0E81  120A  158A  2665  120A  158A  	fcall	_init_clcd
   894  0E86                     l1789:	
   895                           
   896                           ;main.c: 55:     }
   897  0E86  120A  158A  265C  120A  158A  	fcall	_init_adc
   898  0E8B                     l1791:	
   899                           
   900                           ;main.c: 57: }
   901  0E8B  3001               	movlw	(low ((STR_3-__stringbase)| (0+32768)))& (0+255)
   902  0E8C  00F4               	movwf	clcd_print@str
   903  0E8D  3080               	movlw	128
   904  0E8E  00F5               	movwf	clcd_print@str+1
   905  0E8F  3080               	movlw	128
   906  0E90  00F7               	movwf	??_init_config
   907  0E91  0877               	movf	??_init_config,w
   908  0E92  00F6               	movwf	clcd_print@addr
   909  0E93  120A  158A  26DF  120A  158A  	fcall	_clcd_print
   910  0E98                     l45:	
   911  0E98  0008               	return
   912  0E99                     __end_of_init_config:	
   913                           
   914                           	psect	text3
   915  0E65                     __ptext3:	
   916 ;; *************** function _init_clcd *****************
   917 ;; Defined at:
   918 ;;		line 46 in file "clcd.c"
   919 ;; Parameters:    Size  Location     Type
   920 ;;		None
   921 ;; Auto vars:     Size  Location     Type
   922 ;;		None
   923 ;; Return value:  Size  Location     Type
   924 ;;                  1    wreg      void 
   925 ;; Registers used:
   926 ;;		wreg, status,2, status,0, pclath, cstack
   927 ;; Tracked objects:
   928 ;;		On entry : 0/0
   929 ;;		On exit  : 0/0
   930 ;;		Unchanged: 0/0
   931 ;; Data sizes:     COMMON   BANK0   BANK1   BANK3   BANK2
   932 ;;      Params:         0       0       0       0       0
   933 ;;      Locals:         0       0       0       0       0
   934 ;;      Temps:          0       0       0       0       0
   935 ;;      Totals:         0       0       0       0       0
   936 ;;Total ram usage:        0 bytes
   937 ;; Hardware stack levels used:    1
   938 ;; Hardware stack levels required when called:    2
   939 ;; This function calls:
   940 ;;		_init_display_controller
   941 ;; This function is called by:
   942 ;;		_init_config
   943 ;; This function uses a non-reentrant model
   944 ;;
   945                           
   946                           
   947                           ;psect for function _init_clcd
   948  0E65                     _init_clcd:	
   949  0E65                     l1309:	
   950                           ;incstack = 0
   951                           ; Regs used in _init_clcd: [wreg+status,2+status,0+pclath+cstack]
   952                           
   953                           
   954                           ;clcd.c: 49:     TRISD = 0X00;
   955  0E65  1683               	bsf	3,5	;RP0=1, select bank1
   956  0E66  1303               	bcf	3,6	;RP1=0, select bank1
   957  0E67  0188               	clrf	8	;volatile
   958  0E68                     l1311:	
   959                           
   960                           ;clcd.c: 52:     TRISE2 = 0;
   961  0E68  1109               	bcf	9,2	;volatile
   962  0E69                     l1313:	
   963                           
   964                           ;clcd.c: 53:     TRISE1 = 0;
   965  0E69  1089               	bcf	9,1	;volatile
   966  0E6A                     l1315:	
   967                           
   968                           ;clcd.c: 55:     init_display_controller();
   969  0E6A  120A  158A  279F  120A  158A  	fcall	_init_display_controller
   970  0E6F                     l76:	
   971  0E6F  0008               	return
   972  0E70                     __end_of_init_clcd:	
   973                           
   974                           	psect	text4
   975  0F9F                     __ptext4:	
   976 ;; *************** function _init_display_controller *****************
   977 ;; Defined at:
   978 ;;		line 22 in file "clcd.c"
   979 ;; Parameters:    Size  Location     Type
   980 ;;		None
   981 ;; Auto vars:     Size  Location     Type
   982 ;;		None
   983 ;; Return value:  Size  Location     Type
   984 ;;                  1    wreg      void 
   985 ;; Registers used:
   986 ;;		wreg, status,2, status,0, pclath, cstack
   987 ;; Tracked objects:
   988 ;;		On entry : 0/0
   989 ;;		On exit  : 0/0
   990 ;;		Unchanged: 0/0
   991 ;; Data sizes:     COMMON   BANK0   BANK1   BANK3   BANK2
   992 ;;      Params:         0       0       0       0       0
   993 ;;      Locals:         0       0       0       0       0
   994 ;;      Temps:          2       0       0       0       0
   995 ;;      Totals:         2       0       0       0       0
   996 ;;Total ram usage:        2 bytes
   997 ;; Hardware stack levels used:    1
   998 ;; Hardware stack levels required when called:    1
   999 ;; This function calls:
  1000 ;;		_clcd_write
  1001 ;; This function is called by:
  1002 ;;		_init_clcd
  1003 ;; This function uses a non-reentrant model
  1004 ;;
  1005                           
  1006                           
  1007                           ;psect for function _init_display_controller
  1008  0F9F                     _init_display_controller:	
  1009  0F9F                     l1261:	
  1010                           ;incstack = 0
  1011                           ; Regs used in _init_display_controller: [wreg+status,2+status,0+pclath+cstack]
  1012                           
  1013                           
  1014                           ;clcd.c: 25:     _delay((unsigned long)((30)*(20000000/4000.0)));
  1015  0F9F  30C3               	movlw	195
  1016  0FA0  00F5               	movwf	??_init_display_controller+1
  1017  0FA1  30CD               	movlw	205
  1018  0FA2  00F4               	movwf	??_init_display_controller
  1019  0FA3                     u2417:	
  1020  0FA3  0BF4               	decfsz	??_init_display_controller,f
  1021  0FA4  2FA3               	goto	u2417
  1022  0FA5  0BF5               	decfsz	??_init_display_controller+1,f
  1023  0FA6  2FA3               	goto	u2417
  1024  0FA7                     l1263:	
  1025                           
  1026                           ;clcd.c: 28:     clcd_write(0x33, 0);
  1027  0FA7  01F0               	clrf	clcd_write@mode
  1028  0FA8  3033               	movlw	51
  1029  0FA9  120A  158A  270E  120A  158A  	fcall	_clcd_write
  1030  0FAE                     l1265:	
  1031                           
  1032                           ;clcd.c: 29:     _delay((unsigned long)((4100)*(20000000/4000000.0)));
  1033  0FAE  301B               	movlw	27
  1034  0FAF  00F5               	movwf	??_init_display_controller+1
  1035  0FB0  309E               	movlw	158
  1036  0FB1  00F4               	movwf	??_init_display_controller
  1037  0FB2                     u2427:	
  1038  0FB2  0BF4               	decfsz	??_init_display_controller,f
  1039  0FB3  2FB2               	goto	u2427
  1040  0FB4  0BF5               	decfsz	??_init_display_controller+1,f
  1041  0FB5  2FB2               	goto	u2427
  1042  0FB6  0000               	nop
  1043                           
  1044                           ;clcd.c: 30:     clcd_write(0x33, 0);
  1045  0FB7  01F0               	clrf	clcd_write@mode
  1046  0FB8  3033               	movlw	51
  1047  0FB9  120A  158A  270E  120A  158A  	fcall	_clcd_write
  1048  0FBE                     l1267:	
  1049                           
  1050                           ;clcd.c: 31:     _delay((unsigned long)((100)*(20000000/4000000.0)));
  1051  0FBE  30A6               	movlw	166
  1052  0FBF  00F4               	movwf	??_init_display_controller
  1053  0FC0                     u2437:	
  1054  0FC0  0BF4               	decfsz	??_init_display_controller,f
  1055  0FC1  2FC0               	goto	u2437
  1056  0FC2  0000               	nop
  1057  0FC3                     l1269:	
  1058                           
  1059                           ;clcd.c: 32:     clcd_write(0x33, 0);
  1060  0FC3  01F0               	clrf	clcd_write@mode
  1061  0FC4  3033               	movlw	51
  1062  0FC5  120A  158A  270E  120A  158A  	fcall	_clcd_write
  1063  0FCA                     l1271:	
  1064                           
  1065                           ;clcd.c: 33:     _delay((unsigned long)((1)*(20000000/4000000.0)));
  1066  0FCA  2FCB               	nop2	;2 cycle nop
  1067  0FCB  2FCC               	nop2	;2 cycle nop
  1068  0FCC  0000               	nop
  1069  0FCD                     l1273:	
  1070                           
  1071                           ;clcd.c: 35:     clcd_write(0x02, 0);
  1072  0FCD  01F0               	clrf	clcd_write@mode
  1073  0FCE  3002               	movlw	2
  1074  0FCF  120A  158A  270E  120A  158A  	fcall	_clcd_write
  1075  0FD4                     l1275:	
  1076                           
  1077                           ;clcd.c: 36:     _delay((unsigned long)((1)*(20000000/4000000.0)));
  1078  0FD4  2FD5               	nop2	;2 cycle nop
  1079  0FD5  2FD6               	nop2	;2 cycle nop
  1080  0FD6  0000               	nop
  1081  0FD7                     l1277:	
  1082                           
  1083                           ;clcd.c: 37:     clcd_write(0X28, 0);
  1084  0FD7  01F0               	clrf	clcd_write@mode
  1085  0FD8  3028               	movlw	40
  1086  0FD9  120A  158A  270E  120A  158A  	fcall	_clcd_write
  1087                           
  1088                           ;clcd.c: 38:     _delay((unsigned long)((100)*(20000000/4000000.0)));
  1089  0FDE  30A6               	movlw	166
  1090  0FDF  00F4               	movwf	??_init_display_controller
  1091  0FE0                     u2447:	
  1092  0FE0  0BF4               	decfsz	??_init_display_controller,f
  1093  0FE1  2FE0               	goto	u2447
  1094  0FE2  0000               	nop
  1095  0FE3                     l1279:	
  1096                           
  1097                           ;clcd.c: 39:     clcd_write(0X01, 0);
  1098  0FE3  01F0               	clrf	clcd_write@mode
  1099  0FE4  3001               	movlw	1
  1100  0FE5  120A  158A  270E  120A  158A  	fcall	_clcd_write
  1101  0FEA                     l1281:	
  1102                           
  1103                           ;clcd.c: 40:     _delay((unsigned long)((500)*(20000000/4000000.0)));
  1104  0FEA  3004               	movlw	4
  1105  0FEB  00F5               	movwf	??_init_display_controller+1
  1106  0FEC  303D               	movlw	61
  1107  0FED  00F4               	movwf	??_init_display_controller
  1108  0FEE                     u2457:	
  1109  0FEE  0BF4               	decfsz	??_init_display_controller,f
  1110  0FEF  2FEE               	goto	u2457
  1111  0FF0  0BF5               	decfsz	??_init_display_controller+1,f
  1112  0FF1  2FEE               	goto	u2457
  1113  0FF2  2FF3               	nop2
  1114                           
  1115                           ;clcd.c: 41:     clcd_write(0X0C, 0);
  1116  0FF3  01F0               	clrf	clcd_write@mode
  1117  0FF4  300C               	movlw	12
  1118  0FF5  120A  158A  270E  120A  158A  	fcall	_clcd_write
  1119  0FFA                     l1283:	
  1120                           
  1121                           ;clcd.c: 42:     _delay((unsigned long)((100)*(20000000/4000000.0)));
  1122  0FFA  30A6               	movlw	166
  1123  0FFB  00F4               	movwf	??_init_display_controller
  1124  0FFC                     u2467:	
  1125  0FFC  0BF4               	decfsz	??_init_display_controller,f
  1126  0FFD  2FFC               	goto	u2467
  1127  0FFE  0000               	nop
  1128  0FFF                     l73:	
  1129  0FFF  0008               	return
  1130  1000                     __end_of_init_display_controller:	
  1131                           
  1132                           	psect	text5
  1133  0E5C                     __ptext5:	
  1134 ;; *************** function _init_adc *****************
  1135 ;; Defined at:
  1136 ;;		line 5 in file "adc.c"
  1137 ;; Parameters:    Size  Location     Type
  1138 ;;		None
  1139 ;; Auto vars:     Size  Location     Type
  1140 ;;		None
  1141 ;; Return value:  Size  Location     Type
  1142 ;;                  1    wreg      void 
  1143 ;; Registers used:
  1144 ;;		None
  1145 ;; Tracked objects:
  1146 ;;		On entry : 0/0
  1147 ;;		On exit  : 0/0
  1148 ;;		Unchanged: 0/0
  1149 ;; Data sizes:     COMMON   BANK0   BANK1   BANK3   BANK2
  1150 ;;      Params:         0       0       0       0       0
  1151 ;;      Locals:         0       0       0       0       0
  1152 ;;      Temps:          0       0       0       0       0
  1153 ;;      Totals:         0       0       0       0       0
  1154 ;;Total ram usage:        0 bytes
  1155 ;; Hardware stack levels used:    1
  1156 ;; This function calls:
  1157 ;;		Nothing
  1158 ;; This function is called by:
  1159 ;;		_init_config
  1160 ;; This function uses a non-reentrant model
  1161 ;;
  1162                           
  1163                           
  1164                           ;psect for function _init_adc
  1165  0E5C                     _init_adc:	
  1166  0E5C                     l1299:	
  1167                           ;incstack = 0
  1168                           ; Regs used in _init_adc: []
  1169                           
  1170                           
  1171                           ;adc.c: 8:    ADON = 1;
  1172  0E5C  1283               	bcf	3,5	;RP0=0, select bank0
  1173  0E5D  1303               	bcf	3,6	;RP1=0, select bank0
  1174  0E5E  141F               	bsf	31,0	;volatile
  1175                           
  1176                           ;adc.c: 11:    ADCS1 = 0;
  1177  0E5F  139F               	bcf	31,7	;volatile
  1178                           
  1179                           ;adc.c: 12:    ADCS0 = 1;
  1180  0E60  171F               	bsf	31,6	;volatile
  1181                           
  1182                           ;adc.c: 15:    ADFM = 1;
  1183  0E61  1683               	bsf	3,5	;RP0=1, select bank1
  1184  0E62  1303               	bcf	3,6	;RP1=0, select bank1
  1185  0E63  179F               	bsf	31,7	;volatile
  1186  0E64                     l21:	
  1187  0E64  0008               	return
  1188  0E65                     __end_of_init_adc:	
  1189                           
  1190                           	psect	text6
  1191  01CD                     __ptext6:	
  1192 ;; *************** function _display *****************
  1193 ;; Defined at:
  1194 ;;		line 20 in file "main.c"
  1195 ;; Parameters:    Size  Location     Type
  1196 ;;  adc_reg_val     2   48[BANK0 ] unsigned short 
  1197 ;; Auto vars:     Size  Location     Type
  1198 ;;  buff            4   51[BANK0 ] unsigned char [4]
  1199 ;;  temperature     4   61[BANK0 ] float 
  1200 ;;  voltage         4   55[BANK0 ] float 
  1201 ;;  i               2   59[BANK0 ] int 
  1202 ;; Return value:  Size  Location     Type
  1203 ;;                  1    wreg      void 
  1204 ;; Registers used:
  1205 ;;		wreg, fsr0l, fsr0h, status,2, status,0, btemp+1, pclath, cstack
  1206 ;; Tracked objects:
  1207 ;;		On entry : 0/0
  1208 ;;		On exit  : 0/0
  1209 ;;		Unchanged: 0/0
  1210 ;; Data sizes:     COMMON   BANK0   BANK1   BANK3   BANK2
  1211 ;;      Params:         0       2       0       0       0
  1212 ;;      Locals:         0      14       0       0       0
  1213 ;;      Temps:          0       1       0       0       0
  1214 ;;      Totals:         0      17       0       0       0
  1215 ;;Total ram usage:       17 bytes
  1216 ;; Hardware stack levels used:    1
  1217 ;; Hardware stack levels required when called:    2
  1218 ;; This function calls:
  1219 ;;		___awdiv
  1220 ;;		___awmod
  1221 ;;		___fldiv
  1222 ;;		___flmul
  1223 ;;		___fltol
  1224 ;;		___xxtofl
  1225 ;;		_clcd_print
  1226 ;; This function is called by:
  1227 ;;		_main
  1228 ;; This function uses a non-reentrant model
  1229 ;;
  1230                           
  1231                           
  1232                           ;psect for function _display
  1233  01CD                     _display:	
  1234  01CD                     l1769:	
  1235                           ;incstack = 0
  1236                           ; Regs used in _display: [wreg-fsr0h+status,2+status,0+btemp+1+pclath+cstack]
  1237                           
  1238                           
  1239                           ;main.c: 20:   i=2;;main.c: 21:   do;main.c: 22:   {;main.c: 29: 
  1240  01CD  303B               	movlw	59
  1241  01CE  1283               	bcf	3,5	;RP0=0, select bank0
  1242  01CF  1303               	bcf	3,6	;RP1=0, select bank0
  1243  01D0  00B9               	movwf	___flmul@b+3
  1244  01D1  309F               	movlw	159
  1245  01D2  00B8               	movwf	___flmul@b+2
  1246  01D3  30E8               	movlw	232
  1247  01D4  00B7               	movwf	___flmul@b+1
  1248  01D5  3068               	movlw	104
  1249  01D6  00B6               	movwf	___flmul@b
  1250  01D7  0850               	movf	display@adc_reg_val,w
  1251  01D8  00A8               	movwf	___xxtofl@val
  1252  01D9  0851               	movf	display@adc_reg_val+1,w
  1253  01DA  00A9               	movwf	___xxtofl@val+1
  1254  01DB  01AA               	clrf	___xxtofl@val+2
  1255  01DC  01AB               	clrf	___xxtofl@val+3
  1256  01DD  3000               	movlw	0
  1257  01DE  120A  118A  2111  120A  118A  	fcall	___xxtofl
  1258  01E3  1283               	bcf	3,5	;RP0=0, select bank0
  1259  01E4  1303               	bcf	3,6	;RP1=0, select bank0
  1260  01E5  082B               	movf	?___xxtofl+3,w
  1261  01E6  00BD               	movwf	___flmul@a+3
  1262  01E7  082A               	movf	?___xxtofl+2,w
  1263  01E8  00BC               	movwf	___flmul@a+2
  1264  01E9  0829               	movf	?___xxtofl+1,w
  1265  01EA  00BB               	movwf	___flmul@a+1
  1266  01EB  0828               	movf	?___xxtofl,w
  1267  01EC  00BA               	movwf	___flmul@a
  1268  01ED  120A  118A  249B  120A  118A  	fcall	___flmul
  1269  01F2  1283               	bcf	3,5	;RP0=0, select bank0
  1270  01F3  1303               	bcf	3,6	;RP1=0, select bank0
  1271  01F4  0839               	movf	?___flmul+3,w
  1272  01F5  00DA               	movwf	display@voltage+3
  1273  01F6  0838               	movf	?___flmul+2,w
  1274  01F7  00D9               	movwf	display@voltage+2
  1275  01F8  0837               	movf	?___flmul+1,w
  1276  01F9  00D8               	movwf	display@voltage+1
  1277  01FA  0836               	movf	?___flmul,w
  1278  01FB  00D7               	movwf	display@voltage
  1279                           
  1280                           ;main.c: 30:   clcd_print(buff,(0xC0 + 11));
  1281  01FC  303C               	movlw	60
  1282  01FD  00F3               	movwf	___fldiv@a+3
  1283  01FE  3023               	movlw	35
  1284  01FF  00F2               	movwf	___fldiv@a+2
  1285  0200  30D7               	movlw	215
  1286  0201  00F1               	movwf	___fldiv@a+1
  1287  0202  300A               	movlw	10
  1288  0203  00F0               	movwf	___fldiv@a
  1289  0204  085A               	movf	display@voltage+3,w
  1290  0205  00F7               	movwf	___fldiv@b+3
  1291  0206  0859               	movf	display@voltage+2,w
  1292  0207  00F6               	movwf	___fldiv@b+2
  1293  0208  0858               	movf	display@voltage+1,w
  1294  0209  00F5               	movwf	___fldiv@b+1
  1295  020A  0857               	movf	display@voltage,w
  1296  020B  00F4               	movwf	___fldiv@b
  1297  020C  120A  118A  22B8  120A  118A  	fcall	___fldiv
  1298  0211  0873               	movf	?___fldiv+3,w
  1299  0212  1283               	bcf	3,5	;RP0=0, select bank0
  1300  0213  1303               	bcf	3,6	;RP1=0, select bank0
  1301  0214  00E0               	movwf	display@temperature+3
  1302  0215  0872               	movf	?___fldiv+2,w
  1303  0216  00DF               	movwf	display@temperature+2
  1304  0217  0871               	movf	?___fldiv+1,w
  1305  0218  00DE               	movwf	display@temperature+1
  1306  0219  0870               	movf	?___fldiv,w
  1307  021A  00DD               	movwf	display@temperature
  1308  021B                     l1771:	
  1309                           
  1310                           ;main.c: 32: ;main.c: 33: };main.c: 34: 
  1311  021B  3012               	movlw	(low ((STR_1-__stringbase)| (0+32768)))& (0+255)
  1312  021C  00F4               	movwf	clcd_print@str
  1313  021D  3080               	movlw	128
  1314  021E  00F5               	movwf	clcd_print@str+1
  1315  021F  30C6               	movlw	198
  1316  0220  00D2               	movwf	??_display
  1317  0221  0852               	movf	??_display,w
  1318  0222  00F6               	movwf	clcd_print@addr
  1319  0223  120A  158A  26DF  120A  118A  	fcall	_clcd_print
  1320  0228                     l1773:	
  1321                           
  1322                           ;main.c: 37:     init_clcd();
  1323  0228  3002               	movlw	2
  1324  0229  1283               	bcf	3,5	;RP0=0, select bank0
  1325  022A  1303               	bcf	3,6	;RP1=0, select bank0
  1326  022B  00DB               	movwf	display@i
  1327  022C  3000               	movlw	0
  1328  022D  00DC               	movwf	display@i+1
  1329  022E                     l1775:	
  1330                           
  1331                           ;main.c: 39: ;main.c: 40:     clcd_print("LM35 TEMPER TEST",(0x80 + 0));
  1332  022E  300A               	movlw	10
  1333  022F  00A0               	movwf	___awmod@divisor
  1334  0230  3000               	movlw	0
  1335  0231  00A1               	movwf	___awmod@divisor+1
  1336  0232  0860               	movf	display@temperature+3,w
  1337  0233  00F3               	movwf	___fltol@f1+3
  1338  0234  085F               	movf	display@temperature+2,w
  1339  0235  00F2               	movwf	___fltol@f1+2
  1340  0236  085E               	movf	display@temperature+1,w
  1341  0237  00F1               	movwf	___fltol@f1+1
  1342  0238  085D               	movf	display@temperature,w
  1343  0239  00F0               	movwf	___fltol@f1
  1344  023A  120A  118A  2097  120A  118A  	fcall	___fltol
  1345  023F  0871               	movf	?___fltol+1,w
  1346  0240  1283               	bcf	3,5	;RP0=0, select bank0
  1347  0241  1303               	bcf	3,6	;RP1=0, select bank0
  1348  0242  00A3               	movwf	___awmod@dividend+1
  1349  0243  0870               	movf	?___fltol,w
  1350  0244  00A2               	movwf	___awmod@dividend
  1351  0245  120A  158A  2744  120A  118A  	fcall	___awmod
  1352  024A  1283               	bcf	3,5	;RP0=0, select bank0
  1353  024B  1303               	bcf	3,6	;RP1=0, select bank0
  1354  024C  0820               	movf	?___awmod,w
  1355  024D  3E30               	addlw	48
  1356  024E  00D2               	movwf	??_display
  1357  024F  085B               	movf	display@i,w
  1358  0250  3E53               	addlw	(low (display@buff| 0))& (0+255)
  1359  0251  0084               	movwf	4
  1360  0252  0852               	movf	??_display,w
  1361  0253  1383               	bcf	3,7	;select IRP bank0
  1362  0254  0080               	movwf	0
  1363  0255                     l1777:	
  1364                           
  1365                           ;main.c: 41: 
  1366  0255  0860               	movf	display@temperature+3,w
  1367  0256  00F3               	movwf	___fltol@f1+3
  1368  0257  085F               	movf	display@temperature+2,w
  1369  0258  00F2               	movwf	___fltol@f1+2
  1370  0259  085E               	movf	display@temperature+1,w
  1371  025A  00F1               	movwf	___fltol@f1+1
  1372  025B  085D               	movf	display@temperature,w
  1373  025C  00F0               	movwf	___fltol@f1
  1374  025D  120A  118A  2097  120A  118A  	fcall	___fltol
  1375  0262  0871               	movf	?___fltol+1,w
  1376  0263  1283               	bcf	3,5	;RP0=0, select bank0
  1377  0264  1303               	bcf	3,6	;RP1=0, select bank0
  1378  0265  00A3               	movwf	___awdiv@dividend+1
  1379  0266  0870               	movf	?___fltol,w
  1380  0267  00A2               	movwf	___awdiv@dividend
  1381  0268  300A               	movlw	10
  1382  0269  00A0               	movwf	___awdiv@divisor
  1383  026A  3000               	movlw	0
  1384  026B  00A1               	movwf	___awdiv@divisor+1
  1385  026C  120A  118A  202E  120A  118A  	fcall	___awdiv
  1386  0271  1283               	bcf	3,5	;RP0=0, select bank0
  1387  0272  1303               	bcf	3,6	;RP1=0, select bank0
  1388  0273  0820               	movf	?___awdiv,w
  1389  0274  00A8               	movwf	___xxtofl@val
  1390  0275  0821               	movf	?___awdiv+1,w
  1391  0276  00A9               	movwf	___xxtofl@val+1
  1392  0277  3000               	movlw	0
  1393  0278  1BA9               	btfsc	___xxtofl@val+1,7
  1394  0279  30FF               	movlw	255
  1395  027A  00AA               	movwf	___xxtofl@val+2
  1396  027B  00AB               	movwf	___xxtofl@val+3
  1397  027C  3001               	movlw	1
  1398  027D  120A  118A  2111  120A  118A  	fcall	___xxtofl
  1399  0282  1283               	bcf	3,5	;RP0=0, select bank0
  1400  0283  1303               	bcf	3,6	;RP1=0, select bank0
  1401  0284  082B               	movf	?___xxtofl+3,w
  1402  0285  00E0               	movwf	display@temperature+3
  1403  0286  082A               	movf	?___xxtofl+2,w
  1404  0287  00DF               	movwf	display@temperature+2
  1405  0288  0829               	movf	?___xxtofl+1,w
  1406  0289  00DE               	movwf	display@temperature+1
  1407  028A  0828               	movf	?___xxtofl,w
  1408  028B  00DD               	movwf	display@temperature
  1409  028C                     l1779:	
  1410                           
  1411                           ;main.c: 42: 
  1412  028C  30FF               	movlw	255
  1413  028D  07DB               	addwf	display@i,f
  1414  028E  1803               	skipnc
  1415  028F  0ADC               	incf	display@i+1,f
  1416  0290  30FF               	movlw	255
  1417  0291  07DC               	addwf	display@i+1,f
  1418  0292  0A5B               	incf	display@i,w
  1419  0293  1D03               	skipz
  1420  0294  2A99               	goto	u2401
  1421  0295  0A5C               	incf	display@i+1,w
  1422  0296  1D03               	btfss	3,2
  1423  0297  2A99               	goto	u2401
  1424  0298  2A9A               	goto	u2400
  1425  0299                     u2401:	
  1426  0299  2A2E               	goto	l1775
  1427  029A                     u2400:	
  1428  029A                     l1781:	
  1429                           
  1430                           ;main.c: 44: 
  1431  029A  01D6               	clrf	display@buff+3
  1432  029B                     l1783:	
  1433                           
  1434                           ;main.c: 47:     init_config();
  1435  029B  3053               	movlw	(low (display@buff| 0))& (0+255)
  1436  029C  00F4               	movwf	clcd_print@str
  1437  029D  3000               	movlw	0
  1438  029E  00F5               	movwf	clcd_print@str+1
  1439  029F  30CB               	movlw	203
  1440  02A0  00D2               	movwf	??_display
  1441  02A1  0852               	movf	??_display,w
  1442  02A2  00F6               	movwf	clcd_print@addr
  1443  02A3  120A  158A  26DF  120A  118A  	fcall	_clcd_print
  1444  02A8                     l1785:	
  1445                           
  1446                           ;main.c: 48:     char d=0xdf;
  1447  02A8  3018               	movlw	(low ((STR_2-__stringbase)| (0+32768)))& (0+255)
  1448  02A9  00F4               	movwf	clcd_print@str
  1449  02AA  3080               	movlw	128
  1450  02AB  00F5               	movwf	clcd_print@str+1
  1451  02AC  30CF               	movlw	207
  1452  02AD  1283               	bcf	3,5	;RP0=0, select bank0
  1453  02AE  1303               	bcf	3,6	;RP1=0, select bank0
  1454  02AF  00D2               	movwf	??_display
  1455  02B0  0852               	movf	??_display,w
  1456  02B1  00F6               	movwf	clcd_print@addr
  1457  02B2  120A  158A  26DF  120A  118A  	fcall	_clcd_print
  1458  02B7                     l42:	
  1459  02B7  0008               	return
  1460  02B8                     __end_of_display:	
  1461                           
  1462                           	psect	text7
  1463  0EDF                     __ptext7:	
  1464 ;; *************** function _clcd_print *****************
  1465 ;; Defined at:
  1466 ;;		line 64 in file "clcd.c"
  1467 ;; Parameters:    Size  Location     Type
  1468 ;;  str             2    4[COMMON] PTR const unsigned char 
  1469 ;;		 -> STR_3(17), STR_2(2), display@buff(4), STR_1(6), 
  1470 ;;  addr            1    6[COMMON] unsigned char 
  1471 ;; Auto vars:     Size  Location     Type
  1472 ;;		None
  1473 ;; Return value:  Size  Location     Type
  1474 ;;                  1    wreg      void 
  1475 ;; Registers used:
  1476 ;;		wreg, fsr0l, fsr0h, status,2, status,0, btemp+1, pclath, cstack
  1477 ;; Tracked objects:
  1478 ;;		On entry : 0/0
  1479 ;;		On exit  : 0/0
  1480 ;;		Unchanged: 0/0
  1481 ;; Data sizes:     COMMON   BANK0   BANK1   BANK3   BANK2
  1482 ;;      Params:         3       0       0       0       0
  1483 ;;      Locals:         0       0       0       0       0
  1484 ;;      Temps:          0       0       0       0       0
  1485 ;;      Totals:         3       0       0       0       0
  1486 ;;Total ram usage:        3 bytes
  1487 ;; Hardware stack levels used:    1
  1488 ;; Hardware stack levels required when called:    1
  1489 ;; This function calls:
  1490 ;;		_clcd_write
  1491 ;; This function is called by:
  1492 ;;		_display
  1493 ;;		_init_config
  1494 ;; This function uses a non-reentrant model
  1495 ;;
  1496                           
  1497                           
  1498                           ;psect for function _clcd_print
  1499  0EDF                     _clcd_print:	
  1500  0EDF                     l1301:	
  1501                           ;incstack = 0
  1502                           ; Regs used in _clcd_print: [wreg-fsr0h+status,2+status,0+btemp+1+pclath+cstack]
  1503                           
  1504                           
  1505                           ;clcd.c: 64: void clcd_print(const char *str, unsigned char addr);clcd.c: 65: {;clcd.c: 
      +                          66:     clcd_write(addr,0);
  1506  0EDF  01F0               	clrf	clcd_write@mode
  1507  0EE0  0876               	movf	clcd_print@addr,w
  1508  0EE1  120A  158A  270E  120A  158A  	fcall	_clcd_write
  1509                           
  1510                           ;clcd.c: 67:     while (*str != '\0')
  1511  0EE6  2EFD               	goto	l1307
  1512  0EE7                     l1303:	
  1513                           
  1514                           ;clcd.c: 68:     {;clcd.c: 69:        clcd_write(*str, 1);
  1515  0EE7  01F0               	clrf	clcd_write@mode
  1516  0EE8  0AF0               	incf	clcd_write@mode,f
  1517  0EE9  0875               	movf	clcd_print@str+1,w
  1518  0EEA  00FF               	movwf	btemp+1
  1519  0EEB  0874               	movf	clcd_print@str,w
  1520  0EEC  0084               	movwf	4
  1521  0EED  120A  158A  2000  120A  158A  	fcall	stringtab
  1522  0EF2  120A  158A  270E  120A  158A  	fcall	_clcd_write
  1523  0EF7                     l1305:	
  1524                           
  1525                           ;clcd.c: 70:        str++;
  1526  0EF7  3001               	movlw	1
  1527  0EF8  07F4               	addwf	clcd_print@str,f
  1528  0EF9  1803               	skipnc
  1529  0EFA  0AF5               	incf	clcd_print@str+1,f
  1530  0EFB  3000               	movlw	0
  1531  0EFC  07F5               	addwf	clcd_print@str+1,f
  1532  0EFD                     l1307:	
  1533                           
  1534                           ;clcd.c: 67:     while (*str != '\0')
  1535  0EFD  0875               	movf	clcd_print@str+1,w
  1536  0EFE  1283               	bcf	3,5	;RP0=0, select bank0
  1537  0EFF  1303               	bcf	3,6	;RP1=0, select bank0
  1538  0F00  00FF               	movwf	btemp+1
  1539  0F01  0874               	movf	clcd_print@str,w
  1540  0F02  0084               	movwf	4
  1541  0F03  120A  158A  2000  120A  158A  	fcall	stringtab
  1542  0F08  3A00               	xorlw	0
  1543  0F09  1D03               	skipz
  1544  0F0A  2F0C               	goto	u1271
  1545  0F0B  2F0D               	goto	u1270
  1546  0F0C                     u1271:	
  1547  0F0C  2EE7               	goto	l1303
  1548  0F0D                     u1270:	
  1549  0F0D                     l85:	
  1550  0F0D  0008               	return
  1551  0F0E                     __end_of_clcd_print:	
  1552                           
  1553                           	psect	text8
  1554  0111                     __ptext8:	
  1555 ;; *************** function ___xxtofl *****************
  1556 ;; Defined at:
  1557 ;;		line 10 in file "/opt/microchip/xc8/v2.10/pic/sources/c90/common/xxtofl.c"
  1558 ;; Parameters:    Size  Location     Type
  1559 ;;  sign            1    wreg     unsigned char 
  1560 ;;  val             4    8[BANK0 ] long 
  1561 ;; Auto vars:     Size  Location     Type
  1562 ;;  sign            1   16[BANK0 ] unsigned char 
  1563 ;;  arg             4   18[BANK0 ] unsigned long 
  1564 ;;  exp             1   17[BANK0 ] unsigned char 
  1565 ;; Return value:  Size  Location     Type
  1566 ;;                  4    8[BANK0 ] unsigned char 
  1567 ;; Registers used:
  1568 ;;		wreg, status,2, status,0
  1569 ;; Tracked objects:
  1570 ;;		On entry : 0/0
  1571 ;;		On exit  : 0/0
  1572 ;;		Unchanged: 0/0
  1573 ;; Data sizes:     COMMON   BANK0   BANK1   BANK3   BANK2
  1574 ;;      Params:         0       4       0       0       0
  1575 ;;      Locals:         0       6       0       0       0
  1576 ;;      Temps:          0       4       0       0       0
  1577 ;;      Totals:         0      14       0       0       0
  1578 ;;Total ram usage:       14 bytes
  1579 ;; Hardware stack levels used:    1
  1580 ;; This function calls:
  1581 ;;		Nothing
  1582 ;; This function is called by:
  1583 ;;		_display
  1584 ;; This function uses a non-reentrant model
  1585 ;;
  1586                           
  1587                           
  1588                           ;psect for function ___xxtofl
  1589  0111                     ___xxtofl:	
  1590                           
  1591                           ;incstack = 0
  1592                           ; Regs used in ___xxtofl: [wreg+status,2+status,0]
  1593                           ;___xxtofl@sign stored from wreg
  1594  0111  1283               	bcf	3,5	;RP0=0, select bank0
  1595  0112  1303               	bcf	3,6	;RP1=0, select bank0
  1596  0113  00B0               	movwf	___xxtofl@sign
  1597  0114                     l1717:	
  1598  0114  0830               	movf	___xxtofl@sign,w
  1599  0115  1903               	btfsc	3,2
  1600  0116  2918               	goto	u2241
  1601  0117  2919               	goto	u2240
  1602  0118                     u2241:	
  1603  0118  292D               	goto	l1723
  1604  0119                     u2240:	
  1605  0119                     l1719:	
  1606  0119  1FAB               	btfss	___xxtofl@val+3,7
  1607  011A  291C               	goto	u2251
  1608  011B  291D               	goto	u2250
  1609  011C                     u2251:	
  1610  011C  292D               	goto	l1723
  1611  011D                     u2250:	
  1612  011D                     l1721:	
  1613  011D  0928               	comf	___xxtofl@val,w
  1614  011E  00B2               	movwf	___xxtofl@arg
  1615  011F  0929               	comf	___xxtofl@val+1,w
  1616  0120  00B3               	movwf	___xxtofl@arg+1
  1617  0121  092A               	comf	___xxtofl@val+2,w
  1618  0122  00B4               	movwf	___xxtofl@arg+2
  1619  0123  092B               	comf	___xxtofl@val+3,w
  1620  0124  00B5               	movwf	___xxtofl@arg+3
  1621  0125  0AB2               	incf	___xxtofl@arg,f
  1622  0126  1903               	skipnz
  1623  0127  0AB3               	incf	___xxtofl@arg+1,f
  1624  0128  1903               	skipnz
  1625  0129  0AB4               	incf	___xxtofl@arg+2,f
  1626  012A  1903               	skipnz
  1627  012B  0AB5               	incf	___xxtofl@arg+3,f
  1628  012C  2935               	goto	l598
  1629  012D                     l1723:	
  1630  012D  082B               	movf	___xxtofl@val+3,w
  1631  012E  00B5               	movwf	___xxtofl@arg+3
  1632  012F  082A               	movf	___xxtofl@val+2,w
  1633  0130  00B4               	movwf	___xxtofl@arg+2
  1634  0131  0829               	movf	___xxtofl@val+1,w
  1635  0132  00B3               	movwf	___xxtofl@arg+1
  1636  0133  0828               	movf	___xxtofl@val,w
  1637  0134  00B2               	movwf	___xxtofl@arg
  1638  0135                     l598:	
  1639  0135  082B               	movf	___xxtofl@val+3,w
  1640  0136  042A               	iorwf	___xxtofl@val+2,w
  1641  0137  0429               	iorwf	___xxtofl@val+1,w
  1642  0138  0428               	iorwf	___xxtofl@val,w
  1643  0139  1D03               	skipz
  1644  013A  293C               	goto	u2261
  1645  013B  293D               	goto	u2260
  1646  013C                     u2261:	
  1647  013C  2946               	goto	l1729
  1648  013D                     u2260:	
  1649  013D                     l1725:	
  1650  013D  3000               	movlw	0
  1651  013E  00AB               	movwf	?___xxtofl+3
  1652  013F  3000               	movlw	0
  1653  0140  00AA               	movwf	?___xxtofl+2
  1654  0141  3000               	movlw	0
  1655  0142  00A9               	movwf	?___xxtofl+1
  1656  0143  3000               	movlw	0
  1657  0144  00A8               	movwf	?___xxtofl
  1658  0145  29CC               	goto	l600
  1659  0146                     l1729:	
  1660  0146  3096               	movlw	150
  1661  0147  00AC               	movwf	??___xxtofl
  1662  0148  082C               	movf	??___xxtofl,w
  1663  0149  00B1               	movwf	___xxtofl@exp
  1664  014A  2958               	goto	l1733
  1665  014B                     l1731:	
  1666  014B  3001               	movlw	1
  1667  014C  00AC               	movwf	??___xxtofl
  1668  014D  082C               	movf	??___xxtofl,w
  1669  014E  07B1               	addwf	___xxtofl@exp,f
  1670  014F  3001               	movlw	1
  1671  0150                     u2275:	
  1672  0150  1003               	clrc
  1673  0151  0CB5               	rrf	___xxtofl@arg+3,f
  1674  0152  0CB4               	rrf	___xxtofl@arg+2,f
  1675  0153  0CB3               	rrf	___xxtofl@arg+1,f
  1676  0154  0CB2               	rrf	___xxtofl@arg,f
  1677  0155  3EFF               	addlw	-1
  1678  0156  1D03               	skipz
  1679  0157  2950               	goto	u2275
  1680  0158                     l1733:	
  1681  0158  30FE               	movlw	254
  1682  0159  0535               	andwf	___xxtofl@arg+3,w
  1683  015A  1D03               	btfss	3,2
  1684  015B  295D               	goto	u2281
  1685  015C  295E               	goto	u2280
  1686  015D                     u2281:	
  1687  015D  294B               	goto	l1731
  1688  015E                     u2280:	
  1689  015E  297A               	goto	l604
  1690  015F                     l1735:	
  1691  015F  3001               	movlw	1
  1692  0160  00AC               	movwf	??___xxtofl
  1693  0161  082C               	movf	??___xxtofl,w
  1694  0162  07B1               	addwf	___xxtofl@exp,f
  1695  0163                     l1737:	
  1696  0163  3001               	movlw	1
  1697  0164  07B2               	addwf	___xxtofl@arg,f
  1698  0165  3000               	movlw	0
  1699  0166  1803               	skipnc
  1700  0167  3001               	movlw	1
  1701  0168  07B3               	addwf	___xxtofl@arg+1,f
  1702  0169  3000               	movlw	0
  1703  016A  1803               	skipnc
  1704  016B  3001               	movlw	1
  1705  016C  07B4               	addwf	___xxtofl@arg+2,f
  1706  016D  3000               	movlw	0
  1707  016E  1803               	skipnc
  1708  016F  3001               	movlw	1
  1709  0170  07B5               	addwf	___xxtofl@arg+3,f
  1710  0171                     l1739:	
  1711  0171  3001               	movlw	1
  1712  0172                     u2295:	
  1713  0172  1003               	clrc
  1714  0173  0CB5               	rrf	___xxtofl@arg+3,f
  1715  0174  0CB4               	rrf	___xxtofl@arg+2,f
  1716  0175  0CB3               	rrf	___xxtofl@arg+1,f
  1717  0176  0CB2               	rrf	___xxtofl@arg,f
  1718  0177  3EFF               	addlw	-1
  1719  0178  1D03               	skipz
  1720  0179  2972               	goto	u2295
  1721  017A                     l604:	
  1722  017A  30FF               	movlw	255
  1723  017B  0535               	andwf	___xxtofl@arg+3,w
  1724  017C  1D03               	btfss	3,2
  1725  017D  297F               	goto	u2301
  1726  017E  2980               	goto	u2300
  1727  017F                     u2301:	
  1728  017F  295F               	goto	l1735
  1729  0180                     u2300:	
  1730  0180  298C               	goto	l1743
  1731  0181                     l1741:	
  1732  0181  3001               	movlw	1
  1733  0182  02B1               	subwf	___xxtofl@exp,f
  1734  0183  3001               	movlw	1
  1735  0184  00AC               	movwf	??___xxtofl
  1736  0185                     u2315:	
  1737  0185  1003               	clrc
  1738  0186  0DB2               	rlf	___xxtofl@arg,f
  1739  0187  0DB3               	rlf	___xxtofl@arg+1,f
  1740  0188  0DB4               	rlf	___xxtofl@arg+2,f
  1741  0189  0DB5               	rlf	___xxtofl@arg+3,f
  1742  018A  0BAC               	decfsz	??___xxtofl,f
  1743  018B  2985               	goto	u2315
  1744  018C                     l1743:	
  1745  018C  1BB4               	btfsc	___xxtofl@arg+2,7
  1746  018D  298F               	goto	u2321
  1747  018E  2990               	goto	u2320
  1748  018F                     u2321:	
  1749  018F  2996               	goto	l611
  1750  0190                     u2320:	
  1751  0190                     l1745:	
  1752  0190  3002               	movlw	2
  1753  0191  0231               	subwf	___xxtofl@exp,w
  1754  0192  1803               	skipnc
  1755  0193  2995               	goto	u2331
  1756  0194  2996               	goto	u2330
  1757  0195                     u2331:	
  1758  0195  2981               	goto	l1741
  1759  0196                     u2330:	
  1760  0196                     l611:	
  1761  0196  1831               	btfsc	___xxtofl@exp,0
  1762  0197  2999               	goto	u2341
  1763  0198  299A               	goto	u2340
  1764  0199                     u2341:	
  1765  0199  29A2               	goto	l612
  1766  019A                     u2340:	
  1767  019A                     l1747:	
  1768  019A  30FF               	movlw	255
  1769  019B  05B2               	andwf	___xxtofl@arg,f
  1770  019C  30FF               	movlw	255
  1771  019D  05B3               	andwf	___xxtofl@arg+1,f
  1772  019E  307F               	movlw	127
  1773  019F  05B4               	andwf	___xxtofl@arg+2,f
  1774  01A0  30FF               	movlw	255
  1775  01A1  05B5               	andwf	___xxtofl@arg+3,f
  1776  01A2                     l612:	
  1777  01A2  1003               	clrc
  1778  01A3  0CB1               	rrf	___xxtofl@exp,f
  1779  01A4                     l1749:	
  1780  01A4  0831               	movf	___xxtofl@exp,w
  1781  01A5  00AC               	movwf	??___xxtofl
  1782  01A6  01AD               	clrf	??___xxtofl+1
  1783  01A7  01AE               	clrf	??___xxtofl+2
  1784  01A8  01AF               	clrf	??___xxtofl+3
  1785  01A9  3018               	movlw	24
  1786  01AA                     u2355:	
  1787  01AA  1003               	clrc
  1788  01AB  0DAC               	rlf	??___xxtofl,f
  1789  01AC  0DAD               	rlf	??___xxtofl+1,f
  1790  01AD  0DAE               	rlf	??___xxtofl+2,f
  1791  01AE  0DAF               	rlf	??___xxtofl+3,f
  1792  01AF                     u2350:	
  1793  01AF  3EFF               	addlw	-1
  1794  01B0  1D03               	skipz
  1795  01B1  29AA               	goto	u2355
  1796  01B2  082C               	movf	??___xxtofl,w
  1797  01B3  04B2               	iorwf	___xxtofl@arg,f
  1798  01B4  082D               	movf	??___xxtofl+1,w
  1799  01B5  04B3               	iorwf	___xxtofl@arg+1,f
  1800  01B6  082E               	movf	??___xxtofl+2,w
  1801  01B7  04B4               	iorwf	___xxtofl@arg+2,f
  1802  01B8  082F               	movf	??___xxtofl+3,w
  1803  01B9  04B5               	iorwf	___xxtofl@arg+3,f
  1804  01BA                     l1751:	
  1805  01BA  0830               	movf	___xxtofl@sign,w
  1806  01BB  1903               	btfsc	3,2
  1807  01BC  29BE               	goto	u2361
  1808  01BD  29BF               	goto	u2360
  1809  01BE                     u2361:	
  1810  01BE  29C4               	goto	l1757
  1811  01BF                     u2360:	
  1812  01BF                     l1753:	
  1813  01BF  1FAB               	btfss	___xxtofl@val+3,7
  1814  01C0  29C2               	goto	u2371
  1815  01C1  29C3               	goto	u2370
  1816  01C2                     u2371:	
  1817  01C2  29C4               	goto	l1757
  1818  01C3                     u2370:	
  1819  01C3                     l1755:	
  1820  01C3  17B5               	bsf	___xxtofl@arg+3,7
  1821  01C4                     l1757:	
  1822  01C4  0835               	movf	___xxtofl@arg+3,w
  1823  01C5  00AB               	movwf	?___xxtofl+3
  1824  01C6  0834               	movf	___xxtofl@arg+2,w
  1825  01C7  00AA               	movwf	?___xxtofl+2
  1826  01C8  0833               	movf	___xxtofl@arg+1,w
  1827  01C9  00A9               	movwf	?___xxtofl+1
  1828  01CA  0832               	movf	___xxtofl@arg,w
  1829  01CB  00A8               	movwf	?___xxtofl
  1830  01CC                     l600:	
  1831  01CC  0008               	return
  1832  01CD                     __end_of___xxtofl:	
  1833                           
  1834                           	psect	text9
  1835  0097                     __ptext9:	
  1836 ;; *************** function ___fltol *****************
  1837 ;; Defined at:
  1838 ;;		line 43 in file "/opt/microchip/xc8/v2.10/pic/sources/c90/common/fltol.c"
  1839 ;; Parameters:    Size  Location     Type
  1840 ;;  f1              4    0[COMMON] unsigned char 
  1841 ;; Auto vars:     Size  Location     Type
  1842 ;;  exp1            1   10[COMMON] unsigned char 
  1843 ;;  sign1           1    9[COMMON] unsigned char 
  1844 ;; Return value:  Size  Location     Type
  1845 ;;                  4    0[COMMON] long 
  1846 ;; Registers used:
  1847 ;;		wreg, status,2, status,0
  1848 ;; Tracked objects:
  1849 ;;		On entry : 0/0
  1850 ;;		On exit  : 0/0
  1851 ;;		Unchanged: 0/0
  1852 ;; Data sizes:     COMMON   BANK0   BANK1   BANK3   BANK2
  1853 ;;      Params:         4       0       0       0       0
  1854 ;;      Locals:         2       0       0       0       0
  1855 ;;      Temps:          5       0       0       0       0
  1856 ;;      Totals:        11       0       0       0       0
  1857 ;;Total ram usage:       11 bytes
  1858 ;; Hardware stack levels used:    1
  1859 ;; This function calls:
  1860 ;;		Nothing
  1861 ;; This function is called by:
  1862 ;;		_display
  1863 ;; This function uses a non-reentrant model
  1864 ;;
  1865                           
  1866                           
  1867                           ;psect for function ___fltol
  1868  0097                     ___fltol:	
  1869  0097                     l1399:	
  1870                           ;incstack = 0
  1871                           ; Regs used in ___fltol: [wreg+status,2+status,0]
  1872                           
  1873  0097  1003               	clrc
  1874  0098  0D72               	rlf	___fltol@f1+2,w
  1875  0099  0D73               	rlf	___fltol@f1+3,w
  1876  009A  00F4               	movwf	??___fltol
  1877  009B  0874               	movf	??___fltol,w
  1878  009C  00FA               	movwf	___fltol@exp1
  1879  009D  087A               	movf	___fltol@exp1,w
  1880  009E  1D03               	btfss	3,2
  1881  009F  28A1               	goto	u1471
  1882  00A0  28A2               	goto	u1470
  1883  00A1                     u1471:	
  1884  00A1  28AB               	goto	l1405
  1885  00A2                     u1470:	
  1886  00A2                     l1401:	
  1887  00A2  3000               	movlw	0
  1888  00A3  00F3               	movwf	?___fltol+3
  1889  00A4  3000               	movlw	0
  1890  00A5  00F2               	movwf	?___fltol+2
  1891  00A6  3000               	movlw	0
  1892  00A7  00F1               	movwf	?___fltol+1
  1893  00A8  3000               	movlw	0
  1894  00A9  00F0               	movwf	?___fltol
  1895  00AA  2910               	goto	l357
  1896  00AB                     l1405:	
  1897  00AB  0870               	movf	___fltol@f1,w
  1898  00AC  00F4               	movwf	??___fltol
  1899  00AD  0871               	movf	___fltol@f1+1,w
  1900  00AE  00F5               	movwf	??___fltol+1
  1901  00AF  0872               	movf	___fltol@f1+2,w
  1902  00B0  00F6               	movwf	??___fltol+2
  1903  00B1  0873               	movf	___fltol@f1+3,w
  1904  00B2  00F7               	movwf	??___fltol+3
  1905  00B3  301F               	movlw	31
  1906  00B4                     u1485:	
  1907  00B4  1003               	clrc
  1908  00B5  0CF7               	rrf	??___fltol+3,f
  1909  00B6  0CF6               	rrf	??___fltol+2,f
  1910  00B7  0CF5               	rrf	??___fltol+1,f
  1911  00B8  0CF4               	rrf	??___fltol,f
  1912  00B9                     u1480:	
  1913  00B9  3EFF               	addlw	-1
  1914  00BA  1D03               	skipz
  1915  00BB  28B4               	goto	u1485
  1916  00BC  0874               	movf	??___fltol,w
  1917  00BD  00F8               	movwf	??___fltol+4
  1918  00BE  0878               	movf	??___fltol+4,w
  1919  00BF  00F9               	movwf	___fltol@sign1
  1920  00C0                     l1407:	
  1921  00C0  17F2               	bsf	___fltol@f1+2,7
  1922  00C1                     l1409:	
  1923  00C1  30FF               	movlw	255
  1924  00C2  05F0               	andwf	___fltol@f1,f
  1925  00C3  30FF               	movlw	255
  1926  00C4  05F1               	andwf	___fltol@f1+1,f
  1927  00C5  30FF               	movlw	255
  1928  00C6  05F2               	andwf	___fltol@f1+2,f
  1929  00C7  3000               	movlw	0
  1930  00C8  05F3               	andwf	___fltol@f1+3,f
  1931  00C9                     l1411:	
  1932  00C9  3096               	movlw	150
  1933  00CA  02FA               	subwf	___fltol@exp1,f
  1934  00CB                     l1413:	
  1935  00CB  1FFA               	btfss	___fltol@exp1,7
  1936  00CC  28CE               	goto	u1491
  1937  00CD  28CF               	goto	u1490
  1938  00CE                     u1491:	
  1939  00CE  28E9               	goto	l1423
  1940  00CF                     u1490:	
  1941  00CF                     l1415:	
  1942  00CF  087A               	movf	___fltol@exp1,w
  1943  00D0  3A80               	xorlw	128
  1944  00D1  3E97               	addlw	151
  1945  00D2  1803               	skipnc
  1946  00D3  28D5               	goto	u1501
  1947  00D4  28D6               	goto	u1500
  1948  00D5                     u1501:	
  1949  00D5  28D7               	goto	l1421
  1950  00D6                     u1500:	
  1951  00D6  28A2               	goto	l1401
  1952  00D7                     l1421:	
  1953  00D7  3001               	movlw	1
  1954  00D8                     u1515:	
  1955  00D8  1003               	clrc
  1956  00D9  0CF3               	rrf	___fltol@f1+3,f
  1957  00DA  0CF2               	rrf	___fltol@f1+2,f
  1958  00DB  0CF1               	rrf	___fltol@f1+1,f
  1959  00DC  0CF0               	rrf	___fltol@f1,f
  1960  00DD  3EFF               	addlw	-1
  1961  00DE  1D03               	skipz
  1962  00DF  28D8               	goto	u1515
  1963  00E0  3001               	movlw	1
  1964  00E1  00F4               	movwf	??___fltol
  1965  00E2  0874               	movf	??___fltol,w
  1966  00E3  07FA               	addwf	___fltol@exp1,f
  1967  00E4  1D03               	btfss	3,2
  1968  00E5  28E7               	goto	u1521
  1969  00E6  28E8               	goto	u1520
  1970  00E7                     u1521:	
  1971  00E7  28D7               	goto	l1421
  1972  00E8                     u1520:	
  1973  00E8  2900               	goto	l1431
  1974  00E9                     l1423:	
  1975  00E9  3020               	movlw	32
  1976  00EA  027A               	subwf	___fltol@exp1,w
  1977  00EB  1C03               	skipc
  1978  00EC  28EE               	goto	u1531
  1979  00ED  28EF               	goto	u1530
  1980  00EE                     u1531:	
  1981  00EE  28FB               	goto	l364
  1982  00EF                     u1530:	
  1983  00EF  28A2               	goto	l1401
  1984  00F0                     l1429:	
  1985  00F0  3001               	movlw	1
  1986  00F1  00F4               	movwf	??___fltol
  1987  00F2                     u1545:	
  1988  00F2  1003               	clrc
  1989  00F3  0DF0               	rlf	___fltol@f1,f
  1990  00F4  0DF1               	rlf	___fltol@f1+1,f
  1991  00F5  0DF2               	rlf	___fltol@f1+2,f
  1992  00F6  0DF3               	rlf	___fltol@f1+3,f
  1993  00F7  0BF4               	decfsz	??___fltol,f
  1994  00F8  28F2               	goto	u1545
  1995  00F9  3001               	movlw	1
  1996  00FA  02FA               	subwf	___fltol@exp1,f
  1997  00FB                     l364:	
  1998  00FB  087A               	movf	___fltol@exp1,w
  1999  00FC  1D03               	btfss	3,2
  2000  00FD  28FF               	goto	u1551
  2001  00FE  2900               	goto	u1550
  2002  00FF                     u1551:	
  2003  00FF  28F0               	goto	l1429
  2004  0100                     u1550:	
  2005  0100                     l1431:	
  2006  0100  0879               	movf	___fltol@sign1,w
  2007  0101  1903               	btfsc	3,2
  2008  0102  2904               	goto	u1561
  2009  0103  2905               	goto	u1560
  2010  0104                     u1561:	
  2011  0104  2910               	goto	l367
  2012  0105                     u1560:	
  2013  0105                     l1433:	
  2014  0105  09F0               	comf	___fltol@f1,f
  2015  0106  09F1               	comf	___fltol@f1+1,f
  2016  0107  09F2               	comf	___fltol@f1+2,f
  2017  0108  09F3               	comf	___fltol@f1+3,f
  2018  0109  0AF0               	incf	___fltol@f1,f
  2019  010A  1903               	skipnz
  2020  010B  0AF1               	incf	___fltol@f1+1,f
  2021  010C  1903               	skipnz
  2022  010D  0AF2               	incf	___fltol@f1+2,f
  2023  010E  1903               	skipnz
  2024  010F  0AF3               	incf	___fltol@f1+3,f
  2025  0110                     l367:	
  2026  0110                     l357:	
  2027  0110  0008               	return
  2028  0111                     __end_of___fltol:	
  2029                           
  2030                           	psect	text10
  2031  049B                     __ptext10:	
  2032 ;; *************** function ___flmul *****************
  2033 ;; Defined at:
  2034 ;;		line 8 in file "/opt/microchip/xc8/v2.10/pic/sources/c90/common/sprcmul.c"
  2035 ;; Parameters:    Size  Location     Type
  2036 ;;  b               4   22[BANK0 ] long 
  2037 ;;  a               4   26[BANK0 ] long 
  2038 ;; Auto vars:     Size  Location     Type
  2039 ;;  prod            4   42[BANK0 ] struct .
  2040 ;;  grs             4   36[BANK0 ] unsigned long 
  2041 ;;  temp            2   46[BANK0 ] struct .
  2042 ;;  bexp            1   41[BANK0 ] unsigned char 
  2043 ;;  aexp            1   40[BANK0 ] unsigned char 
  2044 ;;  sign            1   35[BANK0 ] unsigned char 
  2045 ;; Return value:  Size  Location     Type
  2046 ;;                  4   22[BANK0 ] unsigned char 
  2047 ;; Registers used:
  2048 ;;		wreg, status,2, status,0, btemp+1, pclath, cstack
  2049 ;; Tracked objects:
  2050 ;;		On entry : 0/0
  2051 ;;		On exit  : 0/0
  2052 ;;		Unchanged: 0/0
  2053 ;; Data sizes:     COMMON   BANK0   BANK1   BANK3   BANK2
  2054 ;;      Params:         0       8       0       0       0
  2055 ;;      Locals:         0      13       0       0       0
  2056 ;;      Temps:          0       5       0       0       0
  2057 ;;      Totals:         0      26       0       0       0
  2058 ;;Total ram usage:       26 bytes
  2059 ;; Hardware stack levels used:    1
  2060 ;; Hardware stack levels required when called:    1
  2061 ;; This function calls:
  2062 ;;		__Umul8_16
  2063 ;; This function is called by:
  2064 ;;		_display
  2065 ;; This function uses a non-reentrant model
  2066 ;;
  2067                           
  2068                           
  2069                           ;psect for function ___flmul
  2070  049B                     ___flmul:	
  2071  049B                     l1577:	
  2072                           ;incstack = 0
  2073                           ; Regs used in ___flmul: [wreg+status,2+status,0+btemp+1+pclath+cstack]
  2074                           
  2075  049B  1283               	bcf	3,5	;RP0=0, select bank0
  2076  049C  1303               	bcf	3,6	;RP1=0, select bank0
  2077  049D  0839               	movf	___flmul@b+3,w
  2078  049E  3980               	andlw	128
  2079  049F  00BE               	movwf	??___flmul
  2080  04A0  083E               	movf	??___flmul,w
  2081  04A1  00C3               	movwf	___flmul@sign
  2082  04A2                     l1579:	
  2083  04A2  0839               	movf	___flmul@b+3,w
  2084  04A3  00BE               	movwf	??___flmul
  2085  04A4  073E               	addwf	??___flmul,w
  2086  04A5  00BF               	movwf	??___flmul+1
  2087  04A6  083F               	movf	??___flmul+1,w
  2088  04A7  00C9               	movwf	___flmul@bexp
  2089  04A8                     l1581:	
  2090  04A8  1FB8               	btfss	___flmul@b+2,7
  2091  04A9  2CAB               	goto	u1871
  2092  04AA  2CAC               	goto	u1870
  2093  04AB                     u1871:	
  2094  04AB  2CAD               	goto	l1585
  2095  04AC                     u1870:	
  2096  04AC                     l1583:	
  2097  04AC  1449               	bsf	___flmul@bexp,0
  2098  04AD                     l1585:	
  2099  04AD  0849               	movf	___flmul@bexp,w
  2100  04AE  1903               	btfsc	3,2
  2101  04AF  2CB1               	goto	u1881
  2102  04B0  2CB2               	goto	u1880
  2103  04B1                     u1881:	
  2104  04B1  2CC1               	goto	l1593
  2105  04B2                     u1880:	
  2106  04B2                     l1587:	
  2107  04B2  0A49               	incf	___flmul@bexp,w
  2108  04B3  1D03               	btfss	3,2
  2109  04B4  2CB6               	goto	u1891
  2110  04B5  2CB7               	goto	u1890
  2111  04B6                     u1891:	
  2112  04B6  2CBF               	goto	l1591
  2113  04B7                     u1890:	
  2114  04B7                     l1589:	
  2115  04B7  3000               	movlw	0
  2116  04B8  00B9               	movwf	___flmul@b+3
  2117  04B9  3000               	movlw	0
  2118  04BA  00B8               	movwf	___flmul@b+2
  2119  04BB  3000               	movlw	0
  2120  04BC  00B7               	movwf	___flmul@b+1
  2121  04BD  3000               	movlw	0
  2122  04BE  00B6               	movwf	___flmul@b
  2123  04BF                     l1591:	
  2124  04BF  17B8               	bsf	___flmul@b+2,7
  2125  04C0  2CC9               	goto	l1595
  2126  04C1                     l1593:	
  2127  04C1  3000               	movlw	0
  2128  04C2  00B9               	movwf	___flmul@b+3
  2129  04C3  3000               	movlw	0
  2130  04C4  00B8               	movwf	___flmul@b+2
  2131  04C5  3000               	movlw	0
  2132  04C6  00B7               	movwf	___flmul@b+1
  2133  04C7  3000               	movlw	0
  2134  04C8  00B6               	movwf	___flmul@b
  2135  04C9                     l1595:	
  2136  04C9  083D               	movf	___flmul@a+3,w
  2137  04CA  3980               	andlw	128
  2138  04CB  00BE               	movwf	??___flmul
  2139  04CC  083E               	movf	??___flmul,w
  2140  04CD  06C3               	xorwf	___flmul@sign,f
  2141  04CE                     l1597:	
  2142  04CE  083D               	movf	___flmul@a+3,w
  2143  04CF  00BE               	movwf	??___flmul
  2144  04D0  073E               	addwf	??___flmul,w
  2145  04D1  00BF               	movwf	??___flmul+1
  2146  04D2  083F               	movf	??___flmul+1,w
  2147  04D3  00C8               	movwf	___flmul@aexp
  2148  04D4                     l1599:	
  2149  04D4  1FBC               	btfss	___flmul@a+2,7
  2150  04D5  2CD7               	goto	u1901
  2151  04D6  2CD8               	goto	u1900
  2152  04D7                     u1901:	
  2153  04D7  2CD9               	goto	l1603
  2154  04D8                     u1900:	
  2155  04D8                     l1601:	
  2156  04D8  1448               	bsf	___flmul@aexp,0
  2157  04D9                     l1603:	
  2158  04D9  0848               	movf	___flmul@aexp,w
  2159  04DA  1903               	btfsc	3,2
  2160  04DB  2CDD               	goto	u1911
  2161  04DC  2CDE               	goto	u1910
  2162  04DD                     u1911:	
  2163  04DD  2CED               	goto	l1611
  2164  04DE                     u1910:	
  2165  04DE                     l1605:	
  2166  04DE  0A48               	incf	___flmul@aexp,w
  2167  04DF  1D03               	btfss	3,2
  2168  04E0  2CE2               	goto	u1921
  2169  04E1  2CE3               	goto	u1920
  2170  04E2                     u1921:	
  2171  04E2  2CEB               	goto	l1609
  2172  04E3                     u1920:	
  2173  04E3                     l1607:	
  2174  04E3  3000               	movlw	0
  2175  04E4  00BD               	movwf	___flmul@a+3
  2176  04E5  3000               	movlw	0
  2177  04E6  00BC               	movwf	___flmul@a+2
  2178  04E7  3000               	movlw	0
  2179  04E8  00BB               	movwf	___flmul@a+1
  2180  04E9  3000               	movlw	0
  2181  04EA  00BA               	movwf	___flmul@a
  2182  04EB                     l1609:	
  2183  04EB  17BC               	bsf	___flmul@a+2,7
  2184  04EC  2CF5               	goto	l1613
  2185  04ED                     l1611:	
  2186  04ED  3000               	movlw	0
  2187  04EE  00BD               	movwf	___flmul@a+3
  2188  04EF  3000               	movlw	0
  2189  04F0  00BC               	movwf	___flmul@a+2
  2190  04F1  3000               	movlw	0
  2191  04F2  00BB               	movwf	___flmul@a+1
  2192  04F3  3000               	movlw	0
  2193  04F4  00BA               	movwf	___flmul@a
  2194  04F5                     l1613:	
  2195  04F5  0848               	movf	___flmul@aexp,w
  2196  04F6  1903               	btfsc	3,2
  2197  04F7  2CF9               	goto	u1931
  2198  04F8  2CFA               	goto	u1930
  2199  04F9                     u1931:	
  2200  04F9  2CFF               	goto	l1617
  2201  04FA                     u1930:	
  2202  04FA                     l1615:	
  2203  04FA  0849               	movf	___flmul@bexp,w
  2204  04FB  1D03               	btfss	3,2
  2205  04FC  2CFE               	goto	u1941
  2206  04FD  2CFF               	goto	u1940
  2207  04FE                     u1941:	
  2208  04FE  2D08               	goto	l1621
  2209  04FF                     u1940:	
  2210  04FF                     l1617:	
  2211  04FF  3000               	movlw	0
  2212  0500  00B9               	movwf	?___flmul+3
  2213  0501  3000               	movlw	0
  2214  0502  00B8               	movwf	?___flmul+2
  2215  0503  3000               	movlw	0
  2216  0504  00B7               	movwf	?___flmul+1
  2217  0505  3000               	movlw	0
  2218  0506  00B6               	movwf	?___flmul
  2219  0507  2FFB               	goto	l560
  2220  0508                     l1621:	
  2221  0508  0836               	movf	___flmul@b,w
  2222  0509  00BE               	movwf	??___flmul
  2223  050A  083E               	movf	??___flmul,w
  2224  050B  00F0               	movwf	__Umul8_16@multiplicand
  2225  050C  083C               	movf	___flmul@a+2,w
  2226  050D  120A  158A  26B8  120A  118A  	fcall	__Umul8_16
  2227  0512  0871               	movf	?__Umul8_16+1,w
  2228  0513  1283               	bcf	3,5	;RP0=0, select bank0
  2229  0514  1303               	bcf	3,6	;RP1=0, select bank0
  2230  0515  00CF               	movwf	___flmul@temp+1
  2231  0516  0870               	movf	?__Umul8_16,w
  2232  0517  00CE               	movwf	___flmul@temp
  2233  0518                     l1623:	
  2234  0518  084E               	movf	___flmul@temp,w
  2235  0519  00BE               	movwf	??___flmul
  2236  051A  01BF               	clrf	??___flmul+1
  2237  051B  01C0               	clrf	??___flmul+2
  2238  051C  01C1               	clrf	??___flmul+3
  2239  051D  0841               	movf	??___flmul+3,w
  2240  051E  00C7               	movwf	___flmul@grs+3
  2241  051F  0840               	movf	??___flmul+2,w
  2242  0520  00C6               	movwf	___flmul@grs+2
  2243  0521  083F               	movf	??___flmul+1,w
  2244  0522  00C5               	movwf	___flmul@grs+1
  2245  0523  083E               	movf	??___flmul,w
  2246  0524  00C4               	movwf	___flmul@grs
  2247  0525                     l1625:	
  2248  0525  084F               	movf	___flmul@temp+1,w
  2249  0526  00BE               	movwf	??___flmul
  2250  0527  01BF               	clrf	??___flmul+1
  2251  0528  01C0               	clrf	??___flmul+2
  2252  0529  01C1               	clrf	??___flmul+3
  2253  052A  0841               	movf	??___flmul+3,w
  2254  052B  00CD               	movwf	___flmul@prod+3
  2255  052C  0840               	movf	??___flmul+2,w
  2256  052D  00CC               	movwf	___flmul@prod+2
  2257  052E  083F               	movf	??___flmul+1,w
  2258  052F  00CB               	movwf	___flmul@prod+1
  2259  0530  083E               	movf	??___flmul,w
  2260  0531  00CA               	movwf	___flmul@prod
  2261  0532  0837               	movf	___flmul@b+1,w
  2262  0533  00BE               	movwf	??___flmul
  2263  0534  083E               	movf	??___flmul,w
  2264  0535  00F0               	movwf	__Umul8_16@multiplicand
  2265  0536  083B               	movf	___flmul@a+1,w
  2266  0537  120A  158A  26B8  120A  118A  	fcall	__Umul8_16
  2267  053C  0871               	movf	?__Umul8_16+1,w
  2268  053D  1283               	bcf	3,5	;RP0=0, select bank0
  2269  053E  1303               	bcf	3,6	;RP1=0, select bank0
  2270  053F  00CF               	movwf	___flmul@temp+1
  2271  0540  0870               	movf	?__Umul8_16,w
  2272  0541  00CE               	movwf	___flmul@temp
  2273  0542                     l1627:	
  2274  0542  084E               	movf	___flmul@temp,w
  2275  0543  00BE               	movwf	??___flmul
  2276  0544  01BF               	clrf	??___flmul+1
  2277  0545  01C0               	clrf	??___flmul+2
  2278  0546  01C1               	clrf	??___flmul+3
  2279  0547  083E               	movf	??___flmul,w
  2280  0548  07C4               	addwf	___flmul@grs,f
  2281  0549  083F               	movf	??___flmul+1,w
  2282  054A  1103               	clrz
  2283  054B  1803               	skipnc
  2284  054C  3E01               	addlw	1
  2285  054D  1903               	skipnz
  2286  054E  2D50               	goto	u1951
  2287  054F  07C5               	addwf	___flmul@grs+1,f
  2288  0550                     u1951:	
  2289  0550  0840               	movf	??___flmul+2,w
  2290  0551  1103               	clrz
  2291  0552  1803               	skipnc
  2292  0553  3E01               	addlw	1
  2293  0554  1903               	skipnz
  2294  0555  2D57               	goto	u1952
  2295  0556  07C6               	addwf	___flmul@grs+2,f
  2296  0557                     u1952:	
  2297  0557  0841               	movf	??___flmul+3,w
  2298  0558  1103               	clrz
  2299  0559  1803               	skipnc
  2300  055A  3E01               	addlw	1
  2301  055B  1903               	skipnz
  2302  055C  2D5E               	goto	u1953
  2303  055D  07C7               	addwf	___flmul@grs+3,f
  2304  055E                     u1953:	
  2305  055E                     l1629:	
  2306  055E  084F               	movf	___flmul@temp+1,w
  2307  055F  00BE               	movwf	??___flmul
  2308  0560  01BF               	clrf	??___flmul+1
  2309  0561  01C0               	clrf	??___flmul+2
  2310  0562  01C1               	clrf	??___flmul+3
  2311  0563  083E               	movf	??___flmul,w
  2312  0564  07CA               	addwf	___flmul@prod,f
  2313  0565  083F               	movf	??___flmul+1,w
  2314  0566  1103               	clrz
  2315  0567  1803               	skipnc
  2316  0568  3E01               	addlw	1
  2317  0569  1903               	skipnz
  2318  056A  2D6C               	goto	u1961
  2319  056B  07CB               	addwf	___flmul@prod+1,f
  2320  056C                     u1961:	
  2321  056C  0840               	movf	??___flmul+2,w
  2322  056D  1103               	clrz
  2323  056E  1803               	skipnc
  2324  056F  3E01               	addlw	1
  2325  0570  1903               	skipnz
  2326  0571  2D73               	goto	u1962
  2327  0572  07CC               	addwf	___flmul@prod+2,f
  2328  0573                     u1962:	
  2329  0573  0841               	movf	??___flmul+3,w
  2330  0574  1103               	clrz
  2331  0575  1803               	skipnc
  2332  0576  3E01               	addlw	1
  2333  0577  1903               	skipnz
  2334  0578  2D7A               	goto	u1963
  2335  0579  07CD               	addwf	___flmul@prod+3,f
  2336  057A                     u1963:	
  2337  057A  0838               	movf	___flmul@b+2,w
  2338  057B  00BE               	movwf	??___flmul
  2339  057C  083E               	movf	??___flmul,w
  2340  057D  00F0               	movwf	__Umul8_16@multiplicand
  2341  057E  083A               	movf	___flmul@a,w
  2342  057F  120A  158A  26B8  120A  118A  	fcall	__Umul8_16
  2343  0584  0871               	movf	?__Umul8_16+1,w
  2344  0585  1283               	bcf	3,5	;RP0=0, select bank0
  2345  0586  1303               	bcf	3,6	;RP1=0, select bank0
  2346  0587  00CF               	movwf	___flmul@temp+1
  2347  0588  0870               	movf	?__Umul8_16,w
  2348  0589  00CE               	movwf	___flmul@temp
  2349  058A                     l1631:	
  2350  058A  084E               	movf	___flmul@temp,w
  2351  058B  00BE               	movwf	??___flmul
  2352  058C  01BF               	clrf	??___flmul+1
  2353  058D  01C0               	clrf	??___flmul+2
  2354  058E  01C1               	clrf	??___flmul+3
  2355  058F  083E               	movf	??___flmul,w
  2356  0590  07C4               	addwf	___flmul@grs,f
  2357  0591  083F               	movf	??___flmul+1,w
  2358  0592  1103               	clrz
  2359  0593  1803               	skipnc
  2360  0594  3E01               	addlw	1
  2361  0595  1903               	skipnz
  2362  0596  2D98               	goto	u1971
  2363  0597  07C5               	addwf	___flmul@grs+1,f
  2364  0598                     u1971:	
  2365  0598  0840               	movf	??___flmul+2,w
  2366  0599  1103               	clrz
  2367  059A  1803               	skipnc
  2368  059B  3E01               	addlw	1
  2369  059C  1903               	skipnz
  2370  059D  2D9F               	goto	u1972
  2371  059E  07C6               	addwf	___flmul@grs+2,f
  2372  059F                     u1972:	
  2373  059F  0841               	movf	??___flmul+3,w
  2374  05A0  1103               	clrz
  2375  05A1  1803               	skipnc
  2376  05A2  3E01               	addlw	1
  2377  05A3  1903               	skipnz
  2378  05A4  2DA6               	goto	u1973
  2379  05A5  07C7               	addwf	___flmul@grs+3,f
  2380  05A6                     u1973:	
  2381  05A6                     l1633:	
  2382  05A6  084F               	movf	___flmul@temp+1,w
  2383  05A7  00BE               	movwf	??___flmul
  2384  05A8  01BF               	clrf	??___flmul+1
  2385  05A9  01C0               	clrf	??___flmul+2
  2386  05AA  01C1               	clrf	??___flmul+3
  2387  05AB  083E               	movf	??___flmul,w
  2388  05AC  07CA               	addwf	___flmul@prod,f
  2389  05AD  083F               	movf	??___flmul+1,w
  2390  05AE  1103               	clrz
  2391  05AF  1803               	skipnc
  2392  05B0  3E01               	addlw	1
  2393  05B1  1903               	skipnz
  2394  05B2  2DB4               	goto	u1981
  2395  05B3  07CB               	addwf	___flmul@prod+1,f
  2396  05B4                     u1981:	
  2397  05B4  0840               	movf	??___flmul+2,w
  2398  05B5  1103               	clrz
  2399  05B6  1803               	skipnc
  2400  05B7  3E01               	addlw	1
  2401  05B8  1903               	skipnz
  2402  05B9  2DBB               	goto	u1982
  2403  05BA  07CC               	addwf	___flmul@prod+2,f
  2404  05BB                     u1982:	
  2405  05BB  0841               	movf	??___flmul+3,w
  2406  05BC  1103               	clrz
  2407  05BD  1803               	skipnc
  2408  05BE  3E01               	addlw	1
  2409  05BF  1903               	skipnz
  2410  05C0  2DC2               	goto	u1983
  2411  05C1  07CD               	addwf	___flmul@prod+3,f
  2412  05C2                     u1983:	
  2413  05C2                     l1635:	
  2414  05C2  3008               	movlw	8
  2415  05C3  00BE               	movwf	??___flmul
  2416  05C4                     u1995:	
  2417  05C4  1003               	clrc
  2418  05C5  0DC4               	rlf	___flmul@grs,f
  2419  05C6  0DC5               	rlf	___flmul@grs+1,f
  2420  05C7  0DC6               	rlf	___flmul@grs+2,f
  2421  05C8  0DC7               	rlf	___flmul@grs+3,f
  2422  05C9  0BBE               	decfsz	??___flmul,f
  2423  05CA  2DC4               	goto	u1995
  2424  05CB                     l1637:	
  2425  05CB  0837               	movf	___flmul@b+1,w
  2426  05CC  00BE               	movwf	??___flmul
  2427  05CD  083E               	movf	??___flmul,w
  2428  05CE  00F0               	movwf	__Umul8_16@multiplicand
  2429  05CF  083A               	movf	___flmul@a,w
  2430  05D0  120A  158A  26B8  120A  118A  	fcall	__Umul8_16
  2431  05D5  0871               	movf	?__Umul8_16+1,w
  2432  05D6  1283               	bcf	3,5	;RP0=0, select bank0
  2433  05D7  1303               	bcf	3,6	;RP1=0, select bank0
  2434  05D8  00CF               	movwf	___flmul@temp+1
  2435  05D9  0870               	movf	?__Umul8_16,w
  2436  05DA  00CE               	movwf	___flmul@temp
  2437  05DB                     l1639:	
  2438  05DB  084E               	movf	___flmul@temp,w
  2439  05DC  00BE               	movwf	??___flmul
  2440  05DD  084F               	movf	___flmul@temp+1,w
  2441  05DE  00BF               	movwf	??___flmul+1
  2442  05DF  01C0               	clrf	??___flmul+2
  2443  05E0  01C1               	clrf	??___flmul+3
  2444  05E1  083E               	movf	??___flmul,w
  2445  05E2  07C4               	addwf	___flmul@grs,f
  2446  05E3  083F               	movf	??___flmul+1,w
  2447  05E4  1103               	clrz
  2448  05E5  1803               	skipnc
  2449  05E6  3E01               	addlw	1
  2450  05E7  1903               	skipnz
  2451  05E8  2DEA               	goto	u2001
  2452  05E9  07C5               	addwf	___flmul@grs+1,f
  2453  05EA                     u2001:	
  2454  05EA  0840               	movf	??___flmul+2,w
  2455  05EB  1103               	clrz
  2456  05EC  1803               	skipnc
  2457  05ED  3E01               	addlw	1
  2458  05EE  1903               	skipnz
  2459  05EF  2DF1               	goto	u2002
  2460  05F0  07C6               	addwf	___flmul@grs+2,f
  2461  05F1                     u2002:	
  2462  05F1  0841               	movf	??___flmul+3,w
  2463  05F2  1103               	clrz
  2464  05F3  1803               	skipnc
  2465  05F4  3E01               	addlw	1
  2466  05F5  1903               	skipnz
  2467  05F6  2DF8               	goto	u2003
  2468  05F7  07C7               	addwf	___flmul@grs+3,f
  2469  05F8                     u2003:	
  2470  05F8                     l1641:	
  2471  05F8  0836               	movf	___flmul@b,w
  2472  05F9  00BE               	movwf	??___flmul
  2473  05FA  083E               	movf	??___flmul,w
  2474  05FB  00F0               	movwf	__Umul8_16@multiplicand
  2475  05FC  083B               	movf	___flmul@a+1,w
  2476  05FD  120A  158A  26B8  120A  118A  	fcall	__Umul8_16
  2477  0602  0871               	movf	?__Umul8_16+1,w
  2478  0603  1283               	bcf	3,5	;RP0=0, select bank0
  2479  0604  1303               	bcf	3,6	;RP1=0, select bank0
  2480  0605  00CF               	movwf	___flmul@temp+1
  2481  0606  0870               	movf	?__Umul8_16,w
  2482  0607  00CE               	movwf	___flmul@temp
  2483  0608                     l1643:	
  2484  0608  084E               	movf	___flmul@temp,w
  2485  0609  00BE               	movwf	??___flmul
  2486  060A  084F               	movf	___flmul@temp+1,w
  2487  060B  00BF               	movwf	??___flmul+1
  2488  060C  01C0               	clrf	??___flmul+2
  2489  060D  01C1               	clrf	??___flmul+3
  2490  060E  083E               	movf	??___flmul,w
  2491  060F  07C4               	addwf	___flmul@grs,f
  2492  0610  083F               	movf	??___flmul+1,w
  2493  0611  1103               	clrz
  2494  0612  1803               	skipnc
  2495  0613  3E01               	addlw	1
  2496  0614  1903               	skipnz
  2497  0615  2E17               	goto	u2011
  2498  0616  07C5               	addwf	___flmul@grs+1,f
  2499  0617                     u2011:	
  2500  0617  0840               	movf	??___flmul+2,w
  2501  0618  1103               	clrz
  2502  0619  1803               	skipnc
  2503  061A  3E01               	addlw	1
  2504  061B  1903               	skipnz
  2505  061C  2E1E               	goto	u2012
  2506  061D  07C6               	addwf	___flmul@grs+2,f
  2507  061E                     u2012:	
  2508  061E  0841               	movf	??___flmul+3,w
  2509  061F  1103               	clrz
  2510  0620  1803               	skipnc
  2511  0621  3E01               	addlw	1
  2512  0622  1903               	skipnz
  2513  0623  2E25               	goto	u2013
  2514  0624  07C7               	addwf	___flmul@grs+3,f
  2515  0625                     u2013:	
  2516  0625                     l1645:	
  2517  0625  3008               	movlw	8
  2518  0626  00BE               	movwf	??___flmul
  2519  0627                     u2025:	
  2520  0627  1003               	clrc
  2521  0628  0DC4               	rlf	___flmul@grs,f
  2522  0629  0DC5               	rlf	___flmul@grs+1,f
  2523  062A  0DC6               	rlf	___flmul@grs+2,f
  2524  062B  0DC7               	rlf	___flmul@grs+3,f
  2525  062C  0BBE               	decfsz	??___flmul,f
  2526  062D  2E27               	goto	u2025
  2527  062E  0836               	movf	___flmul@b,w
  2528  062F  00BE               	movwf	??___flmul
  2529  0630  083E               	movf	??___flmul,w
  2530  0631  00F0               	movwf	__Umul8_16@multiplicand
  2531  0632  083A               	movf	___flmul@a,w
  2532  0633  120A  158A  26B8  120A  118A  	fcall	__Umul8_16
  2533  0638  0871               	movf	?__Umul8_16+1,w
  2534  0639  1283               	bcf	3,5	;RP0=0, select bank0
  2535  063A  1303               	bcf	3,6	;RP1=0, select bank0
  2536  063B  00CF               	movwf	___flmul@temp+1
  2537  063C  0870               	movf	?__Umul8_16,w
  2538  063D  00CE               	movwf	___flmul@temp
  2539  063E                     l1647:	
  2540  063E  084E               	movf	___flmul@temp,w
  2541  063F  00BE               	movwf	??___flmul
  2542  0640  084F               	movf	___flmul@temp+1,w
  2543  0641  00BF               	movwf	??___flmul+1
  2544  0642  01C0               	clrf	??___flmul+2
  2545  0643  01C1               	clrf	??___flmul+3
  2546  0644  083E               	movf	??___flmul,w
  2547  0645  07C4               	addwf	___flmul@grs,f
  2548  0646  083F               	movf	??___flmul+1,w
  2549  0647  1103               	clrz
  2550  0648  1803               	skipnc
  2551  0649  3E01               	addlw	1
  2552  064A  1903               	skipnz
  2553  064B  2E4D               	goto	u2031
  2554  064C  07C5               	addwf	___flmul@grs+1,f
  2555  064D                     u2031:	
  2556  064D  0840               	movf	??___flmul+2,w
  2557  064E  1103               	clrz
  2558  064F  1803               	skipnc
  2559  0650  3E01               	addlw	1
  2560  0651  1903               	skipnz
  2561  0652  2E54               	goto	u2032
  2562  0653  07C6               	addwf	___flmul@grs+2,f
  2563  0654                     u2032:	
  2564  0654  0841               	movf	??___flmul+3,w
  2565  0655  1103               	clrz
  2566  0656  1803               	skipnc
  2567  0657  3E01               	addlw	1
  2568  0658  1903               	skipnz
  2569  0659  2E5B               	goto	u2033
  2570  065A  07C7               	addwf	___flmul@grs+3,f
  2571  065B                     u2033:	
  2572  065B                     l1649:	
  2573  065B  0837               	movf	___flmul@b+1,w
  2574  065C  00BE               	movwf	??___flmul
  2575  065D  083E               	movf	??___flmul,w
  2576  065E  00F0               	movwf	__Umul8_16@multiplicand
  2577  065F  083C               	movf	___flmul@a+2,w
  2578  0660  120A  158A  26B8  120A  118A  	fcall	__Umul8_16
  2579  0665  0871               	movf	?__Umul8_16+1,w
  2580  0666  1283               	bcf	3,5	;RP0=0, select bank0
  2581  0667  1303               	bcf	3,6	;RP1=0, select bank0
  2582  0668  00CF               	movwf	___flmul@temp+1
  2583  0669  0870               	movf	?__Umul8_16,w
  2584  066A  00CE               	movwf	___flmul@temp
  2585  066B  084E               	movf	___flmul@temp,w
  2586  066C  00BE               	movwf	??___flmul
  2587  066D  084F               	movf	___flmul@temp+1,w
  2588  066E  00BF               	movwf	??___flmul+1
  2589  066F  01C0               	clrf	??___flmul+2
  2590  0670  01C1               	clrf	??___flmul+3
  2591  0671  083E               	movf	??___flmul,w
  2592  0672  07CA               	addwf	___flmul@prod,f
  2593  0673  083F               	movf	??___flmul+1,w
  2594  0674  1103               	clrz
  2595  0675  1803               	skipnc
  2596  0676  3E01               	addlw	1
  2597  0677  1903               	skipnz
  2598  0678  2E7A               	goto	u2041
  2599  0679  07CB               	addwf	___flmul@prod+1,f
  2600  067A                     u2041:	
  2601  067A  0840               	movf	??___flmul+2,w
  2602  067B  1103               	clrz
  2603  067C  1803               	skipnc
  2604  067D  3E01               	addlw	1
  2605  067E  1903               	skipnz
  2606  067F  2E81               	goto	u2042
  2607  0680  07CC               	addwf	___flmul@prod+2,f
  2608  0681                     u2042:	
  2609  0681  0841               	movf	??___flmul+3,w
  2610  0682  1103               	clrz
  2611  0683  1803               	skipnc
  2612  0684  3E01               	addlw	1
  2613  0685  1903               	skipnz
  2614  0686  2E88               	goto	u2043
  2615  0687  07CD               	addwf	___flmul@prod+3,f
  2616  0688                     u2043:	
  2617  0688                     l1651:	
  2618  0688  0838               	movf	___flmul@b+2,w
  2619  0689  00BE               	movwf	??___flmul
  2620  068A  083E               	movf	??___flmul,w
  2621  068B  00F0               	movwf	__Umul8_16@multiplicand
  2622  068C  083B               	movf	___flmul@a+1,w
  2623  068D  120A  158A  26B8  120A  118A  	fcall	__Umul8_16
  2624  0692  0871               	movf	?__Umul8_16+1,w
  2625  0693  1283               	bcf	3,5	;RP0=0, select bank0
  2626  0694  1303               	bcf	3,6	;RP1=0, select bank0
  2627  0695  00CF               	movwf	___flmul@temp+1
  2628  0696  0870               	movf	?__Umul8_16,w
  2629  0697  00CE               	movwf	___flmul@temp
  2630  0698                     l1653:	
  2631  0698  084E               	movf	___flmul@temp,w
  2632  0699  00BE               	movwf	??___flmul
  2633  069A  084F               	movf	___flmul@temp+1,w
  2634  069B  00BF               	movwf	??___flmul+1
  2635  069C  01C0               	clrf	??___flmul+2
  2636  069D  01C1               	clrf	??___flmul+3
  2637  069E  083E               	movf	??___flmul,w
  2638  069F  07CA               	addwf	___flmul@prod,f
  2639  06A0  083F               	movf	??___flmul+1,w
  2640  06A1  1103               	clrz
  2641  06A2  1803               	skipnc
  2642  06A3  3E01               	addlw	1
  2643  06A4  1903               	skipnz
  2644  06A5  2EA7               	goto	u2051
  2645  06A6  07CB               	addwf	___flmul@prod+1,f
  2646  06A7                     u2051:	
  2647  06A7  0840               	movf	??___flmul+2,w
  2648  06A8  1103               	clrz
  2649  06A9  1803               	skipnc
  2650  06AA  3E01               	addlw	1
  2651  06AB  1903               	skipnz
  2652  06AC  2EAE               	goto	u2052
  2653  06AD  07CC               	addwf	___flmul@prod+2,f
  2654  06AE                     u2052:	
  2655  06AE  0841               	movf	??___flmul+3,w
  2656  06AF  1103               	clrz
  2657  06B0  1803               	skipnc
  2658  06B1  3E01               	addlw	1
  2659  06B2  1903               	skipnz
  2660  06B3  2EB5               	goto	u2053
  2661  06B4  07CD               	addwf	___flmul@prod+3,f
  2662  06B5                     u2053:	
  2663  06B5  0838               	movf	___flmul@b+2,w
  2664  06B6  00BE               	movwf	??___flmul
  2665  06B7  083E               	movf	??___flmul,w
  2666  06B8  00F0               	movwf	__Umul8_16@multiplicand
  2667  06B9  083C               	movf	___flmul@a+2,w
  2668  06BA  120A  158A  26B8  120A  118A  	fcall	__Umul8_16
  2669  06BF  0871               	movf	?__Umul8_16+1,w
  2670  06C0  1283               	bcf	3,5	;RP0=0, select bank0
  2671  06C1  1303               	bcf	3,6	;RP1=0, select bank0
  2672  06C2  00CF               	movwf	___flmul@temp+1
  2673  06C3  0870               	movf	?__Umul8_16,w
  2674  06C4  00CE               	movwf	___flmul@temp
  2675  06C5                     l1655:	
  2676  06C5  084E               	movf	___flmul@temp,w
  2677  06C6  00BE               	movwf	??___flmul
  2678  06C7  084F               	movf	___flmul@temp+1,w
  2679  06C8  00BF               	movwf	??___flmul+1
  2680  06C9  01C0               	clrf	??___flmul+2
  2681  06CA  01C1               	clrf	??___flmul+3
  2682  06CB  3008               	movlw	8
  2683  06CC                     u2065:	
  2684  06CC  1003               	clrc
  2685  06CD  0DBE               	rlf	??___flmul,f
  2686  06CE  0DBF               	rlf	??___flmul+1,f
  2687  06CF  0DC0               	rlf	??___flmul+2,f
  2688  06D0  0DC1               	rlf	??___flmul+3,f
  2689  06D1                     u2060:	
  2690  06D1  3EFF               	addlw	-1
  2691  06D2  1D03               	skipz
  2692  06D3  2ECC               	goto	u2065
  2693  06D4  083E               	movf	??___flmul,w
  2694  06D5  07CA               	addwf	___flmul@prod,f
  2695  06D6  083F               	movf	??___flmul+1,w
  2696  06D7  1103               	clrz
  2697  06D8  1803               	skipnc
  2698  06D9  3E01               	addlw	1
  2699  06DA  1903               	skipnz
  2700  06DB  2EDD               	goto	u2071
  2701  06DC  07CB               	addwf	___flmul@prod+1,f
  2702  06DD                     u2071:	
  2703  06DD  0840               	movf	??___flmul+2,w
  2704  06DE  1103               	clrz
  2705  06DF  1803               	skipnc
  2706  06E0  3E01               	addlw	1
  2707  06E1  1903               	skipnz
  2708  06E2  2EE4               	goto	u2072
  2709  06E3  07CC               	addwf	___flmul@prod+2,f
  2710  06E4                     u2072:	
  2711  06E4  0841               	movf	??___flmul+3,w
  2712  06E5  1103               	clrz
  2713  06E6  1803               	skipnc
  2714  06E7  3E01               	addlw	1
  2715  06E8  1903               	skipnz
  2716  06E9  2EEB               	goto	u2073
  2717  06EA  07CD               	addwf	___flmul@prod+3,f
  2718  06EB                     u2073:	
  2719  06EB                     l1657:	
  2720  06EB  0844               	movf	___flmul@grs,w
  2721  06EC  00BE               	movwf	??___flmul
  2722  06ED  0845               	movf	___flmul@grs+1,w
  2723  06EE  00BF               	movwf	??___flmul+1
  2724  06EF  0846               	movf	___flmul@grs+2,w
  2725  06F0  00C0               	movwf	??___flmul+2
  2726  06F1  0847               	movf	___flmul@grs+3,w
  2727  06F2  00C1               	movwf	??___flmul+3
  2728  06F3  3018               	movlw	24
  2729  06F4                     u2085:	
  2730  06F4  1003               	clrc
  2731  06F5  0CC1               	rrf	??___flmul+3,f
  2732  06F6  0CC0               	rrf	??___flmul+2,f
  2733  06F7  0CBF               	rrf	??___flmul+1,f
  2734  06F8  0CBE               	rrf	??___flmul,f
  2735  06F9                     u2080:	
  2736  06F9  3EFF               	addlw	-1
  2737  06FA  1D03               	skipz
  2738  06FB  2EF4               	goto	u2085
  2739  06FC  083E               	movf	??___flmul,w
  2740  06FD  07CA               	addwf	___flmul@prod,f
  2741  06FE  083F               	movf	??___flmul+1,w
  2742  06FF  1103               	clrz
  2743  0700  1803               	skipnc
  2744  0701  3E01               	addlw	1
  2745  0702  1903               	skipnz
  2746  0703  2F05               	goto	u2091
  2747  0704  07CB               	addwf	___flmul@prod+1,f
  2748  0705                     u2091:	
  2749  0705  0840               	movf	??___flmul+2,w
  2750  0706  1103               	clrz
  2751  0707  1803               	skipnc
  2752  0708  3E01               	addlw	1
  2753  0709  1903               	skipnz
  2754  070A  2F0C               	goto	u2092
  2755  070B  07CC               	addwf	___flmul@prod+2,f
  2756  070C                     u2092:	
  2757  070C  0841               	movf	??___flmul+3,w
  2758  070D  1103               	clrz
  2759  070E  1803               	skipnc
  2760  070F  3E01               	addlw	1
  2761  0710  1903               	skipnz
  2762  0711  2F13               	goto	u2093
  2763  0712  07CD               	addwf	___flmul@prod+3,f
  2764  0713                     u2093:	
  2765  0713                     l1659:	
  2766  0713  3008               	movlw	8
  2767  0714  00BE               	movwf	??___flmul
  2768  0715                     u2105:	
  2769  0715  1003               	clrc
  2770  0716  0DC4               	rlf	___flmul@grs,f
  2771  0717  0DC5               	rlf	___flmul@grs+1,f
  2772  0718  0DC6               	rlf	___flmul@grs+2,f
  2773  0719  0DC7               	rlf	___flmul@grs+3,f
  2774  071A  0BBE               	decfsz	??___flmul,f
  2775  071B  2F15               	goto	u2105
  2776  071C                     l1661:	
  2777  071C  0849               	movf	___flmul@bexp,w
  2778  071D  0748               	addwf	___flmul@aexp,w
  2779  071E  00BE               	movwf	??___flmul
  2780  071F  01BF               	clrf	??___flmul+1
  2781  0720  0DBF               	rlf	??___flmul+1,f
  2782  0721  083E               	movf	??___flmul,w
  2783  0722  3E82               	addlw	130
  2784  0723  00CE               	movwf	___flmul@temp
  2785  0724  083F               	movf	??___flmul+1,w
  2786  0725  1803               	skipnc
  2787  0726  3E01               	addlw	1
  2788  0727  3EFF               	addlw	255
  2789  0728  00CF               	movwf	___flmul@temp+1
  2790  0729  2F47               	goto	l1673
  2791  072A                     l1663:	
  2792  072A  3001               	movlw	1
  2793  072B  00BE               	movwf	??___flmul
  2794  072C                     u2115:	
  2795  072C  1003               	clrc
  2796  072D  0DCA               	rlf	___flmul@prod,f
  2797  072E  0DCB               	rlf	___flmul@prod+1,f
  2798  072F  0DCC               	rlf	___flmul@prod+2,f
  2799  0730  0DCD               	rlf	___flmul@prod+3,f
  2800  0731  0BBE               	decfsz	??___flmul,f
  2801  0732  2F2C               	goto	u2115
  2802  0733                     l1665:	
  2803  0733  1FC7               	btfss	___flmul@grs+3,7
  2804  0734  2F36               	goto	u2121
  2805  0735  2F37               	goto	u2120
  2806  0736                     u2121:	
  2807  0736  2F38               	goto	l1669
  2808  0737                     u2120:	
  2809  0737                     l1667:	
  2810  0737  144A               	bsf	___flmul@prod,0
  2811  0738                     l1669:	
  2812  0738  3001               	movlw	1
  2813  0739  00BE               	movwf	??___flmul
  2814  073A                     u2135:	
  2815  073A  1003               	clrc
  2816  073B  0DC4               	rlf	___flmul@grs,f
  2817  073C  0DC5               	rlf	___flmul@grs+1,f
  2818  073D  0DC6               	rlf	___flmul@grs+2,f
  2819  073E  0DC7               	rlf	___flmul@grs+3,f
  2820  073F  0BBE               	decfsz	??___flmul,f
  2821  0740  2F3A               	goto	u2135
  2822  0741                     l1671:	
  2823  0741  30FF               	movlw	255
  2824  0742  07CE               	addwf	___flmul@temp,f
  2825  0743  1803               	skipnc
  2826  0744  0ACF               	incf	___flmul@temp+1,f
  2827  0745  30FF               	movlw	255
  2828  0746  07CF               	addwf	___flmul@temp+1,f
  2829  0747                     l1673:	
  2830  0747  1FCC               	btfss	___flmul@prod+2,7
  2831  0748  2F4A               	goto	u2141
  2832  0749  2F4B               	goto	u2140
  2833  074A                     u2141:	
  2834  074A  2F2A               	goto	l1663
  2835  074B                     u2140:	
  2836  074B                     l1675:	
  2837  074B  01C8               	clrf	___flmul@aexp
  2838  074C                     l1677:	
  2839  074C  1FC7               	btfss	___flmul@grs+3,7
  2840  074D  2F4F               	goto	u2151
  2841  074E  2F50               	goto	u2150
  2842  074F                     u2151:	
  2843  074F  2F6C               	goto	l1685
  2844  0750                     u2150:	
  2845  0750                     l1679:	
  2846  0750  30FF               	movlw	255
  2847  0751  0544               	andwf	___flmul@grs,w
  2848  0752  00BE               	movwf	??___flmul
  2849  0753  30FF               	movlw	255
  2850  0754  0545               	andwf	___flmul@grs+1,w
  2851  0755  00BF               	movwf	??___flmul+1
  2852  0756  30FF               	movlw	255
  2853  0757  0546               	andwf	___flmul@grs+2,w
  2854  0758  00C0               	movwf	??___flmul+2
  2855  0759  307F               	movlw	127
  2856  075A  0547               	andwf	___flmul@grs+3,w
  2857  075B  00C1               	movwf	??___flmul+3
  2858  075C  0841               	movf	??___flmul+3,w
  2859  075D  0440               	iorwf	??___flmul+2,w
  2860  075E  043F               	iorwf	??___flmul+1,w
  2861  075F  043E               	iorwf	??___flmul,w
  2862  0760  1903               	skipnz
  2863  0761  2F63               	goto	u2161
  2864  0762  2F64               	goto	u2160
  2865  0763                     u2161:	
  2866  0763  2F67               	goto	l566
  2867  0764                     u2160:	
  2868  0764                     l1681:	
  2869  0764  01C8               	clrf	___flmul@aexp
  2870  0765  0AC8               	incf	___flmul@aexp,f
  2871  0766  2F6C               	goto	l1685
  2872  0767                     l566:	
  2873  0767  1C4A               	btfss	___flmul@prod,0
  2874  0768  2F6A               	goto	u2171
  2875  0769  2F6B               	goto	u2170
  2876  076A                     u2171:	
  2877  076A  2F6C               	goto	l1685
  2878  076B                     u2170:	
  2879  076B  2F64               	goto	l1681
  2880  076C                     l1685:	
  2881  076C  0848               	movf	___flmul@aexp,w
  2882  076D  1903               	btfsc	3,2
  2883  076E  2F70               	goto	u2181
  2884  076F  2F71               	goto	u2180
  2885  0770                     u2181:	
  2886  0770  2FA2               	goto	l1695
  2887  0771                     u2180:	
  2888  0771                     l1687:	
  2889  0771  3001               	movlw	1
  2890  0772  07CA               	addwf	___flmul@prod,f
  2891  0773  3000               	movlw	0
  2892  0774  1803               	skipnc
  2893  0775  3001               	movlw	1
  2894  0776  07CB               	addwf	___flmul@prod+1,f
  2895  0777  3000               	movlw	0
  2896  0778  1803               	skipnc
  2897  0779  3001               	movlw	1
  2898  077A  07CC               	addwf	___flmul@prod+2,f
  2899  077B  3000               	movlw	0
  2900  077C  1803               	skipnc
  2901  077D  3001               	movlw	1
  2902  077E  07CD               	addwf	___flmul@prod+3,f
  2903  077F                     l1689:	
  2904  077F  1C4D               	btfss	___flmul@prod+3,0
  2905  0780  2F82               	goto	u2191
  2906  0781  2F83               	goto	u2190
  2907  0782                     u2191:	
  2908  0782  2FA2               	goto	l1695
  2909  0783                     u2190:	
  2910  0783                     l1691:	
  2911  0783  084A               	movf	___flmul@prod,w
  2912  0784  00BE               	movwf	??___flmul
  2913  0785  084B               	movf	___flmul@prod+1,w
  2914  0786  00BF               	movwf	??___flmul+1
  2915  0787  084C               	movf	___flmul@prod+2,w
  2916  0788  00C0               	movwf	??___flmul+2
  2917  0789  084D               	movf	___flmul@prod+3,w
  2918  078A  00C1               	movwf	??___flmul+3
  2919  078B  3001               	movlw	1
  2920  078C  00C2               	movwf	??___flmul+4
  2921  078D                     u2205:	
  2922  078D  0D41               	rlf	??___flmul+3,w
  2923  078E  0CC1               	rrf	??___flmul+3,f
  2924  078F  0CC0               	rrf	??___flmul+2,f
  2925  0790  0CBF               	rrf	??___flmul+1,f
  2926  0791  0CBE               	rrf	??___flmul,f
  2927  0792                     u2200:	
  2928  0792  0BC2               	decfsz	??___flmul+4,f
  2929  0793  2F8D               	goto	u2205
  2930  0794  0841               	movf	??___flmul+3,w
  2931  0795  00CD               	movwf	___flmul@prod+3
  2932  0796  0840               	movf	??___flmul+2,w
  2933  0797  00CC               	movwf	___flmul@prod+2
  2934  0798  083F               	movf	??___flmul+1,w
  2935  0799  00CB               	movwf	___flmul@prod+1
  2936  079A  083E               	movf	??___flmul,w
  2937  079B  00CA               	movwf	___flmul@prod
  2938  079C                     l1693:	
  2939  079C  3001               	movlw	1
  2940  079D  07CE               	addwf	___flmul@temp,f
  2941  079E  1803               	skipnc
  2942  079F  0ACF               	incf	___flmul@temp+1,f
  2943  07A0  3000               	movlw	0
  2944  07A1  07CF               	addwf	___flmul@temp+1,f
  2945  07A2                     l1695:	
  2946  07A2  084F               	movf	___flmul@temp+1,w
  2947  07A3  3A80               	xorlw	128
  2948  07A4  00FF               	movwf	btemp+1
  2949  07A5  3080               	movlw	128
  2950  07A6  027F               	subwf	btemp+1,w
  2951  07A7  1D03               	skipz
  2952  07A8  2FAB               	goto	u2215
  2953  07A9  30FF               	movlw	255
  2954  07AA  024E               	subwf	___flmul@temp,w
  2955  07AB                     u2215:	
  2956  07AB  1C03               	skipc
  2957  07AC  2FAE               	goto	u2211
  2958  07AD  2FAF               	goto	u2210
  2959  07AE                     u2211:	
  2960  07AE  2FBA               	goto	l1699
  2961  07AF                     u2210:	
  2962  07AF                     l1697:	
  2963  07AF  307F               	movlw	127
  2964  07B0  1283               	bcf	3,5	;RP0=0, select bank0
  2965  07B1  1303               	bcf	3,6	;RP1=0, select bank0
  2966  07B2  00CD               	movwf	___flmul@prod+3
  2967  07B3  3080               	movlw	128
  2968  07B4  00CC               	movwf	___flmul@prod+2
  2969  07B5  3000               	movlw	0
  2970  07B6  00CB               	movwf	___flmul@prod+1
  2971  07B7  3000               	movlw	0
  2972  07B8  00CA               	movwf	___flmul@prod
  2973  07B9  2FEF               	goto	l572
  2974  07BA                     l1699:	
  2975  07BA  1283               	bcf	3,5	;RP0=0, select bank0
  2976  07BB  1303               	bcf	3,6	;RP1=0, select bank0
  2977  07BC  084F               	movf	___flmul@temp+1,w
  2978  07BD  3A80               	xorlw	128
  2979  07BE  00FF               	movwf	btemp+1
  2980  07BF  3080               	movlw	128
  2981  07C0  027F               	subwf	btemp+1,w
  2982  07C1  1D03               	skipz
  2983  07C2  2FC5               	goto	u2225
  2984  07C3  3001               	movlw	1
  2985  07C4  024E               	subwf	___flmul@temp,w
  2986  07C5                     u2225:	
  2987  07C5  1803               	skipnc
  2988  07C6  2FC8               	goto	u2221
  2989  07C7  2FC9               	goto	u2220
  2990  07C8                     u2221:	
  2991  07C8  2FD5               	goto	l1705
  2992  07C9                     u2220:	
  2993  07C9                     l1701:	
  2994  07C9  3000               	movlw	0
  2995  07CA  1283               	bcf	3,5	;RP0=0, select bank0
  2996  07CB  1303               	bcf	3,6	;RP1=0, select bank0
  2997  07CC  00CD               	movwf	___flmul@prod+3
  2998  07CD  3000               	movlw	0
  2999  07CE  00CC               	movwf	___flmul@prod+2
  3000  07CF  3000               	movlw	0
  3001  07D0  00CB               	movwf	___flmul@prod+1
  3002  07D1  3000               	movlw	0
  3003  07D2  00CA               	movwf	___flmul@prod
  3004  07D3                     l1703:	
  3005  07D3  01C3               	clrf	___flmul@sign
  3006  07D4  2FEF               	goto	l572
  3007  07D5                     l1705:	
  3008  07D5  1283               	bcf	3,5	;RP0=0, select bank0
  3009  07D6  1303               	bcf	3,6	;RP1=0, select bank0
  3010  07D7  084E               	movf	___flmul@temp,w
  3011  07D8  00BE               	movwf	??___flmul
  3012  07D9  083E               	movf	??___flmul,w
  3013  07DA  00C9               	movwf	___flmul@bexp
  3014  07DB  30FF               	movlw	255
  3015  07DC  05CA               	andwf	___flmul@prod,f
  3016  07DD  30FF               	movlw	255
  3017  07DE  05CB               	andwf	___flmul@prod+1,f
  3018  07DF  307F               	movlw	127
  3019  07E0  05CC               	andwf	___flmul@prod+2,f
  3020  07E1  3000               	movlw	0
  3021  07E2  05CD               	andwf	___flmul@prod+3,f
  3022  07E3                     l1707:	
  3023  07E3  1C49               	btfss	___flmul@bexp,0
  3024  07E4  2FE6               	goto	u2231
  3025  07E5  2FE7               	goto	u2230
  3026  07E6                     u2231:	
  3027  07E6  2FE8               	goto	l1711
  3028  07E7                     u2230:	
  3029  07E7                     l1709:	
  3030  07E7  17CC               	bsf	___flmul@prod+2,7
  3031  07E8                     l1711:	
  3032  07E8  0849               	movf	___flmul@bexp,w
  3033  07E9  00BE               	movwf	??___flmul
  3034  07EA  1003               	clrc
  3035  07EB  0C3E               	rrf	??___flmul,w
  3036  07EC  00BF               	movwf	??___flmul+1
  3037  07ED  083F               	movf	??___flmul+1,w
  3038  07EE  00CD               	movwf	___flmul@prod+3
  3039  07EF                     l572:	
  3040  07EF  0843               	movf	___flmul@sign,w
  3041  07F0  00BE               	movwf	??___flmul
  3042  07F1  083E               	movf	??___flmul,w
  3043  07F2  04CD               	iorwf	___flmul@prod+3,f
  3044  07F3                     l1713:	
  3045  07F3  084D               	movf	___flmul@prod+3,w
  3046  07F4  00B9               	movwf	?___flmul+3
  3047  07F5  084C               	movf	___flmul@prod+2,w
  3048  07F6  00B8               	movwf	?___flmul+2
  3049  07F7  084B               	movf	___flmul@prod+1,w
  3050  07F8  00B7               	movwf	?___flmul+1
  3051  07F9  084A               	movf	___flmul@prod,w
  3052  07FA  00B6               	movwf	?___flmul
  3053  07FB                     l560:	
  3054  07FB  0008               	return
  3055  07FC                     __end_of___flmul:	
  3056                           
  3057                           	psect	text11
  3058  0EB8                     __ptext11:	
  3059 ;; *************** function __Umul8_16 *****************
  3060 ;; Defined at:
  3061 ;;		line 4 in file "/opt/microchip/xc8/v2.10/pic/sources/c90/common/Umul8_16.c"
  3062 ;; Parameters:    Size  Location     Type
  3063 ;;  multiplier      1    wreg     unsigned char 
  3064 ;;  multiplicand    1    0[COMMON] unsigned char 
  3065 ;; Auto vars:     Size  Location     Type
  3066 ;;  multiplier      1    8[COMMON] unsigned char 
  3067 ;;  word_mpld       2    6[COMMON] unsigned int 
  3068 ;;  product         2    4[COMMON] unsigned int 
  3069 ;; Return value:  Size  Location     Type
  3070 ;;                  2    0[COMMON] unsigned int 
  3071 ;; Registers used:
  3072 ;;		wreg, status,2, status,0
  3073 ;; Tracked objects:
  3074 ;;		On entry : 0/0
  3075 ;;		On exit  : 0/0
  3076 ;;		Unchanged: 0/0
  3077 ;; Data sizes:     COMMON   BANK0   BANK1   BANK3   BANK2
  3078 ;;      Params:         2       0       0       0       0
  3079 ;;      Locals:         5       0       0       0       0
  3080 ;;      Temps:          2       0       0       0       0
  3081 ;;      Totals:         9       0       0       0       0
  3082 ;;Total ram usage:        9 bytes
  3083 ;; Hardware stack levels used:    1
  3084 ;; This function calls:
  3085 ;;		Nothing
  3086 ;; This function is called by:
  3087 ;;		___flmul
  3088 ;; This function uses a non-reentrant model
  3089 ;;
  3090                           
  3091                           
  3092                           ;psect for function __Umul8_16
  3093  0EB8                     __Umul8_16:	
  3094                           
  3095                           ;incstack = 0
  3096                           ; Regs used in __Umul8_16: [wreg+status,2+status,0]
  3097                           ;__Umul8_16@multiplier stored from wreg
  3098  0EB8  00F8               	movwf	__Umul8_16@multiplier
  3099  0EB9                     l1285:	
  3100  0EB9  01F4               	clrf	__Umul8_16@product
  3101  0EBA  01F5               	clrf	__Umul8_16@product+1
  3102  0EBB                     l1287:	
  3103  0EBB  0870               	movf	__Umul8_16@multiplicand,w
  3104  0EBC  00F2               	movwf	??__Umul8_16
  3105  0EBD  01F3               	clrf	??__Umul8_16+1
  3106  0EBE  0872               	movf	??__Umul8_16,w
  3107  0EBF  00F6               	movwf	__Umul8_16@word_mpld
  3108  0EC0  0873               	movf	??__Umul8_16+1,w
  3109  0EC1  00F7               	movwf	__Umul8_16@word_mpld+1
  3110  0EC2                     l1289:	
  3111  0EC2  1C78               	btfss	__Umul8_16@multiplier,0
  3112  0EC3  2EC5               	goto	u1241
  3113  0EC4  2EC6               	goto	u1240
  3114  0EC5                     u1241:	
  3115  0EC5  2ECC               	goto	l617
  3116  0EC6                     u1240:	
  3117  0EC6                     l1291:	
  3118  0EC6  0876               	movf	__Umul8_16@word_mpld,w
  3119  0EC7  07F4               	addwf	__Umul8_16@product,f
  3120  0EC8  1803               	skipnc
  3121  0EC9  0AF5               	incf	__Umul8_16@product+1,f
  3122  0ECA  0877               	movf	__Umul8_16@word_mpld+1,w
  3123  0ECB  07F5               	addwf	__Umul8_16@product+1,f
  3124  0ECC                     l617:	
  3125  0ECC  3001               	movlw	1
  3126  0ECD                     u1255:	
  3127  0ECD  1003               	clrc
  3128  0ECE  0DF6               	rlf	__Umul8_16@word_mpld,f
  3129  0ECF  0DF7               	rlf	__Umul8_16@word_mpld+1,f
  3130  0ED0  3EFF               	addlw	-1
  3131  0ED1  1D03               	skipz
  3132  0ED2  2ECD               	goto	u1255
  3133  0ED3  1003               	clrc
  3134  0ED4  0CF8               	rrf	__Umul8_16@multiplier,f
  3135  0ED5                     l1293:	
  3136  0ED5  0878               	movf	__Umul8_16@multiplier,w
  3137  0ED6  1D03               	btfss	3,2
  3138  0ED7  2ED9               	goto	u1261
  3139  0ED8  2EDA               	goto	u1260
  3140  0ED9                     u1261:	
  3141  0ED9  2EC2               	goto	l1289
  3142  0EDA                     u1260:	
  3143  0EDA                     l1295:	
  3144  0EDA  0875               	movf	__Umul8_16@product+1,w
  3145  0EDB  00F1               	movwf	?__Umul8_16+1
  3146  0EDC  0874               	movf	__Umul8_16@product,w
  3147  0EDD  00F0               	movwf	?__Umul8_16
  3148  0EDE                     l619:	
  3149  0EDE  0008               	return
  3150  0EDF                     __end_of__Umul8_16:	
  3151                           
  3152                           	psect	text12
  3153  02B8                     __ptext12:	
  3154 ;; *************** function ___fldiv *****************
  3155 ;; Defined at:
  3156 ;;		line 8 in file "/opt/microchip/xc8/v2.10/pic/sources/c90/common/sprcdiv.c"
  3157 ;; Parameters:    Size  Location     Type
  3158 ;;  a               4    0[COMMON] unsigned int 
  3159 ;;  b               4    4[COMMON] unsigned int 
  3160 ;; Auto vars:     Size  Location     Type
  3161 ;;  grs             4    7[BANK0 ] unsigned long 
  3162 ;;  rem             4    0[BANK0 ] unsigned long 
  3163 ;;  new_exp         2    5[BANK0 ] int 
  3164 ;;  aexp            1   12[BANK0 ] unsigned char 
  3165 ;;  bexp            1   11[BANK0 ] unsigned char 
  3166 ;;  sign            1    4[BANK0 ] unsigned char 
  3167 ;; Return value:  Size  Location     Type
  3168 ;;                  4    0[COMMON] unsigned char 
  3169 ;; Registers used:
  3170 ;;		wreg, status,2, status,0, btemp+1
  3171 ;; Tracked objects:
  3172 ;;		On entry : 0/0
  3173 ;;		On exit  : 0/0
  3174 ;;		Unchanged: 0/0
  3175 ;; Data sizes:     COMMON   BANK0   BANK1   BANK3   BANK2
  3176 ;;      Params:         8       0       0       0       0
  3177 ;;      Locals:         0      13       0       0       0
  3178 ;;      Temps:          5       0       0       0       0
  3179 ;;      Totals:        13      13       0       0       0
  3180 ;;Total ram usage:       26 bytes
  3181 ;; Hardware stack levels used:    1
  3182 ;; This function calls:
  3183 ;;		Nothing
  3184 ;; This function is called by:
  3185 ;;		_display
  3186 ;; This function uses a non-reentrant model
  3187 ;;
  3188                           
  3189                           
  3190                           ;psect for function ___fldiv
  3191  02B8                     ___fldiv:	
  3192  02B8                     l1435:	
  3193                           ;incstack = 0
  3194                           ; Regs used in ___fldiv: [wreg+status,2+status,0+btemp+1]
  3195                           
  3196  02B8  0877               	movf	___fldiv@b+3,w
  3197  02B9  3980               	andlw	128
  3198  02BA  00F8               	movwf	??___fldiv
  3199  02BB  0878               	movf	??___fldiv,w
  3200  02BC  1283               	bcf	3,5	;RP0=0, select bank0
  3201  02BD  1303               	bcf	3,6	;RP1=0, select bank0
  3202  02BE  00A4               	movwf	___fldiv@sign
  3203  02BF                     l1437:	
  3204  02BF  0877               	movf	___fldiv@b+3,w
  3205  02C0  00F8               	movwf	??___fldiv
  3206  02C1  0778               	addwf	??___fldiv,w
  3207  02C2  00F9               	movwf	??___fldiv+1
  3208  02C3  0879               	movf	??___fldiv+1,w
  3209  02C4  00AB               	movwf	___fldiv@bexp
  3210  02C5                     l1439:	
  3211  02C5  1FF6               	btfss	___fldiv@b+2,7
  3212  02C6  2AC8               	goto	u1571
  3213  02C7  2AC9               	goto	u1570
  3214  02C8                     u1571:	
  3215  02C8  2ACA               	goto	l1443
  3216  02C9                     u1570:	
  3217  02C9                     l1441:	
  3218  02C9  142B               	bsf	___fldiv@bexp,0
  3219  02CA                     l1443:	
  3220  02CA  082B               	movf	___fldiv@bexp,w
  3221  02CB  1903               	btfsc	3,2
  3222  02CC  2ACE               	goto	u1581
  3223  02CD  2ACF               	goto	u1580
  3224  02CE                     u1581:	
  3225  02CE  2ADF               	goto	l1453
  3226  02CF                     u1580:	
  3227  02CF                     l1445:	
  3228  02CF  0A2B               	incf	___fldiv@bexp,w
  3229  02D0  1D03               	btfss	3,2
  3230  02D1  2AD3               	goto	u1591
  3231  02D2  2AD4               	goto	u1590
  3232  02D3                     u1591:	
  3233  02D3  2ADC               	goto	l1449
  3234  02D4                     u1590:	
  3235  02D4                     l1447:	
  3236  02D4  3000               	movlw	0
  3237  02D5  00F7               	movwf	___fldiv@b+3
  3238  02D6  3000               	movlw	0
  3239  02D7  00F6               	movwf	___fldiv@b+2
  3240  02D8  3000               	movlw	0
  3241  02D9  00F5               	movwf	___fldiv@b+1
  3242  02DA  3000               	movlw	0
  3243  02DB  00F4               	movwf	___fldiv@b
  3244  02DC                     l1449:	
  3245  02DC  17F6               	bsf	___fldiv@b+2,7
  3246  02DD                     l1451:	
  3247  02DD  01F7               	clrf	___fldiv@b+3
  3248  02DE  2AE7               	goto	l1455
  3249  02DF                     l1453:	
  3250  02DF  3000               	movlw	0
  3251  02E0  00F7               	movwf	___fldiv@b+3
  3252  02E1  3000               	movlw	0
  3253  02E2  00F6               	movwf	___fldiv@b+2
  3254  02E3  3000               	movlw	0
  3255  02E4  00F5               	movwf	___fldiv@b+1
  3256  02E5  3000               	movlw	0
  3257  02E6  00F4               	movwf	___fldiv@b
  3258  02E7                     l1455:	
  3259  02E7  0873               	movf	___fldiv@a+3,w
  3260  02E8  3980               	andlw	128
  3261  02E9  00F8               	movwf	??___fldiv
  3262  02EA  0878               	movf	??___fldiv,w
  3263  02EB  06A4               	xorwf	___fldiv@sign,f
  3264  02EC                     l1457:	
  3265  02EC  0873               	movf	___fldiv@a+3,w
  3266  02ED  00F8               	movwf	??___fldiv
  3267  02EE  0778               	addwf	??___fldiv,w
  3268  02EF  00F9               	movwf	??___fldiv+1
  3269  02F0  0879               	movf	??___fldiv+1,w
  3270  02F1  00AC               	movwf	___fldiv@aexp
  3271  02F2                     l1459:	
  3272  02F2  1FF2               	btfss	___fldiv@a+2,7
  3273  02F3  2AF5               	goto	u1601
  3274  02F4  2AF6               	goto	u1600
  3275  02F5                     u1601:	
  3276  02F5  2AF7               	goto	l1463
  3277  02F6                     u1600:	
  3278  02F6                     l1461:	
  3279  02F6  142C               	bsf	___fldiv@aexp,0
  3280  02F7                     l1463:	
  3281  02F7  082C               	movf	___fldiv@aexp,w
  3282  02F8  1903               	btfsc	3,2
  3283  02F9  2AFB               	goto	u1611
  3284  02FA  2AFC               	goto	u1610
  3285  02FB                     u1611:	
  3286  02FB  2B0C               	goto	l1473
  3287  02FC                     u1610:	
  3288  02FC                     l1465:	
  3289  02FC  0A2C               	incf	___fldiv@aexp,w
  3290  02FD  1D03               	btfss	3,2
  3291  02FE  2B00               	goto	u1621
  3292  02FF  2B01               	goto	u1620
  3293  0300                     u1621:	
  3294  0300  2B09               	goto	l1469
  3295  0301                     u1620:	
  3296  0301                     l1467:	
  3297  0301  3000               	movlw	0
  3298  0302  00F3               	movwf	___fldiv@a+3
  3299  0303  3000               	movlw	0
  3300  0304  00F2               	movwf	___fldiv@a+2
  3301  0305  3000               	movlw	0
  3302  0306  00F1               	movwf	___fldiv@a+1
  3303  0307  3000               	movlw	0
  3304  0308  00F0               	movwf	___fldiv@a
  3305  0309                     l1469:	
  3306  0309  17F2               	bsf	___fldiv@a+2,7
  3307  030A                     l1471:	
  3308  030A  01F3               	clrf	___fldiv@a+3
  3309  030B  2B14               	goto	l520
  3310  030C                     l1473:	
  3311  030C  3000               	movlw	0
  3312  030D  00F3               	movwf	___fldiv@a+3
  3313  030E  3000               	movlw	0
  3314  030F  00F2               	movwf	___fldiv@a+2
  3315  0310  3000               	movlw	0
  3316  0311  00F1               	movwf	___fldiv@a+1
  3317  0312  3000               	movlw	0
  3318  0313  00F0               	movwf	___fldiv@a
  3319  0314                     l520:	
  3320  0314  0873               	movf	___fldiv@a+3,w
  3321  0315  0472               	iorwf	___fldiv@a+2,w
  3322  0316  0471               	iorwf	___fldiv@a+1,w
  3323  0317  0470               	iorwf	___fldiv@a,w
  3324  0318  1D03               	skipz
  3325  0319  2B1B               	goto	u1631
  3326  031A  2B1C               	goto	u1630
  3327  031B                     u1631:	
  3328  031B  2B35               	goto	l1483
  3329  031C                     u1630:	
  3330  031C                     l1475:	
  3331  031C  3000               	movlw	0
  3332  031D  00F7               	movwf	___fldiv@b+3
  3333  031E  3000               	movlw	0
  3334  031F  00F6               	movwf	___fldiv@b+2
  3335  0320  3000               	movlw	0
  3336  0321  00F5               	movwf	___fldiv@b+1
  3337  0322  3000               	movlw	0
  3338  0323  00F4               	movwf	___fldiv@b
  3339  0324  3080               	movlw	128
  3340  0325  04F6               	iorwf	___fldiv@b+2,f
  3341  0326  307F               	movlw	127
  3342  0327  04F7               	iorwf	___fldiv@b+3,f
  3343  0328                     l1477:	
  3344  0328  0824               	movf	___fldiv@sign,w
  3345  0329  00F8               	movwf	??___fldiv
  3346  032A  0878               	movf	??___fldiv,w
  3347  032B  04F7               	iorwf	___fldiv@b+3,f
  3348  032C                     l1479:	
  3349  032C  0877               	movf	___fldiv@b+3,w
  3350  032D  00F3               	movwf	?___fldiv+3
  3351  032E  0876               	movf	___fldiv@b+2,w
  3352  032F  00F2               	movwf	?___fldiv+2
  3353  0330  0875               	movf	___fldiv@b+1,w
  3354  0331  00F1               	movwf	?___fldiv+1
  3355  0332  0874               	movf	___fldiv@b,w
  3356  0333  00F0               	movwf	?___fldiv
  3357  0334  2C9A               	goto	l522
  3358  0335                     l1483:	
  3359  0335  082B               	movf	___fldiv@bexp,w
  3360  0336  1D03               	btfss	3,2
  3361  0337  2B39               	goto	u1641
  3362  0338  2B3A               	goto	u1640
  3363  0339                     u1641:	
  3364  0339  2B43               	goto	l1489
  3365  033A                     u1640:	
  3366  033A                     l1485:	
  3367  033A  3000               	movlw	0
  3368  033B  00F3               	movwf	?___fldiv+3
  3369  033C  3000               	movlw	0
  3370  033D  00F2               	movwf	?___fldiv+2
  3371  033E  3000               	movlw	0
  3372  033F  00F1               	movwf	?___fldiv+1
  3373  0340  3000               	movlw	0
  3374  0341  00F0               	movwf	?___fldiv
  3375  0342  2C9A               	goto	l522
  3376  0343                     l1489:	
  3377  0343  082B               	movf	___fldiv@bexp,w
  3378  0344  00F8               	movwf	??___fldiv
  3379  0345  01F9               	clrf	??___fldiv+1
  3380  0346  0879               	movf	??___fldiv+1,w
  3381  0347  00FB               	movwf	??___fldiv+3
  3382  0348  082C               	movf	___fldiv@aexp,w
  3383  0349  0278               	subwf	??___fldiv,w
  3384  034A  00FA               	movwf	??___fldiv+2
  3385  034B  1C03               	skipc
  3386  034C  03FB               	decf	??___fldiv+3,f
  3387  034D  087A               	movf	??___fldiv+2,w
  3388  034E  3E7F               	addlw	127
  3389  034F  00A5               	movwf	___fldiv@new_exp
  3390  0350  087B               	movf	??___fldiv+3,w
  3391  0351  1803               	skipnc
  3392  0352  3E01               	addlw	1
  3393  0353  3E00               	addlw	0
  3394  0354  00A6               	movwf	___fldiv@new_exp+1
  3395  0355                     l1491:	
  3396  0355  0877               	movf	___fldiv@b+3,w
  3397  0356  00A3               	movwf	___fldiv@rem+3
  3398  0357  0876               	movf	___fldiv@b+2,w
  3399  0358  00A2               	movwf	___fldiv@rem+2
  3400  0359  0875               	movf	___fldiv@b+1,w
  3401  035A  00A1               	movwf	___fldiv@rem+1
  3402  035B  0874               	movf	___fldiv@b,w
  3403  035C  00A0               	movwf	___fldiv@rem
  3404  035D                     l1493:	
  3405  035D  3000               	movlw	0
  3406  035E  00F7               	movwf	___fldiv@b+3
  3407  035F  3000               	movlw	0
  3408  0360  00F6               	movwf	___fldiv@b+2
  3409  0361  3000               	movlw	0
  3410  0362  00F5               	movwf	___fldiv@b+1
  3411  0363  3000               	movlw	0
  3412  0364  00F4               	movwf	___fldiv@b
  3413  0365                     l1495:	
  3414  0365  3000               	movlw	0
  3415  0366  00AA               	movwf	___fldiv@grs+3
  3416  0367  3000               	movlw	0
  3417  0368  00A9               	movwf	___fldiv@grs+2
  3418  0369  3000               	movlw	0
  3419  036A  00A8               	movwf	___fldiv@grs+1
  3420  036B  3000               	movlw	0
  3421  036C  00A7               	movwf	___fldiv@grs
  3422  036D                     l1497:	
  3423  036D  01AC               	clrf	___fldiv@aexp
  3424  036E  2BBF               	goto	l1517
  3425  036F                     l1499:	
  3426  036F  082C               	movf	___fldiv@aexp,w
  3427  0370  1903               	btfsc	3,2
  3428  0371  2B73               	goto	u1651
  3429  0372  2B74               	goto	u1650
  3430  0373                     u1651:	
  3431  0373  2B94               	goto	l1509
  3432  0374                     u1650:	
  3433  0374                     l1501:	
  3434  0374  3001               	movlw	1
  3435  0375  00F8               	movwf	??___fldiv
  3436  0376                     u1665:	
  3437  0376  1003               	clrc
  3438  0377  0DA0               	rlf	___fldiv@rem,f
  3439  0378  0DA1               	rlf	___fldiv@rem+1,f
  3440  0379  0DA2               	rlf	___fldiv@rem+2,f
  3441  037A  0DA3               	rlf	___fldiv@rem+3,f
  3442  037B  0BF8               	decfsz	??___fldiv,f
  3443  037C  2B76               	goto	u1665
  3444  037D  3001               	movlw	1
  3445  037E  00F8               	movwf	??___fldiv
  3446  037F                     u1675:	
  3447  037F  1003               	clrc
  3448  0380  0DF4               	rlf	___fldiv@b,f
  3449  0381  0DF5               	rlf	___fldiv@b+1,f
  3450  0382  0DF6               	rlf	___fldiv@b+2,f
  3451  0383  0DF7               	rlf	___fldiv@b+3,f
  3452  0384  0BF8               	decfsz	??___fldiv,f
  3453  0385  2B7F               	goto	u1675
  3454  0386                     l1503:	
  3455  0386  1FAA               	btfss	___fldiv@grs+3,7
  3456  0387  2B89               	goto	u1681
  3457  0388  2B8A               	goto	u1680
  3458  0389                     u1681:	
  3459  0389  2B8B               	goto	l1507
  3460  038A                     u1680:	
  3461  038A                     l1505:	
  3462  038A  1474               	bsf	___fldiv@b,0
  3463  038B                     l1507:	
  3464  038B  3001               	movlw	1
  3465  038C  00F8               	movwf	??___fldiv
  3466  038D                     u1695:	
  3467  038D  1003               	clrc
  3468  038E  0DA7               	rlf	___fldiv@grs,f
  3469  038F  0DA8               	rlf	___fldiv@grs+1,f
  3470  0390  0DA9               	rlf	___fldiv@grs+2,f
  3471  0391  0DAA               	rlf	___fldiv@grs+3,f
  3472  0392  0BF8               	decfsz	??___fldiv,f
  3473  0393  2B8D               	goto	u1695
  3474  0394                     l1509:	
  3475  0394  0873               	movf	___fldiv@a+3,w
  3476  0395  0223               	subwf	___fldiv@rem+3,w
  3477  0396  1D03               	skipz
  3478  0397  2BA2               	goto	u1705
  3479  0398  0872               	movf	___fldiv@a+2,w
  3480  0399  0222               	subwf	___fldiv@rem+2,w
  3481  039A  1D03               	skipz
  3482  039B  2BA2               	goto	u1705
  3483  039C  0871               	movf	___fldiv@a+1,w
  3484  039D  0221               	subwf	___fldiv@rem+1,w
  3485  039E  1D03               	skipz
  3486  039F  2BA2               	goto	u1705
  3487  03A0  0870               	movf	___fldiv@a,w
  3488  03A1  0220               	subwf	___fldiv@rem,w
  3489  03A2                     u1705:	
  3490  03A2  1C03               	skipc
  3491  03A3  2BA5               	goto	u1701
  3492  03A4  2BA6               	goto	u1700
  3493  03A5                     u1701:	
  3494  03A5  2BBB               	goto	l1515
  3495  03A6                     u1700:	
  3496  03A6                     l1511:	
  3497  03A6  172A               	bsf	___fldiv@grs+3,6
  3498  03A7                     l1513:	
  3499  03A7  0870               	movf	___fldiv@a,w
  3500  03A8  02A0               	subwf	___fldiv@rem,f
  3501  03A9  0871               	movf	___fldiv@a+1,w
  3502  03AA  1C03               	skipc
  3503  03AB  0F71               	incfsz	___fldiv@a+1,w
  3504  03AC  2BAE               	goto	u1715
  3505  03AD  2BAF               	goto	u1716
  3506  03AE                     u1715:	
  3507  03AE  02A1               	subwf	___fldiv@rem+1,f
  3508  03AF                     u1716:	
  3509  03AF  0872               	movf	___fldiv@a+2,w
  3510  03B0  1C03               	skipc
  3511  03B1  0F72               	incfsz	___fldiv@a+2,w
  3512  03B2  2BB4               	goto	u1717
  3513  03B3  2BB5               	goto	u1718
  3514  03B4                     u1717:	
  3515  03B4  02A2               	subwf	___fldiv@rem+2,f
  3516  03B5                     u1718:	
  3517  03B5  0873               	movf	___fldiv@a+3,w
  3518  03B6  1C03               	skipc
  3519  03B7  0F73               	incfsz	___fldiv@a+3,w
  3520  03B8  2BBA               	goto	u1719
  3521  03B9  2BBB               	goto	u1710
  3522  03BA                     u1719:	
  3523  03BA  02A3               	subwf	___fldiv@rem+3,f
  3524  03BB                     u1710:	
  3525  03BB                     l1515:	
  3526  03BB  3001               	movlw	1
  3527  03BC  00F8               	movwf	??___fldiv
  3528  03BD  0878               	movf	??___fldiv,w
  3529  03BE  07AC               	addwf	___fldiv@aexp,f
  3530  03BF                     l1517:	
  3531  03BF  301A               	movlw	26
  3532  03C0  022C               	subwf	___fldiv@aexp,w
  3533  03C1  1C03               	skipc
  3534  03C2  2BC4               	goto	u1721
  3535  03C3  2BC5               	goto	u1720
  3536  03C4                     u1721:	
  3537  03C4  2B6F               	goto	l1499
  3538  03C5                     u1720:	
  3539  03C5                     l1519:	
  3540  03C5  0823               	movf	___fldiv@rem+3,w
  3541  03C6  0422               	iorwf	___fldiv@rem+2,w
  3542  03C7  0421               	iorwf	___fldiv@rem+1,w
  3543  03C8  0420               	iorwf	___fldiv@rem,w
  3544  03C9  1903               	skipnz
  3545  03CA  2BCC               	goto	u1731
  3546  03CB  2BCD               	goto	u1730
  3547  03CC                     u1731:	
  3548  03CC  2BEC               	goto	l1533
  3549  03CD                     u1730:	
  3550  03CD                     l1521:	
  3551  03CD  1427               	bsf	___fldiv@grs,0
  3552  03CE  2BEC               	goto	l1533
  3553  03CF                     l1523:	
  3554  03CF  3001               	movlw	1
  3555  03D0  00F8               	movwf	??___fldiv
  3556  03D1                     u1745:	
  3557  03D1  1003               	clrc
  3558  03D2  0DF4               	rlf	___fldiv@b,f
  3559  03D3  0DF5               	rlf	___fldiv@b+1,f
  3560  03D4  0DF6               	rlf	___fldiv@b+2,f
  3561  03D5  0DF7               	rlf	___fldiv@b+3,f
  3562  03D6  0BF8               	decfsz	??___fldiv,f
  3563  03D7  2BD1               	goto	u1745
  3564  03D8                     l1525:	
  3565  03D8  1FAA               	btfss	___fldiv@grs+3,7
  3566  03D9  2BDB               	goto	u1751
  3567  03DA  2BDC               	goto	u1750
  3568  03DB                     u1751:	
  3569  03DB  2BDD               	goto	l1529
  3570  03DC                     u1750:	
  3571  03DC                     l1527:	
  3572  03DC  1474               	bsf	___fldiv@b,0
  3573  03DD                     l1529:	
  3574  03DD  3001               	movlw	1
  3575  03DE  00F8               	movwf	??___fldiv
  3576  03DF                     u1765:	
  3577  03DF  1003               	clrc
  3578  03E0  0DA7               	rlf	___fldiv@grs,f
  3579  03E1  0DA8               	rlf	___fldiv@grs+1,f
  3580  03E2  0DA9               	rlf	___fldiv@grs+2,f
  3581  03E3  0DAA               	rlf	___fldiv@grs+3,f
  3582  03E4  0BF8               	decfsz	??___fldiv,f
  3583  03E5  2BDF               	goto	u1765
  3584  03E6                     l1531:	
  3585  03E6  30FF               	movlw	255
  3586  03E7  07A5               	addwf	___fldiv@new_exp,f
  3587  03E8  1803               	skipnc
  3588  03E9  0AA6               	incf	___fldiv@new_exp+1,f
  3589  03EA  30FF               	movlw	255
  3590  03EB  07A6               	addwf	___fldiv@new_exp+1,f
  3591  03EC                     l1533:	
  3592  03EC  1FF6               	btfss	___fldiv@b+2,7
  3593  03ED  2BEF               	goto	u1771
  3594  03EE  2BF0               	goto	u1770
  3595  03EF                     u1771:	
  3596  03EF  2BCF               	goto	l1523
  3597  03F0                     u1770:	
  3598  03F0                     l1535:	
  3599  03F0  01AC               	clrf	___fldiv@aexp
  3600  03F1                     l1537:	
  3601  03F1  1FAA               	btfss	___fldiv@grs+3,7
  3602  03F2  2BF4               	goto	u1781
  3603  03F3  2BF5               	goto	u1780
  3604  03F4                     u1781:	
  3605  03F4  2C11               	goto	l1545
  3606  03F5                     u1780:	
  3607  03F5                     l1539:	
  3608  03F5  30FF               	movlw	255
  3609  03F6  0527               	andwf	___fldiv@grs,w
  3610  03F7  00F8               	movwf	??___fldiv
  3611  03F8  30FF               	movlw	255
  3612  03F9  0528               	andwf	___fldiv@grs+1,w
  3613  03FA  00F9               	movwf	??___fldiv+1
  3614  03FB  30FF               	movlw	255
  3615  03FC  0529               	andwf	___fldiv@grs+2,w
  3616  03FD  00FA               	movwf	??___fldiv+2
  3617  03FE  307F               	movlw	127
  3618  03FF  052A               	andwf	___fldiv@grs+3,w
  3619  0400  00FB               	movwf	??___fldiv+3
  3620  0401  087B               	movf	??___fldiv+3,w
  3621  0402  047A               	iorwf	??___fldiv+2,w
  3622  0403  0479               	iorwf	??___fldiv+1,w
  3623  0404  0478               	iorwf	??___fldiv,w
  3624  0405  1903               	skipnz
  3625  0406  2C08               	goto	u1791
  3626  0407  2C09               	goto	u1790
  3627  0408                     u1791:	
  3628  0408  2C0C               	goto	l536
  3629  0409                     u1790:	
  3630  0409                     l1541:	
  3631  0409  01AC               	clrf	___fldiv@aexp
  3632  040A  0AAC               	incf	___fldiv@aexp,f
  3633  040B  2C11               	goto	l1545
  3634  040C                     l536:	
  3635  040C  1C74               	btfss	___fldiv@b,0
  3636  040D  2C0F               	goto	u1801
  3637  040E  2C10               	goto	u1800
  3638  040F                     u1801:	
  3639  040F  2C11               	goto	l1545
  3640  0410                     u1800:	
  3641  0410  2C09               	goto	l1541
  3642  0411                     l1545:	
  3643  0411  082C               	movf	___fldiv@aexp,w
  3644  0412  1903               	btfsc	3,2
  3645  0413  2C15               	goto	u1811
  3646  0414  2C16               	goto	u1810
  3647  0415                     u1811:	
  3648  0415  2C47               	goto	l1555
  3649  0416                     u1810:	
  3650  0416                     l1547:	
  3651  0416  3001               	movlw	1
  3652  0417  07F4               	addwf	___fldiv@b,f
  3653  0418  3000               	movlw	0
  3654  0419  1803               	skipnc
  3655  041A  3001               	movlw	1
  3656  041B  07F5               	addwf	___fldiv@b+1,f
  3657  041C  3000               	movlw	0
  3658  041D  1803               	skipnc
  3659  041E  3001               	movlw	1
  3660  041F  07F6               	addwf	___fldiv@b+2,f
  3661  0420  3000               	movlw	0
  3662  0421  1803               	skipnc
  3663  0422  3001               	movlw	1
  3664  0423  07F7               	addwf	___fldiv@b+3,f
  3665  0424                     l1549:	
  3666  0424  1C77               	btfss	___fldiv@b+3,0
  3667  0425  2C27               	goto	u1821
  3668  0426  2C28               	goto	u1820
  3669  0427                     u1821:	
  3670  0427  2C47               	goto	l1555
  3671  0428                     u1820:	
  3672  0428                     l1551:	
  3673  0428  0874               	movf	___fldiv@b,w
  3674  0429  00F8               	movwf	??___fldiv
  3675  042A  0875               	movf	___fldiv@b+1,w
  3676  042B  00F9               	movwf	??___fldiv+1
  3677  042C  0876               	movf	___fldiv@b+2,w
  3678  042D  00FA               	movwf	??___fldiv+2
  3679  042E  0877               	movf	___fldiv@b+3,w
  3680  042F  00FB               	movwf	??___fldiv+3
  3681  0430  3001               	movlw	1
  3682  0431  00FC               	movwf	??___fldiv+4
  3683  0432                     u1835:	
  3684  0432  0D7B               	rlf	??___fldiv+3,w
  3685  0433  0CFB               	rrf	??___fldiv+3,f
  3686  0434  0CFA               	rrf	??___fldiv+2,f
  3687  0435  0CF9               	rrf	??___fldiv+1,f
  3688  0436  0CF8               	rrf	??___fldiv,f
  3689  0437                     u1830:	
  3690  0437  0BFC               	decfsz	??___fldiv+4,f
  3691  0438  2C32               	goto	u1835
  3692  0439  087B               	movf	??___fldiv+3,w
  3693  043A  00F7               	movwf	___fldiv@b+3
  3694  043B  087A               	movf	??___fldiv+2,w
  3695  043C  00F6               	movwf	___fldiv@b+2
  3696  043D  0879               	movf	??___fldiv+1,w
  3697  043E  00F5               	movwf	___fldiv@b+1
  3698  043F  0878               	movf	??___fldiv,w
  3699  0440  00F4               	movwf	___fldiv@b
  3700  0441                     l1553:	
  3701  0441  3001               	movlw	1
  3702  0442  07A5               	addwf	___fldiv@new_exp,f
  3703  0443  1803               	skipnc
  3704  0444  0AA6               	incf	___fldiv@new_exp+1,f
  3705  0445  3000               	movlw	0
  3706  0446  07A6               	addwf	___fldiv@new_exp+1,f
  3707  0447                     l1555:	
  3708  0447  0826               	movf	___fldiv@new_exp+1,w
  3709  0448  3A80               	xorlw	128
  3710  0449  00FF               	movwf	btemp+1
  3711  044A  3080               	movlw	128
  3712  044B  027F               	subwf	btemp+1,w
  3713  044C  1D03               	skipz
  3714  044D  2C50               	goto	u1845
  3715  044E  30FF               	movlw	255
  3716  044F  0225               	subwf	___fldiv@new_exp,w
  3717  0450                     u1845:	
  3718  0450  1C03               	skipc
  3719  0451  2C53               	goto	u1841
  3720  0452  2C54               	goto	u1840
  3721  0453                     u1841:	
  3722  0453  2C62               	goto	l1559
  3723  0454                     u1840:	
  3724  0454                     l1557:	
  3725  0454  30FF               	movlw	255
  3726  0455  1283               	bcf	3,5	;RP0=0, select bank0
  3727  0456  1303               	bcf	3,6	;RP1=0, select bank0
  3728  0457  00A5               	movwf	___fldiv@new_exp
  3729  0458  3000               	movlw	0
  3730  0459  00A6               	movwf	___fldiv@new_exp+1
  3731  045A  3000               	movlw	0
  3732  045B  00F7               	movwf	___fldiv@b+3
  3733  045C  3000               	movlw	0
  3734  045D  00F6               	movwf	___fldiv@b+2
  3735  045E  3000               	movlw	0
  3736  045F  00F5               	movwf	___fldiv@b+1
  3737  0460  3000               	movlw	0
  3738  0461  00F4               	movwf	___fldiv@b
  3739  0462                     l1559:	
  3740  0462  1283               	bcf	3,5	;RP0=0, select bank0
  3741  0463  1303               	bcf	3,6	;RP1=0, select bank0
  3742  0464  0826               	movf	___fldiv@new_exp+1,w
  3743  0465  3A80               	xorlw	128
  3744  0466  00FF               	movwf	btemp+1
  3745  0467  3080               	movlw	128
  3746  0468  027F               	subwf	btemp+1,w
  3747  0469  1D03               	skipz
  3748  046A  2C6D               	goto	u1855
  3749  046B  3001               	movlw	1
  3750  046C  0225               	subwf	___fldiv@new_exp,w
  3751  046D                     u1855:	
  3752  046D  1803               	skipnc
  3753  046E  2C70               	goto	u1851
  3754  046F  2C71               	goto	u1850
  3755  0470                     u1851:	
  3756  0470  2C7E               	goto	l542
  3757  0471                     u1850:	
  3758  0471                     l1561:	
  3759  0471  1283               	bcf	3,5	;RP0=0, select bank0
  3760  0472  1303               	bcf	3,6	;RP1=0, select bank0
  3761  0473  01A5               	clrf	___fldiv@new_exp
  3762  0474  01A6               	clrf	___fldiv@new_exp+1
  3763  0475                     l1563:	
  3764  0475  3000               	movlw	0
  3765  0476  00F7               	movwf	___fldiv@b+3
  3766  0477  3000               	movlw	0
  3767  0478  00F6               	movwf	___fldiv@b+2
  3768  0479  3000               	movlw	0
  3769  047A  00F5               	movwf	___fldiv@b+1
  3770  047B  3000               	movlw	0
  3771  047C  00F4               	movwf	___fldiv@b
  3772  047D                     l1565:	
  3773  047D  01A4               	clrf	___fldiv@sign
  3774  047E                     l542:	
  3775  047E  1283               	bcf	3,5	;RP0=0, select bank0
  3776  047F  1303               	bcf	3,6	;RP1=0, select bank0
  3777  0480  0825               	movf	___fldiv@new_exp,w
  3778  0481  00F8               	movwf	??___fldiv
  3779  0482  0878               	movf	??___fldiv,w
  3780  0483  00AB               	movwf	___fldiv@bexp
  3781  0484                     l1567:	
  3782  0484  1C2B               	btfss	___fldiv@bexp,0
  3783  0485  2C87               	goto	u1861
  3784  0486  2C88               	goto	u1860
  3785  0487                     u1861:	
  3786  0487  2C8A               	goto	l1571
  3787  0488                     u1860:	
  3788  0488                     l1569:	
  3789  0488  17F6               	bsf	___fldiv@b+2,7
  3790  0489  2C8E               	goto	l544
  3791  048A                     l1571:	
  3792  048A  307F               	movlw	127
  3793  048B  00F8               	movwf	??___fldiv
  3794  048C  0878               	movf	??___fldiv,w
  3795  048D  05F6               	andwf	___fldiv@b+2,f
  3796  048E                     l544:	
  3797  048E  082B               	movf	___fldiv@bexp,w
  3798  048F  00F8               	movwf	??___fldiv
  3799  0490  1003               	clrc
  3800  0491  0C78               	rrf	??___fldiv,w
  3801  0492  00F9               	movwf	??___fldiv+1
  3802  0493  0879               	movf	??___fldiv+1,w
  3803  0494  00F7               	movwf	___fldiv@b+3
  3804  0495  0824               	movf	___fldiv@sign,w
  3805  0496  00F8               	movwf	??___fldiv
  3806  0497  0878               	movf	??___fldiv,w
  3807  0498  04F7               	iorwf	___fldiv@b+3,f
  3808  0499  2B2C               	goto	l1479
  3809  049A                     l522:	
  3810  049A  0008               	return
  3811  049B                     __end_of___fldiv:	
  3812                           
  3813                           	psect	text13
  3814  0F44                     __ptext13:	
  3815 ;; *************** function ___awmod *****************
  3816 ;; Defined at:
  3817 ;;		line 5 in file "/opt/microchip/xc8/v2.10/pic/sources/c90/common/awmod.c"
  3818 ;; Parameters:    Size  Location     Type
  3819 ;;  divisor         2    0[BANK0 ] int 
  3820 ;;  dividend        2    2[BANK0 ] int 
  3821 ;; Auto vars:     Size  Location     Type
  3822 ;;  sign            1   13[COMMON] unsigned char 
  3823 ;;  counter         1   12[COMMON] unsigned char 
  3824 ;; Return value:  Size  Location     Type
  3825 ;;                  2    0[BANK0 ] int 
  3826 ;; Registers used:
  3827 ;;		wreg, status,2, status,0
  3828 ;; Tracked objects:
  3829 ;;		On entry : 0/0
  3830 ;;		On exit  : 0/0
  3831 ;;		Unchanged: 0/0
  3832 ;; Data sizes:     COMMON   BANK0   BANK1   BANK3   BANK2
  3833 ;;      Params:         0       4       0       0       0
  3834 ;;      Locals:         2       0       0       0       0
  3835 ;;      Temps:          1       0       0       0       0
  3836 ;;      Totals:         3       4       0       0       0
  3837 ;;Total ram usage:        7 bytes
  3838 ;; Hardware stack levels used:    1
  3839 ;; This function calls:
  3840 ;;		Nothing
  3841 ;; This function is called by:
  3842 ;;		_display
  3843 ;; This function uses a non-reentrant model
  3844 ;;
  3845                           
  3846                           
  3847                           ;psect for function ___awmod
  3848  0F44                     ___awmod:	
  3849  0F44                     l1361:	
  3850                           ;incstack = 0
  3851                           ; Regs used in ___awmod: [wreg+status,2+status,0]
  3852                           
  3853  0F44  01FD               	clrf	___awmod@sign
  3854  0F45                     l1363:	
  3855  0F45  1283               	bcf	3,5	;RP0=0, select bank0
  3856  0F46  1303               	bcf	3,6	;RP1=0, select bank0
  3857  0F47  1FA3               	btfss	___awmod@dividend+1,7
  3858  0F48  2F4A               	goto	u1381
  3859  0F49  2F4B               	goto	u1380
  3860  0F4A                     u1381:	
  3861  0F4A  2F52               	goto	l1369
  3862  0F4B                     u1380:	
  3863  0F4B                     l1365:	
  3864  0F4B  09A2               	comf	___awmod@dividend,f
  3865  0F4C  09A3               	comf	___awmod@dividend+1,f
  3866  0F4D  0AA2               	incf	___awmod@dividend,f
  3867  0F4E  1903               	skipnz
  3868  0F4F  0AA3               	incf	___awmod@dividend+1,f
  3869  0F50                     l1367:	
  3870  0F50  01FD               	clrf	___awmod@sign
  3871  0F51  0AFD               	incf	___awmod@sign,f
  3872  0F52                     l1369:	
  3873  0F52  1FA1               	btfss	___awmod@divisor+1,7
  3874  0F53  2F55               	goto	u1391
  3875  0F54  2F56               	goto	u1390
  3876  0F55                     u1391:	
  3877  0F55  2F5B               	goto	l1373
  3878  0F56                     u1390:	
  3879  0F56                     l1371:	
  3880  0F56  09A0               	comf	___awmod@divisor,f
  3881  0F57  09A1               	comf	___awmod@divisor+1,f
  3882  0F58  0AA0               	incf	___awmod@divisor,f
  3883  0F59  1903               	skipnz
  3884  0F5A  0AA1               	incf	___awmod@divisor+1,f
  3885  0F5B                     l1373:	
  3886  0F5B  0820               	movf	___awmod@divisor,w
  3887  0F5C  0421               	iorwf	___awmod@divisor+1,w
  3888  0F5D  1903               	btfsc	3,2
  3889  0F5E  2F60               	goto	u1401
  3890  0F5F  2F61               	goto	u1400
  3891  0F60                     u1401:	
  3892  0F60  2F90               	goto	l1391
  3893  0F61                     u1400:	
  3894  0F61                     l1375:	
  3895  0F61  01FC               	clrf	___awmod@counter
  3896  0F62  0AFC               	incf	___awmod@counter,f
  3897  0F63  2F6F               	goto	l1381
  3898  0F64                     l1377:	
  3899  0F64  3001               	movlw	1
  3900  0F65                     u1415:	
  3901  0F65  1003               	clrc
  3902  0F66  0DA0               	rlf	___awmod@divisor,f
  3903  0F67  0DA1               	rlf	___awmod@divisor+1,f
  3904  0F68  3EFF               	addlw	-1
  3905  0F69  1D03               	skipz
  3906  0F6A  2F65               	goto	u1415
  3907  0F6B                     l1379:	
  3908  0F6B  3001               	movlw	1
  3909  0F6C  00FB               	movwf	??___awmod
  3910  0F6D  087B               	movf	??___awmod,w
  3911  0F6E  07FC               	addwf	___awmod@counter,f
  3912  0F6F                     l1381:	
  3913  0F6F  1FA1               	btfss	___awmod@divisor+1,7
  3914  0F70  2F72               	goto	u1421
  3915  0F71  2F73               	goto	u1420
  3916  0F72                     u1421:	
  3917  0F72  2F64               	goto	l1377
  3918  0F73                     u1420:	
  3919  0F73                     l1383:	
  3920  0F73  0821               	movf	___awmod@divisor+1,w
  3921  0F74  0223               	subwf	___awmod@dividend+1,w
  3922  0F75  1D03               	skipz
  3923  0F76  2F79               	goto	u1435
  3924  0F77  0820               	movf	___awmod@divisor,w
  3925  0F78  0222               	subwf	___awmod@dividend,w
  3926  0F79                     u1435:	
  3927  0F79  1C03               	skipc
  3928  0F7A  2F7C               	goto	u1431
  3929  0F7B  2F7D               	goto	u1430
  3930  0F7C                     u1431:	
  3931  0F7C  2F83               	goto	l1387
  3932  0F7D                     u1430:	
  3933  0F7D                     l1385:	
  3934  0F7D  0820               	movf	___awmod@divisor,w
  3935  0F7E  02A2               	subwf	___awmod@dividend,f
  3936  0F7F  0821               	movf	___awmod@divisor+1,w
  3937  0F80  1C03               	skipc
  3938  0F81  03A3               	decf	___awmod@dividend+1,f
  3939  0F82  02A3               	subwf	___awmod@dividend+1,f
  3940  0F83                     l1387:	
  3941  0F83  3001               	movlw	1
  3942  0F84                     u1445:	
  3943  0F84  1003               	clrc
  3944  0F85  0CA1               	rrf	___awmod@divisor+1,f
  3945  0F86  0CA0               	rrf	___awmod@divisor,f
  3946  0F87  3EFF               	addlw	-1
  3947  0F88  1D03               	skipz
  3948  0F89  2F84               	goto	u1445
  3949  0F8A                     l1389:	
  3950  0F8A  3001               	movlw	1
  3951  0F8B  02FC               	subwf	___awmod@counter,f
  3952  0F8C  1D03               	btfss	3,2
  3953  0F8D  2F8F               	goto	u1451
  3954  0F8E  2F90               	goto	u1450
  3955  0F8F                     u1451:	
  3956  0F8F  2F73               	goto	l1383
  3957  0F90                     u1450:	
  3958  0F90                     l1391:	
  3959  0F90  087D               	movf	___awmod@sign,w
  3960  0F91  1903               	btfsc	3,2
  3961  0F92  2F94               	goto	u1461
  3962  0F93  2F95               	goto	u1460
  3963  0F94                     u1461:	
  3964  0F94  2F9A               	goto	l1395
  3965  0F95                     u1460:	
  3966  0F95                     l1393:	
  3967  0F95  09A2               	comf	___awmod@dividend,f
  3968  0F96  09A3               	comf	___awmod@dividend+1,f
  3969  0F97  0AA2               	incf	___awmod@dividend,f
  3970  0F98  1903               	skipnz
  3971  0F99  0AA3               	incf	___awmod@dividend+1,f
  3972  0F9A                     l1395:	
  3973  0F9A  0823               	movf	___awmod@dividend+1,w
  3974  0F9B  00A1               	movwf	?___awmod+1
  3975  0F9C  0822               	movf	___awmod@dividend,w
  3976  0F9D  00A0               	movwf	?___awmod
  3977  0F9E                     l337:	
  3978  0F9E  0008               	return
  3979  0F9F                     __end_of___awmod:	
  3980                           
  3981                           	psect	text14
  3982  002E                     __ptext14:	
  3983 ;; *************** function ___awdiv *****************
  3984 ;; Defined at:
  3985 ;;		line 5 in file "/opt/microchip/xc8/v2.10/pic/sources/c90/common/awdiv.c"
  3986 ;; Parameters:    Size  Location     Type
  3987 ;;  divisor         2    0[BANK0 ] int 
  3988 ;;  dividend        2    2[BANK0 ] int 
  3989 ;; Auto vars:     Size  Location     Type
  3990 ;;  quotient        2    6[BANK0 ] int 
  3991 ;;  sign            1    5[BANK0 ] unsigned char 
  3992 ;;  counter         1    4[BANK0 ] unsigned char 
  3993 ;; Return value:  Size  Location     Type
  3994 ;;                  2    0[BANK0 ] int 
  3995 ;; Registers used:
  3996 ;;		wreg, status,2, status,0
  3997 ;; Tracked objects:
  3998 ;;		On entry : 0/0
  3999 ;;		On exit  : 0/0
  4000 ;;		Unchanged: 0/0
  4001 ;; Data sizes:     COMMON   BANK0   BANK1   BANK3   BANK2
  4002 ;;      Params:         0       4       0       0       0
  4003 ;;      Locals:         0       4       0       0       0
  4004 ;;      Temps:          1       0       0       0       0
  4005 ;;      Totals:         1       8       0       0       0
  4006 ;;Total ram usage:        9 bytes
  4007 ;; Hardware stack levels used:    1
  4008 ;; This function calls:
  4009 ;;		Nothing
  4010 ;; This function is called by:
  4011 ;;		_display
  4012 ;; This function uses a non-reentrant model
  4013 ;;
  4014                           
  4015                           
  4016                           ;psect for function ___awdiv
  4017  002E                     ___awdiv:	
  4018  002E                     l1317:	
  4019                           ;incstack = 0
  4020                           ; Regs used in ___awdiv: [wreg+status,2+status,0]
  4021                           
  4022  002E  1283               	bcf	3,5	;RP0=0, select bank0
  4023  002F  1303               	bcf	3,6	;RP1=0, select bank0
  4024  0030  01A5               	clrf	___awdiv@sign
  4025  0031                     l1319:	
  4026  0031  1FA1               	btfss	___awdiv@divisor+1,7
  4027  0032  2834               	goto	u1281
  4028  0033  2835               	goto	u1280
  4029  0034                     u1281:	
  4030  0034  283C               	goto	l1325
  4031  0035                     u1280:	
  4032  0035                     l1321:	
  4033  0035  09A0               	comf	___awdiv@divisor,f
  4034  0036  09A1               	comf	___awdiv@divisor+1,f
  4035  0037  0AA0               	incf	___awdiv@divisor,f
  4036  0038  1903               	skipnz
  4037  0039  0AA1               	incf	___awdiv@divisor+1,f
  4038  003A                     l1323:	
  4039  003A  01A5               	clrf	___awdiv@sign
  4040  003B  0AA5               	incf	___awdiv@sign,f
  4041  003C                     l1325:	
  4042  003C  1FA3               	btfss	___awdiv@dividend+1,7
  4043  003D  283F               	goto	u1291
  4044  003E  2840               	goto	u1290
  4045  003F                     u1291:	
  4046  003F  2849               	goto	l1331
  4047  0040                     u1290:	
  4048  0040                     l1327:	
  4049  0040  09A2               	comf	___awdiv@dividend,f
  4050  0041  09A3               	comf	___awdiv@dividend+1,f
  4051  0042  0AA2               	incf	___awdiv@dividend,f
  4052  0043  1903               	skipnz
  4053  0044  0AA3               	incf	___awdiv@dividend+1,f
  4054  0045                     l1329:	
  4055  0045  3001               	movlw	1
  4056  0046  00FB               	movwf	??___awdiv
  4057  0047  087B               	movf	??___awdiv,w
  4058  0048  06A5               	xorwf	___awdiv@sign,f
  4059  0049                     l1331:	
  4060  0049  01A6               	clrf	___awdiv@quotient
  4061  004A  01A7               	clrf	___awdiv@quotient+1
  4062  004B                     l1333:	
  4063  004B  0820               	movf	___awdiv@divisor,w
  4064  004C  0421               	iorwf	___awdiv@divisor+1,w
  4065  004D  1903               	btfsc	3,2
  4066  004E  2850               	goto	u1301
  4067  004F  2851               	goto	u1300
  4068  0050                     u1301:	
  4069  0050  2888               	goto	l1353
  4070  0051                     u1300:	
  4071  0051                     l1335:	
  4072  0051  01A4               	clrf	___awdiv@counter
  4073  0052  0AA4               	incf	___awdiv@counter,f
  4074  0053  285F               	goto	l1341
  4075  0054                     l1337:	
  4076  0054  3001               	movlw	1
  4077  0055                     u1315:	
  4078  0055  1003               	clrc
  4079  0056  0DA0               	rlf	___awdiv@divisor,f
  4080  0057  0DA1               	rlf	___awdiv@divisor+1,f
  4081  0058  3EFF               	addlw	-1
  4082  0059  1D03               	skipz
  4083  005A  2855               	goto	u1315
  4084  005B                     l1339:	
  4085  005B  3001               	movlw	1
  4086  005C  00FB               	movwf	??___awdiv
  4087  005D  087B               	movf	??___awdiv,w
  4088  005E  07A4               	addwf	___awdiv@counter,f
  4089  005F                     l1341:	
  4090  005F  1FA1               	btfss	___awdiv@divisor+1,7
  4091  0060  2862               	goto	u1321
  4092  0061  2863               	goto	u1320
  4093  0062                     u1321:	
  4094  0062  2854               	goto	l1337
  4095  0063                     u1320:	
  4096  0063                     l1343:	
  4097  0063  3001               	movlw	1
  4098  0064                     u1335:	
  4099  0064  1003               	clrc
  4100  0065  0DA6               	rlf	___awdiv@quotient,f
  4101  0066  0DA7               	rlf	___awdiv@quotient+1,f
  4102  0067  3EFF               	addlw	-1
  4103  0068  1D03               	skipz
  4104  0069  2864               	goto	u1335
  4105  006A  0821               	movf	___awdiv@divisor+1,w
  4106  006B  0223               	subwf	___awdiv@dividend+1,w
  4107  006C  1D03               	skipz
  4108  006D  2870               	goto	u1345
  4109  006E  0820               	movf	___awdiv@divisor,w
  4110  006F  0222               	subwf	___awdiv@dividend,w
  4111  0070                     u1345:	
  4112  0070  1C03               	skipc
  4113  0071  2873               	goto	u1341
  4114  0072  2874               	goto	u1340
  4115  0073                     u1341:	
  4116  0073  287B               	goto	l1349
  4117  0074                     u1340:	
  4118  0074                     l1345:	
  4119  0074  0820               	movf	___awdiv@divisor,w
  4120  0075  02A2               	subwf	___awdiv@dividend,f
  4121  0076  0821               	movf	___awdiv@divisor+1,w
  4122  0077  1C03               	skipc
  4123  0078  03A3               	decf	___awdiv@dividend+1,f
  4124  0079  02A3               	subwf	___awdiv@dividend+1,f
  4125  007A                     l1347:	
  4126  007A  1426               	bsf	___awdiv@quotient,0
  4127  007B                     l1349:	
  4128  007B  3001               	movlw	1
  4129  007C                     u1355:	
  4130  007C  1003               	clrc
  4131  007D  0CA1               	rrf	___awdiv@divisor+1,f
  4132  007E  0CA0               	rrf	___awdiv@divisor,f
  4133  007F  3EFF               	addlw	-1
  4134  0080  1D03               	skipz
  4135  0081  287C               	goto	u1355
  4136  0082                     l1351:	
  4137  0082  3001               	movlw	1
  4138  0083  02A4               	subwf	___awdiv@counter,f
  4139  0084  1D03               	btfss	3,2
  4140  0085  2887               	goto	u1361
  4141  0086  2888               	goto	u1360
  4142  0087                     u1361:	
  4143  0087  2863               	goto	l1343
  4144  0088                     u1360:	
  4145  0088                     l1353:	
  4146  0088  0825               	movf	___awdiv@sign,w
  4147  0089  1903               	btfsc	3,2
  4148  008A  288C               	goto	u1371
  4149  008B  288D               	goto	u1370
  4150  008C                     u1371:	
  4151  008C  2892               	goto	l1357
  4152  008D                     u1370:	
  4153  008D                     l1355:	
  4154  008D  09A6               	comf	___awdiv@quotient,f
  4155  008E  09A7               	comf	___awdiv@quotient+1,f
  4156  008F  0AA6               	incf	___awdiv@quotient,f
  4157  0090  1903               	skipnz
  4158  0091  0AA7               	incf	___awdiv@quotient+1,f
  4159  0092                     l1357:	
  4160  0092  0827               	movf	___awdiv@quotient+1,w
  4161  0093  00A1               	movwf	?___awdiv+1
  4162  0094  0826               	movf	___awdiv@quotient,w
  4163  0095  00A0               	movwf	?___awdiv
  4164  0096                     l324:	
  4165  0096  0008               	return
  4166  0097                     __end_of___awdiv:	
  4167                           
  4168                           	psect	text15
  4169  0E70                     __ptext15:	
  4170 ;; *************** function _clcd_putch *****************
  4171 ;; Defined at:
  4172 ;;		line 58 in file "clcd.c"
  4173 ;; Parameters:    Size  Location     Type
  4174 ;;  data            1    wreg     const unsigned char 
  4175 ;;  addr            1    4[COMMON] unsigned char 
  4176 ;; Auto vars:     Size  Location     Type
  4177 ;;  data            1    5[COMMON] const unsigned char 
  4178 ;; Return value:  Size  Location     Type
  4179 ;;                  1    wreg      void 
  4180 ;; Registers used:
  4181 ;;		wreg, status,2, status,0, pclath, cstack
  4182 ;; Tracked objects:
  4183 ;;		On entry : 0/0
  4184 ;;		On exit  : 0/0
  4185 ;;		Unchanged: 0/0
  4186 ;; Data sizes:     COMMON   BANK0   BANK1   BANK3   BANK2
  4187 ;;      Params:         1       0       0       0       0
  4188 ;;      Locals:         1       0       0       0       0
  4189 ;;      Temps:          0       0       0       0       0
  4190 ;;      Totals:         2       0       0       0       0
  4191 ;;Total ram usage:        2 bytes
  4192 ;; Hardware stack levels used:    1
  4193 ;; Hardware stack levels required when called:    1
  4194 ;; This function calls:
  4195 ;;		_clcd_write
  4196 ;; This function is called by:
  4197 ;;		_main
  4198 ;; This function uses a non-reentrant model
  4199 ;;
  4200                           
  4201                           
  4202                           ;psect for function _clcd_putch
  4203  0E70                     _clcd_putch:	
  4204                           
  4205                           ;incstack = 0
  4206                           ; Regs used in _clcd_putch: [wreg+status,2+status,0+pclath+cstack]
  4207                           ;clcd_putch@data stored from wreg
  4208  0E70  00F5               	movwf	clcd_putch@data
  4209  0E71                     l1793:	
  4210                           
  4211                           ;clcd.c: 58: void clcd_putch(const char data, unsigned char addr);clcd.c: 59: {;clcd.c: 
      +                          60:     clcd_write(addr,0);
  4212  0E71  01F0               	clrf	clcd_write@mode
  4213  0E72  0874               	movf	clcd_putch@addr,w
  4214  0E73  120A  158A  270E  120A  158A  	fcall	_clcd_write
  4215                           
  4216                           ;clcd.c: 61:     clcd_write(data, 1);
  4217  0E78  01F0               	clrf	clcd_write@mode
  4218  0E79  0AF0               	incf	clcd_write@mode,f
  4219  0E7A  0875               	movf	clcd_putch@data,w
  4220  0E7B  120A  158A  270E  120A  158A  	fcall	_clcd_write
  4221  0E80                     l79:	
  4222  0E80  0008               	return
  4223  0E81                     __end_of_clcd_putch:	
  4224                           
  4225                           	psect	text16
  4226  0F0E                     __ptext16:	
  4227 ;; *************** function _clcd_write *****************
  4228 ;; Defined at:
  4229 ;;		line 4 in file "clcd.c"
  4230 ;; Parameters:    Size  Location     Type
  4231 ;;  byte            1    wreg     unsigned char 
  4232 ;;  mode            1    0[COMMON] unsigned char 
  4233 ;; Auto vars:     Size  Location     Type
  4234 ;;  byte            1    3[COMMON] unsigned char 
  4235 ;; Return value:  Size  Location     Type
  4236 ;;                  1    wreg      void 
  4237 ;; Registers used:
  4238 ;;		wreg, status,2, status,0
  4239 ;; Tracked objects:
  4240 ;;		On entry : 0/0
  4241 ;;		On exit  : 0/0
  4242 ;;		Unchanged: 0/0
  4243 ;; Data sizes:     COMMON   BANK0   BANK1   BANK3   BANK2
  4244 ;;      Params:         1       0       0       0       0
  4245 ;;      Locals:         1       0       0       0       0
  4246 ;;      Temps:          2       0       0       0       0
  4247 ;;      Totals:         4       0       0       0       0
  4248 ;;Total ram usage:        4 bytes
  4249 ;; Hardware stack levels used:    1
  4250 ;; This function calls:
  4251 ;;		Nothing
  4252 ;; This function is called by:
  4253 ;;		_init_display_controller
  4254 ;;		_clcd_putch
  4255 ;;		_clcd_print
  4256 ;; This function uses a non-reentrant model
  4257 ;;
  4258                           
  4259                           
  4260                           ;psect for function _clcd_write
  4261  0F0E                     _clcd_write:	
  4262                           
  4263                           ;incstack = 0
  4264                           ; Regs used in _clcd_write: [wreg+status,2+status,0]
  4265                           ;clcd_write@byte stored from wreg
  4266  0F0E  00F3               	movwf	clcd_write@byte
  4267  0F0F                     l1241:	
  4268                           
  4269                           ;clcd.c: 4: static void clcd_write(unsigned char byte, unsigned char mode);clcd.c: 5: {;
      +                          clcd.c: 6:     RE2 = mode;
  4270  0F0F  1870               	btfsc	clcd_write@mode,0
  4271  0F10  2F12               	goto	u1211
  4272  0F11  2F16               	goto	u1210
  4273  0F12                     u1211:	
  4274  0F12  1283               	bcf	3,5	;RP0=0, select bank0
  4275  0F13  1303               	bcf	3,6	;RP1=0, select bank0
  4276  0F14  1509               	bsf	9,2	;volatile
  4277  0F15  2F19               	goto	u1224
  4278  0F16                     u1210:	
  4279  0F16  1283               	bcf	3,5	;RP0=0, select bank0
  4280  0F17  1303               	bcf	3,6	;RP1=0, select bank0
  4281  0F18  1109               	bcf	9,2	;volatile
  4282  0F19                     u1224:	
  4283  0F19                     l1243:	
  4284                           
  4285                           ;clcd.c: 8:     PORTD = byte & 0XF0;
  4286  0F19  0873               	movf	clcd_write@byte,w
  4287  0F1A  39F0               	andlw	240
  4288  0F1B  0088               	movwf	8	;volatile
  4289  0F1C                     l1245:	
  4290                           
  4291                           ;clcd.c: 9:     RE1=1;
  4292  0F1C  1489               	bsf	9,1	;volatile
  4293  0F1D                     l1247:	
  4294                           
  4295                           ;clcd.c: 10:     _delay((unsigned long)((100)*(20000000/4000000.0)));
  4296  0F1D  30A6               	movlw	166
  4297  0F1E  00F1               	movwf	??_clcd_write
  4298  0F1F                     u2477:	
  4299  0F1F  0BF1               	decfsz	??_clcd_write,f
  4300  0F20  2F1F               	goto	u2477
  4301  0F21  0000               	nop
  4302  0F22                     l1249:	
  4303                           
  4304                           ;clcd.c: 11:     RE1=0;
  4305  0F22  1283               	bcf	3,5	;RP0=0, select bank0
  4306  0F23  1303               	bcf	3,6	;RP1=0, select bank0
  4307  0F24  1089               	bcf	9,1	;volatile
  4308  0F25                     l1251:	
  4309                           
  4310                           ;clcd.c: 13:     PORTD = (byte & 0X0F) << 4;
  4311  0F25  0873               	movf	clcd_write@byte,w
  4312  0F26  390F               	andlw	15
  4313  0F27  00F1               	movwf	??_clcd_write
  4314  0F28  3003               	movlw	3
  4315  0F29                     u1235:	
  4316  0F29  1003               	clrc
  4317  0F2A  0DF1               	rlf	??_clcd_write,f
  4318  0F2B  3EFF               	addlw	-1
  4319  0F2C  1D03               	skipz
  4320  0F2D  2F29               	goto	u1235
  4321  0F2E  1003               	clrc
  4322  0F2F  0D71               	rlf	??_clcd_write,w
  4323  0F30  0088               	movwf	8	;volatile
  4324  0F31                     l1253:	
  4325                           
  4326                           ;clcd.c: 14:     RE1=1;
  4327  0F31  1489               	bsf	9,1	;volatile
  4328  0F32                     l1255:	
  4329                           
  4330                           ;clcd.c: 15:     _delay((unsigned long)((100)*(20000000/4000000.0)));
  4331  0F32  30A6               	movlw	166
  4332  0F33  00F1               	movwf	??_clcd_write
  4333  0F34                     u2487:	
  4334  0F34  0BF1               	decfsz	??_clcd_write,f
  4335  0F35  2F34               	goto	u2487
  4336  0F36  0000               	nop
  4337  0F37                     l1257:	
  4338                           
  4339                           ;clcd.c: 16:     RE1=0;
  4340  0F37  1283               	bcf	3,5	;RP0=0, select bank0
  4341  0F38  1303               	bcf	3,6	;RP1=0, select bank0
  4342  0F39  1089               	bcf	9,1	;volatile
  4343  0F3A                     l1259:	
  4344                           
  4345                           ;clcd.c: 18:     _delay((unsigned long)((4100)*(20000000/4000000.0)));
  4346  0F3A  301B               	movlw	27
  4347  0F3B  00F2               	movwf	??_clcd_write+1
  4348  0F3C  309E               	movlw	158
  4349  0F3D  00F1               	movwf	??_clcd_write
  4350  0F3E                     u2497:	
  4351  0F3E  0BF1               	decfsz	??_clcd_write,f
  4352  0F3F  2F3E               	goto	u2497
  4353  0F40  0BF2               	decfsz	??_clcd_write+1,f
  4354  0F41  2F3E               	goto	u2497
  4355  0F42  0000               	nop
  4356  0F43                     l70:	
  4357  0F43  0008               	return
  4358  0F44                     __end_of_clcd_write:	
  4359  007E                     btemp	set	126	;btemp
  4360  007E                     wtemp0	set	126


Data Sizes:
    Strings     25
    Constant    0
    Data        0
    BSS         0
    Persistent  0
    Stack       0

Auto Spaces:
    Space          Size  Autos    Used
    COMMON           14     14      14
    BANK0            80     69      69
    BANK1            80      0       0
    BANK3            96      0       0
    BANK2            96      0       0

Pointer List with Targets:

    clcd_print@str	PTR const unsigned char  size(2) Largest target is 17
		 -> STR_3(CODE[17]), STR_2(CODE[2]), display@buff(BANK0[4]), STR_1(CODE[6]), 


Critical Paths under _main in COMMON

    _init_config->_clcd_print
    _init_clcd->_init_display_controller
    _init_display_controller->_clcd_write
    _display->___awmod
    _clcd_print->_clcd_write
    ___xxtofl->___awdiv
    ___awmod->___fltol
    ___awdiv->___fltol
    _clcd_putch->_clcd_write

Critical Paths under _main in BANK0

    _main->_display
    _display->___flmul
    ___xxtofl->___awdiv
    ___flmul->___xxtofl

Critical Paths under _main in BANK1

    None.

Critical Paths under _main in BANK3

    None.

Critical Paths under _main in BANK2

    None.

Call Graph Tables:

 ---------------------------------------------------------------------------------
 (Depth) Function   	        Calls       Base Space   Used Autos Params    Refs
 ---------------------------------------------------------------------------------
 (0) _main                                                 4     4      0   10898
                                             65 BANK0      4     4      0
                         _clcd_putch
                            _display
                        _init_config
                           _read_adc
 ---------------------------------------------------------------------------------
 (1) _read_adc                                             6     4      2      45
                                              0 COMMON     6     4      2
 ---------------------------------------------------------------------------------
 (1) _init_config                                          1     1      0    2479
                                              7 COMMON     1     1      0
                         _clcd_print
                           _init_adc
                          _init_clcd
 ---------------------------------------------------------------------------------
 (2) _init_clcd                                            0     0      0     902
            _init_display_controller
 ---------------------------------------------------------------------------------
 (3) _init_display_controller                              2     2      0     902
                                              4 COMMON     2     2      0
                         _clcd_write
 ---------------------------------------------------------------------------------
 (2) _init_adc                                             0     0      0       0
 ---------------------------------------------------------------------------------
 (1) _display                                             17    15      2    7306
                                             48 BANK0     17    15      2
                            ___awdiv
                            ___awmod
                            ___fldiv
                            ___flmul
                            ___fltol
                           ___xxtofl
                         _clcd_print
 ---------------------------------------------------------------------------------
 (2) _clcd_print                                           3     0      3    1577
                                              4 COMMON     3     0      3
                         _clcd_write
 ---------------------------------------------------------------------------------
 (2) ___xxtofl                                            14    10      4     474
                                              8 BANK0     14    10      4
                            ___awdiv (ARG)
                            ___fltol (ARG)
 ---------------------------------------------------------------------------------
 (2) ___fltol                                             11     7      4     381
                                              0 COMMON    11     7      4
 ---------------------------------------------------------------------------------
 (2) ___flmul                                             26    18      8    2417
                                             22 BANK0     26    18      8
                          __Umul8_16
                           ___xxtofl (ARG)
 ---------------------------------------------------------------------------------
 (3) __Umul8_16                                            9     7      2     799
                                              0 COMMON     9     7      2
 ---------------------------------------------------------------------------------
 (2) ___fldiv                                             26    18      8    1273
                                              0 COMMON    13     5      8
                                              0 BANK0     13    13      0
 ---------------------------------------------------------------------------------
 (2) ___awmod                                              7     3      4     448
                                             11 COMMON     3     3      0
                                              0 BANK0      4     0      4
                            ___fltol (ARG)
 ---------------------------------------------------------------------------------
 (2) ___awdiv                                              9     5      4     452
                                             11 COMMON     1     1      0
                                              0 BANK0      8     4      4
                            ___fltol (ARG)
 ---------------------------------------------------------------------------------
 (1) _clcd_putch                                           2     1      1    1022
                                              4 COMMON     2     1      1
                         _clcd_write
 ---------------------------------------------------------------------------------
 (4) _clcd_write                                           4     3      1     902
                                              0 COMMON     4     3      1
 ---------------------------------------------------------------------------------
 Estimated maximum stack depth 4
 ---------------------------------------------------------------------------------

 Call Graph Graphs:

 _main (ROOT)
   _clcd_putch
     _clcd_write
   _display
     ___awdiv
       ___fltol (ARG)
     ___awmod
       ___fltol (ARG)
     ___fldiv
     ___flmul
       __Umul8_16
       ___xxtofl (ARG)
         ___awdiv (ARG)
           ___fltol (ARG)
         ___fltol (ARG)
     ___fltol
     ___xxtofl
       ___awdiv (ARG)
         ___fltol (ARG)
       ___fltol (ARG)
     _clcd_print
       _clcd_write
   _init_config
     _clcd_print
       _clcd_write
     _init_adc
     _init_clcd
       _init_display_controller
         _clcd_write
   _read_adc

 Address spaces:
Name               Size   Autos  Total    Cost      Usage
BITCOMMON            E      0       0       0        0.0%
EEDATA             100      0       0       0        0.0%
NULL                 0      0       0       0        0.0%
CODE                 0      0       0       0        0.0%
COMMON               E      E       E       1      100.0%
BITSFR0              0      0       0       1        0.0%
SFR0                 0      0       0       1        0.0%
BITSFR1              0      0       0       2        0.0%
SFR1                 0      0       0       2        0.0%
STACK                0      0       0       2        0.0%
ABS                  0      0       0       3        0.0%
BITBANK0            50      0       0       4        0.0%
BITSFR3              0      0       0       4        0.0%
SFR3                 0      0       0       4        0.0%
BANK0               50     45      45       5       86.2%
BITSFR2              0      0       0       5        0.0%
SFR2                 0      0       0       5        0.0%
BITBANK1            50      0       0       6        0.0%
BANK1               50      0       0       7        0.0%
BITBANK3            60      0       0       8        0.0%
BANK3               60      0       0       9        0.0%
BITBANK2            60      0       0      10        0.0%
BANK2               60      0       0      11        0.0%
DATA                 0      0       0      12        0.0%


Microchip Technology PIC Macro Assembler V2.10 build 88905656 
Symbol Table                                                                                   Sun Jul  5 14:38:59 2020

                    ___fldiv@aexp 002C                      ___fldiv@bexp 002B                                 pc 0002  
                    ___fldiv@sign 0024                    clcd_print@addr 0076  __size_of_init_display_controller 0061  
                              l21 0E64                                l24 0EA9                                l42 02B7  
                              l27 0EB7                                l45 0E98                                l70 0F43  
                              l73 0FFF                                l76 0E6F                                l85 0F0D  
                              l79 0E80                                _GO 00FA                      ___awdiv@sign 0025  
                              fsr 0004               __Umul8_16@word_mpld 0076                               l324 0096  
                             l520 0314                               l600 01CC                               l337 0F9E  
                             l522 049A                               l611 0196                               l364 00FB  
                             l612 01A2                               l604 017A                               l357 0110  
                             l542 047E                               l367 0110                               l544 048E  
                             l536 040C                               l560 07FB                               l617 0ECC  
                             l619 0EDE                               l572 07EF                               l566 0767  
                             l598 0135                               _RE1 0049                               _RE2 004A  
                  clcd_putch@addr 0074                               fsr0 0004                    clcd_putch@data 0075  
                             indf 0000                      ___awmod@sign 007D                      ___flmul@aexp 0048  
                    ___flmul@bexp 0049                      ___flmul@sign 0043                      ___flmul@temp 004E  
                    ___flmul@prod 004A                      ___fltol@exp1 007A                              l1301 0EDF  
                            l1303 0EE7                              l1311 0E68                              l1241 0F0F  
                            l1321 0035                              l1401 00A2                              l1305 0EF7  
                            l1313 0E69                              l1251 0F25                              l1243 0F19  
                            l1331 0049                              l1323 003A                              l1411 00C9  
                            l1307 0EFD                              l1315 0E6A                              l1253 0F31  
                            l1245 0F1C                              l1341 005F                              l1333 004B  
                            l1325 003C                              l1317 002E                              l1501 0374  
                            l1421 00D7                              l1413 00CB                              l1405 00AB  
                            l1261 0F9F                              l1309 0E65                              l1255 0F32  
                            l1247 0F1D                              l1351 0082                              l1343 0063  
                            l1335 0051                              l1327 0040                              l1319 0031  
                            l1511 03A6                              l1503 0386                              l1431 0100  
                            l1415 00CF                              l1423 00E9                              l1407 00C0  
                            l1271 0FCA                              l1263 0FA7                              l1257 0F37  
                            l1249 0F22                              l1345 0074                              l1337 0054  
                            l1353 0088                              l1329 0045                              l1361 0F44  
                            l1521 03CD                              l1513 03A7                              l1505 038A  
                            l1441 02C9                              l1601 04D8                              l1433 0105  
                            l1409 00C1                              l1281 0FEA                              l1273 0FCD  
                            l1265 0FAE                              l1259 0F3A                              l1355 008D  
                            l1347 007A                              l1339 005B                              l1371 0F56  
                            l1363 0F45                              l1531 03E6                              l1523 03CF  
                            l1515 03BB                              l1507 038B                              l1451 02DD  
                            l1443 02CA                              l1435 02B8                              l1291 0EC6  
                            l1611 04ED                              l1603 04D9                              l1283 0FFA  
                            l1275 0FD4                              l1267 0FBE                              l1357 0092  
                            l1349 007B                              l1381 0F6F                              l1373 0F5B  
                            l1365 0F4B                              l1541 0409                              l1525 03D8  
                            l1533 03EC                              l1509 0394                              l1517 03BF  
                            l1461 02F6                              l1445 02CF                              l1453 02DF  
                            l1437 02BF                              l1293 0ED5                              l1285 0EB9  
                            l1701 07C9                              l1621 0508                              l1613 04F5  
                            l1605 04DE                              l1429 00F0                              l1277 0FD7  
                            l1269 0FC3                              l1383 0F73                              l1375 0F61  
                            l1391 0F90                              l1367 0F50                              l1551 0428  
                            l1535 03F0                              l1527 03DC                              l1519 03C5  
                            l1471 030A                              l1463 02F7                              l1455 02E7  
                            l1447 02D4                              l1439 02C5                              l1295 0EDA  
                            l1287 0EBB                              l1711 07E8                              l1703 07D3  
                            l1631 058A                              l1623 0518                              l1615 04FA  
                            l1607 04E3                              l1279 0FE3                              l1393 0F95  
                            l1385 0F7D                              l1377 0F64                              l1369 0F52  
                            l1561 0471                              l1553 0441                              l1545 0411  
                            l1537 03F1                              l1529 03DD                              l1465 02FC  
                            l1473 030C                              l1457 02EC                              l1449 02DC  
                            l1289 0EC2                              l1713 07F3                              l1705 07D5  
                            l1641 05F8                              l1633 05A6                              l1625 0525  
                            l1617 04FF                              l1609 04EB                              l1721 011D  
                            l1801 0015                              l1395 0F9A                              l1387 0F83  
                            l1379 0F6B                              l1571 048A                              l1563 0475  
                            l1547 0416                              l1555 0447                              l1539 03F5  
                            l1491 0355                              l1475 031C                              l1483 0335  
                            l1467 0301                              l1459 02F2                              l1707 07E3  
                            l1651 0688                              l1643 0608                              l1635 05C2  
                            l1627 0542                              l1731 014B                              l1723 012D  
                            l1299 0E5C                              l1803 0021                              l1389 0F8A  
                            l1565 047D                              l1557 0454                              l1549 0424  
                            l1493 035D                              l1485 033A                              l1477 0328  
                            l1469 0309                              l1709 07E7                              l1661 071C  
                            l1653 0698                              l1645 0625                              l1637 05CB  
                            l1629 055E                              l1581 04A8                              l1741 0181  
                            l1733 0158                              l1725 013D                              l1717 0114  
                            l1567 0484                              l1559 0462                              l1495 0365  
                            l1479 032C                              l1671 0741                              l1663 072A  
                            l1655 06C5                              l1647 063E                              l1639 05DB  
                            l1591 04BF                              l1583 04AC                              l1399 0097  
                            l1751 01BA                              l1743 018C                              l1735 015F  
                            l1719 0119                              l1569 0488                              l1497 036D  
                            l1489 0343                              l1681 0764                              l1665 0733  
                            l1673 0747                              l1657 06EB                              l1649 065B  
                            l1593 04C1                              l1585 04AD                              l1577 049B  
                            l1753 01BF                              l1745 0190                              l1737 0163  
                            l1729 0146                              l1761 0E9A                              l1499 036F  
                            l1691 0783                              l1675 074B                              l1667 0737  
                            l1659 0713                              l1595 04C9                              l1587 04B2  
                            l1579 04A2                              l1755 01C3                              l1747 019A  
                            l1739 0171                              l1771 021B                              l1763 0EA8  
                            l1693 079C                              l1685 076C                              l1677 074C  
                            l1669 0738                              l1597 04CE                              l1589 04B7  
                            l1757 01C4                              l1749 01A4                              l1781 029A  
                            l1773 0228                              l1765 0EAD                              l1687 0771  
                            l1695 07A2                              l1679 0750                              l1599 04D4  
                            l1783 029B                              l1775 022E                              l1791 0E8B  
                            l1793 0E71                              l1697 07AF                              l1689 077F  
                            l1785 02A8                              l1777 0255                              l1769 01CD  
                            l1699 07BA                              l1779 028C                              l1787 0E81  
                            l1795 0004                              l1789 0E86                              l1797 0009  
                            l1799 0009                              _ADFM 04FF                              _ADON 00F8  
                            STR_1 0821                              STR_2 0827                              STR_3 0810  
                            u2001 05EA                              u1210 0F16                              u2002 05F1  
                            u1211 0F12                              u2011 0617                              u2003 05F8  
                            u1300 0051                              u2012 061E                              u1301 0050  
                            u2013 0625                              u2031 064D                              u1224 0F19  
                            u1320 0063                              u1400 0F61                              u1240 0EC6  
                            u2200 0792                              u2120 0737                              u2032 0654  
                            u1321 0062                              u1401 0F60                              u1241 0EC5  
                            u2121 0736                              u2105 0715                              u2041 067A  
                            u2033 065B                              u2025 0627                              u2210 07AF  
                            u2042 0681                              u1235 0F29                              u1315 0055  
                            u2211 07AE                              u2115 072C                              u2051 06A7  
                            u2043 0688                              u1340 0074                              u1420 0F73  
                            u1260 0EDA                              u2220 07C9                              u2140 074B  
                            u2060 06D1                              u2052 06AE                              u1500 00D6  
                            u2300 0180                              u1341 0073                              u1421 0F72  
                            u1261 0ED9                              u2221 07C8                              u2205 078D  
                            u2141 074A                              u2053 06B5                              u1501 00D5  
                            u2301 017F                              u1430 0F7D                              u2230 07E7  
                            u2150 0750                              u1270 0F0D                              u1335 0064  
                            u1431 0F7C                              u1415 0F65                              u1255 0ECD  
                            u2231 07E6                              u2215 07AB                              u2151 074F  
                            u2135 073A                              u2071 06DD                              u1271 0F0C  
                            u1360 0088                              u1280 0035                              u1600 02F6  
                            u2160 0764                              u2080 06F9                              u2072 06E4  
                            u1520 00E8                              u2320 0190                              u2240 0119  
                            u2400 029A                              u1361 0087                              u1345 0070  
                            u1281 0034                              u1601 02F5                              u2225 07C5  
                            u2161 0763                              u2073 06EB                              u2065 06CC  
                            u1521 00E7                              u2321 018F                              u2241 0118  
                            u2401 0299                              u1370 008D                              u1290 0040  
                            u1450 0F90                              u1610 02FC                              u2170 076B  
                            u1530 00EF                              u2330 0196                              u2250 011D  
                            u1371 008C                              u1355 007C                              u1291 003F  
                            u1451 0F8F                              u1435 0F79                              u1611 02FB  
                            u2171 076A                              u2091 0705                              u1531 00EE  
                            u1515 00D8                              u2331 0195                              u2315 0185  
                            u2251 011C                              u1460 0F95                              u1380 0F4B  
                            u1700 03A6                              u1620 0301                              u2180 0771  
                            u2092 070C                              u2340 019A                              u2260 013D  
                            u1461 0F94                              u1445 0F84                              u1381 0F4A  
                            u1701 03A5                              u1621 0300                              u2181 0770  
                            u2093 0713                              u2085 06F4                              u2341 0199  
                            u2261 013C                              u1390 0F56                              u1710 03BB  
                            u1630 031C                              u2190 0783                              u1550 0100  
                            u1470 00A2                              u2350 01AF                              u1391 0F55  
                            u1631 031B                              u2191 0782                              u1551 00FF  
                            u1471 00A1                              u1800 0410                              u1720 03C5  
                            u1640 033A                              u1560 0105                              u1480 00B9  
                            u2360 01BF                              u2280 015E                              u1801 040F  
                            u1721 03C4                              u1705 03A2                              u1641 0339  
                            u1561 0104                              u1545 00F2                              u2361 01BE  
                            u2281 015D                              u2417 0FA3                              u1810 0416  
                            u1730 03CD                              u1650 0374                              u1570 02C9  
                            u1490 00CF                              u2370 01C3                              u1811 0415  
                            u1731 03CC                              u1715 03AE                              u1651 0373  
                            u1571 02C8                              u1491 00CE                              u2371 01C2  
                            u2355 01AA                              u2275 0150                              u2427 0FB2  
                            u1820 0428                              u1716 03AF                              u1580 02CF  
                            u1900 04D8                              u1821 0427                              u1717 03B4  
                            u1581 02CE                              u1901 04D7                              u1485 00B4  
                            u2437 0FC0                              u1830 0437                              u1750 03DC  
                            u1718 03B5                              u1590 02D4                              u1910 04DE  
                            u2390 0EAD                              u1751 03DB                              u1719 03BA  
                            u1591 02D3                              u1911 04DD                              u2295 0172  
                            u2447 0FE0                              u2391 0EAC                              u1840 0454  
                            u1680 038A                              u1920 04E3                              u1841 0453  
                            u1745 03D1                              u1681 0389                              u1665 0376  
                            u1921 04E2                              u2457 0FEE                              u2385 0E9D  
                            u1850 0471                              u1770 03F0                              u1930 04FA  
                            u1851 0470                              u1835 0432                              u1771 03EF  
                            u1675 037F                              u1931 04F9                              u2467 0FFC  
                            u1860 0488                              u1780 03F5                              u1940 04FF  
                            u2477 0F1F                              u1861 0487                              u1845 0450  
                            u1781 03F4                              u1765 03DF                              u1941 04FE  
                            u1790 0409                              u1870 04AC                              u2487 0F34  
                            u1855 046D                              u1791 0408                              u1695 038D  
                            u1951 0550                              u1871 04AB                              u1952 0557  
                            u1880 04B2                              u2497 0F3E                              u1961 056C  
                            u1953 055E                              u1881 04B1                              u1962 0573  
                            u1890 04B7                              u1971 0598                              u1963 057A  
                            u1891 04B6                              u1972 059F                              u1981 05B4  
                            u1973 05A6                              u1982 05BB                              u1983 05C2  
                            u1995 05C4                       display@buff 0053                              _main 0004  
                            btemp 007E                              start 0000                   ___fldiv@new_exp 0025  
                  clcd_write@byte 0073                    clcd_write@mode 0070                     ___fltol@sign1 0079  
                           _ADCS0 00FE                             _ADCS1 00FF                             ?_main 0070  
                 __end_of___fldiv 049B                   __end_of___awdiv 0097                     __CFG_WDTE$OFF 0000  
                 __end_of___awmod 0F9F                   __end_of___flmul 07FC                   __end_of___fltol 0111  
                 ___awdiv@divisor 0020                      ?_init_config 0070                   ___awdiv@counter 0024  
                           _PORTD 0008                             _TRISD 0088                             _nDONE 00FA  
                 __end_of_display 02B8                             pclath 000A                             status 0003  
                           wtemp0 007E                   __initialization 07FC                      __end_of_main 002E  
                          ??_main 0061                            _ADCON0 001F                            _ADRESH 001E  
                          _ADRESL 009E                  ___awdiv@dividend 0022                            _TRISE1 0449  
                          _TRISE2 044A                  __end_of___xxtofl 01CD                display@adc_reg_val 0050  
         _init_display_controller 0F9F                         ??___fldiv 0078                         ??___awdiv 007B  
                       ??___awmod 007B                         ??___flmul 003E                         ??___fltol 0074  
                __end_of_init_adc 0E65                  __end_of_read_adc 0EB8                  ___awdiv@quotient 0026  
                 ___awmod@divisor 0020                   ___awmod@counter 007C                         ??_display 0052  
              __size_of__Umul8_16 0027                      ___xxtofl@arg 0032                      ___xxtofl@exp 0031  
                    ___xxtofl@val 0028           __end_of__initialization 07FC                        ___fltol@f1 0070  
                  __pcstackCOMMON 0070              __size_of_init_config 0018                __size_of_init_clcd 000B  
       ??_init_display_controller 0074                        _clcd_print 0EDF                        _clcd_putch 0E70  
                      _clcd_write 0F0E                 __end_of__Umul8_16 0EDF                        __pmaintext 0004  
                       ?___xxtofl 0028                        __stringtab 0800                         ?_init_adc 0070  
                       ?_read_adc 0070                           ___fldiv 02B8                           ___awdiv 002E  
                         ___awmod 0F44                           ___flmul 049B                           ___fltol 0097  
                  display@voltage 0057                           __ptext1 0E99                           __ptext2 0E81  
                         __ptext3 0E65                           __ptext4 0F9F                           __ptext5 0E5C  
                         __ptext6 01CD                           __ptext7 0EDF                           __ptext8 0111  
                         __ptext9 0097                           _display 01CD   __end_of_init_display_controller 1000  
               __end_of_init_clcd 0E70                        ??___xxtofl 002C                  ___awmod@dividend 0022  
            end_of_initialization 07FC                        ??_init_adc 0070                        ??_read_adc 0072  
                     ?_clcd_print 0074                       ?_clcd_putch 0074                       ?_clcd_write 0070  
                 main@adc_reg_val 0062                   read_adc@channel 0075                     ___xxtofl@sign 0030  
                     ___fldiv@grs 0027                       ___fldiv@rem 0020                     clcd_print@str 0074  
                     ___flmul@grs 0044               start_initialization 07FC               __size_of_clcd_print 002F  
             __size_of_clcd_putch 0011               __size_of_clcd_write 0036                display@temperature 005D  
                       __Umul8_16 0EB8                     ??_init_config 0077                         ___fldiv@a 0070  
                       ___fldiv@b 0074                         ___flmul@a 003A                         ___flmul@b 0036  
                       ___latbits 0002                     __pcstackBANK0 0020                 __size_of___xxtofl 00BC  
               __size_of_init_adc 0009                 __size_of_read_adc 001F                          ?___fldiv 0070  
                        ?___awdiv 0020                          ?___awmod 0020                          ?___flmul 0036  
                        ?___fltol 0070                        ?__Umul8_16 0070                         __pstrings 0800  
                        ?_display 0050               read_adc@adc_reg_val 0073                         _init_clcd 0E65  
             __end_of_init_config 0E99          ?_init_display_controller 0070                      ??_clcd_print 0077  
                    ??_clcd_putch 0075                      ??_clcd_write 0071                       __stringbase 080F  
              __end_of_clcd_print 0F0E                __end_of_clcd_putch 0E81                __end_of_clcd_write 0F44  
                      ?_init_clcd 0070                       ??__Umul8_16 0072                  __size_of___fldiv 01E3  
                __size_of___awdiv 0069                  __size_of___awmod 005B                  __size_of___flmul 0361  
                __size_of___fltol 007A                __end_of__stringtab 0810                       _init_config 0E81  
                __size_of_display 00EB                          ___xxtofl 0111                          __ptext10 049B  
                        __ptext11 0EB8                          __ptext12 02B8                          __ptext13 0F44  
                        __ptext14 002E                          __ptext15 0E70                          __ptext16 0F0E  
                        _init_adc 0E5C                          _read_adc 0E99                     __size_of_main 002A  
                        display@i 005B                       ??_init_clcd 0076                         stringcode 080A  
          __Umul8_16@multiplicand 0070                          stringdir 080A                          stringtab 0800  
            __Umul8_16@multiplier 0078                 __Umul8_16@product 0074  
