

Microchip MPLAB XC8 Assembler V2.10 build 88905656 
                                                                                               Sat Jun 27 05:24:44 2020

Microchip MPLAB XC8 C Compiler v2.10 (Free license) build 20190730164152 Og1 
     1                           	processor	16F877A
     2                           	opt	pw 120
     3                           	opt	flic
     4                           	psect	idataCOMMON,global,class=CODE,delta=2
     5                           	psect	strings,global,class=STRING,delta=2
     6                           	psect	cinit,global,class=CODE,merge=1,delta=2
     7                           	psect	bssCOMMON,global,class=COMMON,space=1,delta=1
     8                           	psect	dataCOMMON,global,class=COMMON,space=1,delta=1
     9                           	psect	bssBANK0,global,class=BANK0,space=1,delta=1
    10                           	psect	cstackCOMMON,global,class=COMMON,space=1,delta=1
    11                           	psect	cstackBANK0,global,class=BANK0,space=1,delta=1
    12                           	psect	maintext,global,class=CODE,split=1,delta=2
    13                           	psect	text1,local,class=CODE,merge=1,delta=2
    14                           	psect	text2,local,class=CODE,merge=1,delta=2
    15                           	psect	text3,local,class=CODE,merge=1,delta=2
    16                           	psect	text4,local,class=CODE,merge=1,delta=2
    17                           	psect	text5,local,class=CODE,merge=1,delta=2
    18                           	psect	text6,local,class=CODE,merge=1,delta=2
    19                           	psect	text7,local,class=CODE,merge=1,delta=2
    20                           	psect	text8,local,class=CODE,merge=1,delta=2
    21                           	psect	text9,local,class=CODE,merge=1,delta=2
    22                           	psect	text10,local,class=CODE,merge=1,delta=2
    23                           	psect	text11,local,class=CODE,merge=1,delta=2
    24                           	psect	text12,local,class=CODE,merge=1,delta=2
    25                           	psect	intentry,global,class=CODE,delta=2
    26                           	dabs	1,0x7E,2
    27  0000                     
    28                           ; Version 2.10
    29                           ; Generated 31/07/2019 GMT
    30                           ; 
    31                           ; Copyright © 2019, Microchip Technology Inc. and its subsidiaries ("Microchip")
    32                           ; All rights reserved.
    33                           ; 
    34                           ; This software is developed by Microchip Technology Inc. and its subsidiaries ("Microch
      +                          ip").
    35                           ; 
    36                           ; Redistribution and use in source and binary forms, with or without modification, are
    37                           ; permitted provided that the following conditions are met:
    38                           ; 
    39                           ;     1. Redistributions of source code must retain the above copyright notice, this lis
      +                          t of
    40                           ;        conditions and the following disclaimer.
    41                           ; 
    42                           ;     2. Redistributions in binary form must reproduce the above copyright notice, this 
      +                          list
    43                           ;        of conditions and the following disclaimer in the documentation and/or other
    44                           ;        materials provided with the distribution.
    45                           ; 
    46                           ;     3. Microchip's name may not be used to endorse or promote products derived from th
      +                          is
    47                           ;        software without specific prior written permission.
    48                           ; 
    49                           ; THIS SOFTWARE IS PROVIDED BY MICROCHIP "AS IS" AND ANY EXPRESS OR IMPLIED WARRANTIES,
    50                           ; INCLUDING, BUT NOT LIMITED TO, THE IMPLIED WARRANTIES OF MERCHANTABILITY AND FITNESS F
      +                          OR
    51                           ; PURPOSE ARE DISCLAIMED.  IN NO EVENT SHALL MICROCHIP BE LIABLE FOR ANY DIRECT, INDIREC
      +                          T,
    52                           ; INCIDENTAL, SPECIAL, EXEMPLARY, OR CONSEQUENTIAL DAMAGES (INCLUDING BUT NOT LIMITED TO
    53                           ; PROCUREMENT OF SUBSTITUTE GOODS OR SERVICES; LOSS OF USE, DATA OR PROFITS; OR BUSINESS
    54                           ; INTERRUPTION) HOWSOEVER CAUSED AND ON ANY THEORY OF LIABILITY, WHETHER IN CONTRACT, ST
      +                          RICT
    55                           ; LIABILITY, OR TORT (INCLUDING NEGLIGENCE OR OTHERWISE) ARISING IN ANY WAY OUT OF THE U
      +                          SE OF
    56                           ; THIS SOFTWARE, EVEN IF ADVISED OF THE POSSIBILITY OF SUCH DAMAGE.
    57                           ; 
    58                           ; 
    59                           ; Code-generator required, PIC16F877A Definitions
    60                           ; 
    61                           ; SFR Addresses
    62  0000                     	;# 
    63  0001                     	;# 
    64  0002                     	;# 
    65  0003                     	;# 
    66  0004                     	;# 
    67  0005                     	;# 
    68  0006                     	;# 
    69  0007                     	;# 
    70  0008                     	;# 
    71  0009                     	;# 
    72  000A                     	;# 
    73  000B                     	;# 
    74  000C                     	;# 
    75  000D                     	;# 
    76  000E                     	;# 
    77  000E                     	;# 
    78  000F                     	;# 
    79  0010                     	;# 
    80  0011                     	;# 
    81  0012                     	;# 
    82  0013                     	;# 
    83  0014                     	;# 
    84  0015                     	;# 
    85  0015                     	;# 
    86  0016                     	;# 
    87  0017                     	;# 
    88  0018                     	;# 
    89  0019                     	;# 
    90  001A                     	;# 
    91  001B                     	;# 
    92  001B                     	;# 
    93  001C                     	;# 
    94  001D                     	;# 
    95  001E                     	;# 
    96  001F                     	;# 
    97  0081                     	;# 
    98  0085                     	;# 
    99  0086                     	;# 
   100  0087                     	;# 
   101  0088                     	;# 
   102  0089                     	;# 
   103  008C                     	;# 
   104  008D                     	;# 
   105  008E                     	;# 
   106  0091                     	;# 
   107  0092                     	;# 
   108  0093                     	;# 
   109  0094                     	;# 
   110  0098                     	;# 
   111  0099                     	;# 
   112  009C                     	;# 
   113  009D                     	;# 
   114  009E                     	;# 
   115  009F                     	;# 
   116  010C                     	;# 
   117  010D                     	;# 
   118  010E                     	;# 
   119  010F                     	;# 
   120  018C                     	;# 
   121  018D                     	;# 
   122  0000                     	;# 
   123  0001                     	;# 
   124  0002                     	;# 
   125  0003                     	;# 
   126  0004                     	;# 
   127  0005                     	;# 
   128  0006                     	;# 
   129  0007                     	;# 
   130  0008                     	;# 
   131  0009                     	;# 
   132  000A                     	;# 
   133  000B                     	;# 
   134  000C                     	;# 
   135  000D                     	;# 
   136  000E                     	;# 
   137  000E                     	;# 
   138  000F                     	;# 
   139  0010                     	;# 
   140  0011                     	;# 
   141  0012                     	;# 
   142  0013                     	;# 
   143  0014                     	;# 
   144  0015                     	;# 
   145  0015                     	;# 
   146  0016                     	;# 
   147  0017                     	;# 
   148  0018                     	;# 
   149  0019                     	;# 
   150  001A                     	;# 
   151  001B                     	;# 
   152  001B                     	;# 
   153  001C                     	;# 
   154  001D                     	;# 
   155  001E                     	;# 
   156  001F                     	;# 
   157  0081                     	;# 
   158  0085                     	;# 
   159  0086                     	;# 
   160  0087                     	;# 
   161  0088                     	;# 
   162  0089                     	;# 
   163  008C                     	;# 
   164  008D                     	;# 
   165  008E                     	;# 
   166  0091                     	;# 
   167  0092                     	;# 
   168  0093                     	;# 
   169  0094                     	;# 
   170  0098                     	;# 
   171  0099                     	;# 
   172  009C                     	;# 
   173  009D                     	;# 
   174  009E                     	;# 
   175  009F                     	;# 
   176  010C                     	;# 
   177  010D                     	;# 
   178  010E                     	;# 
   179  010F                     	;# 
   180  018C                     	;# 
   181  018D                     	;# 
   182  0000                     	;# 
   183  0001                     	;# 
   184  0002                     	;# 
   185  0003                     	;# 
   186  0004                     	;# 
   187  0005                     	;# 
   188  0006                     	;# 
   189  0007                     	;# 
   190  0008                     	;# 
   191  0009                     	;# 
   192  000A                     	;# 
   193  000B                     	;# 
   194  000C                     	;# 
   195  000D                     	;# 
   196  000E                     	;# 
   197  000E                     	;# 
   198  000F                     	;# 
   199  0010                     	;# 
   200  0011                     	;# 
   201  0012                     	;# 
   202  0013                     	;# 
   203  0014                     	;# 
   204  0015                     	;# 
   205  0015                     	;# 
   206  0016                     	;# 
   207  0017                     	;# 
   208  0018                     	;# 
   209  0019                     	;# 
   210  001A                     	;# 
   211  001B                     	;# 
   212  001B                     	;# 
   213  001C                     	;# 
   214  001D                     	;# 
   215  001E                     	;# 
   216  001F                     	;# 
   217  0081                     	;# 
   218  0085                     	;# 
   219  0086                     	;# 
   220  0087                     	;# 
   221  0088                     	;# 
   222  0089                     	;# 
   223  008C                     	;# 
   224  008D                     	;# 
   225  008E                     	;# 
   226  0091                     	;# 
   227  0092                     	;# 
   228  0093                     	;# 
   229  0094                     	;# 
   230  0098                     	;# 
   231  0099                     	;# 
   232  009C                     	;# 
   233  009D                     	;# 
   234  009E                     	;# 
   235  009F                     	;# 
   236  010C                     	;# 
   237  010D                     	;# 
   238  010E                     	;# 
   239  010F                     	;# 
   240  018C                     	;# 
   241  018D                     	;# 
   242  0000                     	;# 
   243  0001                     	;# 
   244  0002                     	;# 
   245  0003                     	;# 
   246  0004                     	;# 
   247  0005                     	;# 
   248  0006                     	;# 
   249  0007                     	;# 
   250  0008                     	;# 
   251  0009                     	;# 
   252  000A                     	;# 
   253  000B                     	;# 
   254  000C                     	;# 
   255  000D                     	;# 
   256  000E                     	;# 
   257  000E                     	;# 
   258  000F                     	;# 
   259  0010                     	;# 
   260  0011                     	;# 
   261  0012                     	;# 
   262  0013                     	;# 
   263  0014                     	;# 
   264  0015                     	;# 
   265  0015                     	;# 
   266  0016                     	;# 
   267  0017                     	;# 
   268  0018                     	;# 
   269  0019                     	;# 
   270  001A                     	;# 
   271  001B                     	;# 
   272  001B                     	;# 
   273  001C                     	;# 
   274  001D                     	;# 
   275  001E                     	;# 
   276  001F                     	;# 
   277  0081                     	;# 
   278  0085                     	;# 
   279  0086                     	;# 
   280  0087                     	;# 
   281  0088                     	;# 
   282  0089                     	;# 
   283  008C                     	;# 
   284  008D                     	;# 
   285  008E                     	;# 
   286  0091                     	;# 
   287  0092                     	;# 
   288  0093                     	;# 
   289  0094                     	;# 
   290  0098                     	;# 
   291  0099                     	;# 
   292  009C                     	;# 
   293  009D                     	;# 
   294  009E                     	;# 
   295  009F                     	;# 
   296  010C                     	;# 
   297  010D                     	;# 
   298  010E                     	;# 
   299  010F                     	;# 
   300  018C                     	;# 
   301  018D                     	;# 
   302  0000                     	;# 
   303  0001                     	;# 
   304  0002                     	;# 
   305  0003                     	;# 
   306  0004                     	;# 
   307  0005                     	;# 
   308  0006                     	;# 
   309  0007                     	;# 
   310  0008                     	;# 
   311  0009                     	;# 
   312  000A                     	;# 
   313  000B                     	;# 
   314  000C                     	;# 
   315  000D                     	;# 
   316  000E                     	;# 
   317  000E                     	;# 
   318  000F                     	;# 
   319  0010                     	;# 
   320  0011                     	;# 
   321  0012                     	;# 
   322  0013                     	;# 
   323  0014                     	;# 
   324  0015                     	;# 
   325  0015                     	;# 
   326  0016                     	;# 
   327  0017                     	;# 
   328  0018                     	;# 
   329  0019                     	;# 
   330  001A                     	;# 
   331  001B                     	;# 
   332  001B                     	;# 
   333  001C                     	;# 
   334  001D                     	;# 
   335  001E                     	;# 
   336  001F                     	;# 
   337  0081                     	;# 
   338  0085                     	;# 
   339  0086                     	;# 
   340  0087                     	;# 
   341  0088                     	;# 
   342  0089                     	;# 
   343  008C                     	;# 
   344  008D                     	;# 
   345  008E                     	;# 
   346  0091                     	;# 
   347  0092                     	;# 
   348  0093                     	;# 
   349  0094                     	;# 
   350  0098                     	;# 
   351  0099                     	;# 
   352  009C                     	;# 
   353  009D                     	;# 
   354  009E                     	;# 
   355  009F                     	;# 
   356  010C                     	;# 
   357  010D                     	;# 
   358  010E                     	;# 
   359  010F                     	;# 
   360  018C                     	;# 
   361  018D                     	;# 
   362  0000                     	;# 
   363  0001                     	;# 
   364  0002                     	;# 
   365  0003                     	;# 
   366  0004                     	;# 
   367  0005                     	;# 
   368  0006                     	;# 
   369  0007                     	;# 
   370  0008                     	;# 
   371  0009                     	;# 
   372  000A                     	;# 
   373  000B                     	;# 
   374  000C                     	;# 
   375  000D                     	;# 
   376  000E                     	;# 
   377  000E                     	;# 
   378  000F                     	;# 
   379  0010                     	;# 
   380  0011                     	;# 
   381  0012                     	;# 
   382  0013                     	;# 
   383  0014                     	;# 
   384  0015                     	;# 
   385  0015                     	;# 
   386  0016                     	;# 
   387  0017                     	;# 
   388  0018                     	;# 
   389  0019                     	;# 
   390  001A                     	;# 
   391  001B                     	;# 
   392  001B                     	;# 
   393  001C                     	;# 
   394  001D                     	;# 
   395  001E                     	;# 
   396  001F                     	;# 
   397  0081                     	;# 
   398  0085                     	;# 
   399  0086                     	;# 
   400  0087                     	;# 
   401  0088                     	;# 
   402  0089                     	;# 
   403  008C                     	;# 
   404  008D                     	;# 
   405  008E                     	;# 
   406  0091                     	;# 
   407  0092                     	;# 
   408  0093                     	;# 
   409  0094                     	;# 
   410  0098                     	;# 
   411  0099                     	;# 
   412  009C                     	;# 
   413  009D                     	;# 
   414  009E                     	;# 
   415  009F                     	;# 
   416  010C                     	;# 
   417  010D                     	;# 
   418  010E                     	;# 
   419  010F                     	;# 
   420  018C                     	;# 
   421  018D                     	;# 
   422                           
   423                           	psect	idataCOMMON
   424  026B                     __pidataCOMMON:	
   425                           
   426                           ;initializer for read_matrix_keypad@once
   427  026B  3401               	retlw	1
   428  0008                     _PORTD	set	8
   429  0061                     _TMR2IF	set	97
   430  0092                     _TMR2ON	set	146
   431  0091                     _T2CKPS1	set	145
   432  0090                     _T2CKPS0	set	144
   433  0032                     _RB2	set	50
   434  0031                     _RB1	set	49
   435  0030                     _RB0	set	48
   436  0041                     _RD1	set	65
   437  0049                     _RE1	set	73
   438  004A                     _RE2	set	74
   439  005F                     _GIE	set	95
   440  005E                     _PEIE	set	94
   441  0040                     _RD0	set	64
   442  0092                     _PR2	set	146
   443  0086                     _TRISB	set	134
   444  0088                     _TRISD	set	136
   445  0461                     _TMR2IE	set	1121
   446  040F                     _nRBPU	set	1039
   447  0441                     _TRISD1	set	1089
   448  0449                     _TRISE1	set	1097
   449  044A                     _TRISE2	set	1098
   450  0440                     _TRISD0	set	1088
   451                           
   452                           	psect	strings
   453  021C                     __pstrings:	
   454  021C                     stringtab:	
   455  021C                     __stringtab:	
   456  021C                     stringcode:	
   457                           ;	String table - string pointers are 1 byte each
   458                           
   459  021C                     stringdir:	
   460  021C  3002               	movlw	high stringdir
   461  021D  008A               	movwf	10
   462  021E  0804               	movf	4,w
   463  021F  0A84               	incf	4,f
   464  0220  0782               	addwf	2,f
   465  0221                     __stringbase:	
   466  0221  3400               	retlw	0
   467  0222                     __end_of__stringtab:	
   468  0222                     STR_1:	
   469  0222  344C               	retlw	76	;'L'
   470  0223  3445               	retlw	69	;'E'
   471  0224  3444               	retlw	68	;'D'
   472  0225  3420               	retlw	32	;' '
   473  0226  3444               	retlw	68	;'D'
   474  0227  3469               	retlw	105	;'i'
   475  0228  346D               	retlw	109	;'m'
   476  0229  346D               	retlw	109	;'m'
   477  022A  3465               	retlw	101	;'e'
   478  022B  3472               	retlw	114	;'r'
   479  022C  3420               	retlw	32	;' '
   480  022D  344C               	retlw	76	;'L'
   481  022E  3465               	retlw	101	;'e'
   482  022F  3476               	retlw	118	;'v'
   483  0230  3465               	retlw	101	;'e'
   484  0231  346C               	retlw	108	;'l'
   485  0232  3400               	retlw	0
   486                           
   487                           ; #config settings
   488  0000                     
   489                           	psect	cinit
   490  000F                     start_initialization:	
   491  000F                     __initialization:	
   492                           
   493                           ; Initialize objects allocated to COMMON
   494  000F  120A  118A  226B  120A  118A  	fcall	__pidataCOMMON	;fetch initializer
   495  0014  00F9               	movwf	__pdataCOMMON& (0+127)
   496                           
   497                           ; Clear objects allocated to BANK0
   498  0015  01A9               	clrf	__pbssBANK0& (0+127)
   499  0016  01AA               	clrf	(__pbssBANK0+1)& (0+127)
   500  0017  01AB               	clrf	(__pbssBANK0+2)& (0+127)
   501  0018  01AC               	clrf	(__pbssBANK0+3)& (0+127)
   502                           
   503                           ; Clear objects allocated to COMMON
   504  0019  01F7               	clrf	__pbssCOMMON& (0+127)
   505  001A  01F8               	clrf	(__pbssCOMMON+1)& (0+127)
   506  001B                     end_of_initialization:	
   507                           ;End of C runtime variable initialization code
   508                           
   509  001B                     __end_of__initialization:	
   510  001B  0183               	clrf	3
   511  001C  120A  118A  2A02   	ljmp	_main	;jump to C main() function
   512                           
   513                           	psect	bssCOMMON
   514  0077                     __pbssCOMMON:	
   515  0077                     isr@count:	
   516  0077                     	ds	2
   517                           
   518                           	psect	dataCOMMON
   519  0079                     __pdataCOMMON:	
   520  0079                     read_matrix_keypad@once:	
   521  0079                     	ds	1
   522                           
   523                           	psect	bssBANK0
   524  0029                     __pbssBANK0:	
   525  0029                     software_pwm@wait:	
   526  0029                     	ds	2
   527  002B                     _duty_cycle:	
   528  002B                     	ds	1
   529  002C                     _pos:	
   530  002C                     	ds	1
   531                           
   532                           	psect	cstackCOMMON
   533  0070                     __pcstackCOMMON:	
   534  0070                     ?_init_clcd:	
   535  0070                     ?_init_matrix_keypad:	
   536                           ; 1 bytes @ 0x0
   537                           
   538  0070                     ?_init_timer2:	
   539                           ; 1 bytes @ 0x0
   540                           
   541  0070                     ?_read_matrix_keypad:	
   542                           ; 1 bytes @ 0x0
   543                           
   544  0070                     ?_software_pwm:	
   545                           ; 1 bytes @ 0x0
   546                           
   547  0070                     ?_init_config:	
   548                           ; 1 bytes @ 0x0
   549                           
   550  0070                     ?_main:	
   551                           ; 1 bytes @ 0x0
   552                           
   553  0070                     ?_init_display_controller:	
   554                           ; 1 bytes @ 0x0
   555                           
   556  0070                     ?_scan_keypad:	
   557                           ; 1 bytes @ 0x0
   558                           
   559  0070                     ?_isr:	
   560                           ; 1 bytes @ 0x0
   561                           
   562  0070                     ??_isr:	
   563                           ; 1 bytes @ 0x0
   564                           
   565                           
   566                           ; 1 bytes @ 0x0
   567  0070                     	ds	4
   568  0074                     ??_init_matrix_keypad:	
   569  0074                     ??_init_timer2:	
   570                           ; 1 bytes @ 0x4
   571                           
   572  0074                     ?_clcd_write:	
   573                           ; 1 bytes @ 0x4
   574                           
   575  0074                     ??_scan_keypad:	
   576                           ; 1 bytes @ 0x4
   577                           
   578  0074                     clcd_write@mode:	
   579                           ; 1 bytes @ 0x4
   580                           
   581  0074                     scan_keypad@i:	
   582                           ; 1 bytes @ 0x4
   583                           
   584                           
   585                           ; 2 bytes @ 0x4
   586  0074                     	ds	1
   587  0075                     ??_clcd_write:	
   588                           
   589                           ; 1 bytes @ 0x5
   590  0075                     	ds	1
   591  0076                     ??_read_matrix_keypad:	
   592                           
   593                           ; 1 bytes @ 0x6
   594  0076                     	ds	1
   595  0077                     ??_clcd_putch:	
   596  0077                     ??_init_clcd:	
   597                           ; 1 bytes @ 0x7
   598                           
   599                           
   600                           	psect	cstackBANK0
   601  0020                     __pcstackBANK0:	
   602                           ; 1 bytes @ 0x7
   603                           
   604  0020                     clcd_write@byte:	
   605  0020                     read_matrix_keypad@mode:	
   606                           ; 1 bytes @ 0x0
   607                           
   608                           
   609                           ; 1 bytes @ 0x0
   610  0020                     	ds	1
   611  0021                     ?_clcd_putch:	
   612  0021                     ?_clcd_print:	
   613                           ; 1 bytes @ 0x1
   614                           
   615  0021                     ??_init_display_controller:	
   616                           ; 1 bytes @ 0x1
   617                           
   618  0021                     clcd_putch@addr:	
   619                           ; 1 bytes @ 0x1
   620                           
   621  0021                     clcd_print@addr:	
   622                           ; 1 bytes @ 0x1
   623                           
   624  0021                     read_matrix_keypad@key:	
   625                           ; 1 bytes @ 0x1
   626                           
   627                           
   628                           ; 1 bytes @ 0x1
   629  0021                     	ds	1
   630  0022                     ??_clcd_print:	
   631  0022                     clcd_putch@data:	
   632                           ; 1 bytes @ 0x2
   633                           
   634                           
   635                           ; 1 bytes @ 0x2
   636  0022                     	ds	1
   637  0023                     ??_software_pwm:	
   638  0023                     clcd_print@str:	
   639                           ; 1 bytes @ 0x3
   640                           
   641                           
   642                           ; 1 bytes @ 0x3
   643  0023                     	ds	1
   644  0024                     ??_init_config:	
   645                           
   646                           ; 1 bytes @ 0x4
   647  0024                     	ds	1
   648  0025                     software_pwm@key:	
   649                           
   650                           ; 1 bytes @ 0x5
   651  0025                     	ds	2
   652  0027                     ??_main:	
   653                           
   654                           ; 1 bytes @ 0x7
   655  0027                     	ds	1
   656  0028                     main@key:	
   657                           
   658                           ; 1 bytes @ 0x8
   659  0028                     	ds	1
   660                           
   661                           	psect	maintext
   662  0202                     __pmaintext:	
   663 ;;
   664 ;;Main: autosize = 0, tempsize = 1, incstack = 0, save=0
   665 ;;
   666 ;; *************** function _main *****************
   667 ;; Defined at:
   668 ;;		line 68 in file "main.c"
   669 ;; Parameters:    Size  Location     Type
   670 ;;		None
   671 ;; Auto vars:     Size  Location     Type
   672 ;;  key             1    8[BANK0 ] unsigned char 
   673 ;; Return value:  Size  Location     Type
   674 ;;                  1    wreg      void 
   675 ;; Registers used:
   676 ;;		wreg, fsr0l, fsr0h, status,2, status,0, pclath, cstack
   677 ;; Tracked objects:
   678 ;;		On entry : B00/0
   679 ;;		On exit  : 0/0
   680 ;;		Unchanged: 0/0
   681 ;; Data sizes:     COMMON   BANK0   BANK1   BANK3   BANK2
   682 ;;      Params:         0       0       0       0       0
   683 ;;      Locals:         0       1       0       0       0
   684 ;;      Temps:          0       1       0       0       0
   685 ;;      Totals:         0       2       0       0       0
   686 ;;Total ram usage:        2 bytes
   687 ;; Hardware stack levels required when called:    5
   688 ;; This function calls:
   689 ;;		_init_config
   690 ;;		_read_matrix_keypad
   691 ;;		_software_pwm
   692 ;; This function is called by:
   693 ;;		Startup code after reset
   694 ;; This function uses a non-reentrant model
   695 ;;
   696                           
   697                           
   698                           ;psect for function _main
   699  0202                     _main:	
   700  0202                     l1283:	
   701                           ;incstack = 0
   702                           ; Regs used in _main: [wreg-fsr0h+status,2+status,0+pclath+cstack]
   703                           
   704  0202  120A  118A  21DE  120A  118A  	fcall	_init_config
   705  0207                     l1285:	
   706  0207  3000               	movlw	0
   707  0208  120A  118A  21B5  120A  118A  	fcall	_read_matrix_keypad
   708  020D  1283               	bcf	3,5	;RP0=0, select bank0
   709  020E  1303               	bcf	3,6	;RP1=0, select bank0
   710  020F  00A7               	movwf	??_main
   711  0210  0827               	movf	??_main,w
   712  0211  00A8               	movwf	main@key
   713  0212                     l1287:	
   714  0212  0828               	movf	main@key,w
   715  0213  120A  118A  2090  120A  118A  	fcall	_software_pwm
   716  0218  2A07               	goto	l1285
   717  0219  120A  118A  280C   	ljmp	start
   718  021C                     __end_of_main:	
   719                           
   720                           	psect	text1
   721  0090                     __ptext1:	
   722 ;; *************** function _software_pwm *****************
   723 ;; Defined at:
   724 ;;		line 20 in file "main.c"
   725 ;; Parameters:    Size  Location     Type
   726 ;;  key             1    wreg     unsigned char 
   727 ;; Auto vars:     Size  Location     Type
   728 ;;  key             1    5[BANK0 ] unsigned char 
   729 ;;  clear           1    0        unsigned char 
   730 ;;  block           1    0        unsigned char 
   731 ;; Return value:  Size  Location     Type
   732 ;;                  1    wreg      void 
   733 ;; Registers used:
   734 ;;		wreg, status,2, status,0, pclath, cstack
   735 ;; Tracked objects:
   736 ;;		On entry : 0/0
   737 ;;		On exit  : 0/0
   738 ;;		Unchanged: 0/0
   739 ;; Data sizes:     COMMON   BANK0   BANK1   BANK3   BANK2
   740 ;;      Params:         0       0       0       0       0
   741 ;;      Locals:         0       3       0       0       0
   742 ;;      Temps:          0       1       0       0       0
   743 ;;      Totals:         0       4       0       0       0
   744 ;;Total ram usage:        4 bytes
   745 ;; Hardware stack levels used:    1
   746 ;; Hardware stack levels required when called:    3
   747 ;; This function calls:
   748 ;;		_clcd_putch
   749 ;; This function is called by:
   750 ;;		_main
   751 ;; This function uses a non-reentrant model
   752 ;;
   753                           
   754                           
   755                           ;psect for function _software_pwm
   756  0090                     _software_pwm:	
   757                           
   758                           ;incstack = 0
   759                           ; Regs used in _software_pwm: [wreg+status,2+status,0+pclath+cstack]
   760                           ;software_pwm@key stored from wreg
   761  0090  1283               	bcf	3,5	;RP0=0, select bank0
   762  0091  1303               	bcf	3,6	;RP1=0, select bank0
   763  0092  00A5               	movwf	software_pwm@key
   764  0093                     l1211:	
   765  0093                     l1213:	
   766  0093                     l1215:	
   767                           
   768                           ;main.c: 25:                 duty_cycle = duty_cycle - 6;;main.c: 26:                 cl
      +                          cd_putch(clear,(0xC0 + pos--));
   769  0093  3001               	movlw	1
   770  0094  02A9               	subwf	software_pwm@wait,f
   771  0095  3000               	movlw	0
   772  0096  1C03               	skipc
   773  0097  03AA               	decf	software_pwm@wait+1,f
   774  0098  02AA               	subwf	software_pwm@wait+1,f
   775  0099  0A29               	incf	software_pwm@wait,w
   776  009A  1D03               	skipz
   777  009B  28A0               	goto	u511
   778  009C  0A2A               	incf	software_pwm@wait+1,w
   779  009D  1D03               	btfss	3,2
   780  009E  28A0               	goto	u511
   781  009F  28A1               	goto	u510
   782  00A0                     u511:	
   783  00A0  28F6               	goto	l36
   784  00A1                     u510:	
   785  00A1                     l1217:	
   786                           
   787                           ;main.c: 27:             };main.c: 28:             if(duty_cycle == 0)
   788  00A1  30E8               	movlw	232
   789  00A2  00A9               	movwf	software_pwm@wait
   790  00A3  3003               	movlw	3
   791  00A4  00AA               	movwf	software_pwm@wait+1
   792  00A5                     l1219:	
   793                           
   794                           ;main.c: 30:                 clcd_putch(clear,(0xC0 + 0));
   795  00A5  0325               	decf	software_pwm@key,w
   796  00A6  1D03               	btfss	3,2
   797  00A7  28A9               	goto	u521
   798  00A8  28AA               	goto	u520
   799  00A9                     u521:	
   800  00A9  28C7               	goto	l1229
   801  00AA                     u520:	
   802  00AA                     l1221:	
   803                           
   804                           ;main.c: 31:             };main.c: 32:         }
   805  00AA  3064               	movlw	100
   806  00AB  062B               	xorwf	_duty_cycle,w
   807  00AC  1903               	btfsc	3,2
   808  00AD  28AF               	goto	u531
   809  00AE  28B0               	goto	u530
   810  00AF                     u531:	
   811  00AF  28F6               	goto	l36
   812  00B0                     u530:	
   813  00B0                     l1223:	
   814                           
   815                           ;main.c: 33: ;main.c: 34:     }
   816  00B0  082B               	movf	_duty_cycle,w
   817  00B1  3E06               	addlw	6
   818  00B2  00A3               	movwf	??_software_pwm
   819  00B3  0823               	movf	??_software_pwm,w
   820  00B4  00AB               	movwf	_duty_cycle
   821  00B5                     l1225:	
   822                           
   823                           ;main.c: 35: }
   824  00B5  082C               	movf	_pos,w
   825  00B6  3EC0               	addlw	192
   826  00B7  00A3               	movwf	??_software_pwm
   827  00B8  0823               	movf	??_software_pwm,w
   828  00B9  00A1               	movwf	clcd_putch@addr
   829  00BA  30FF               	movlw	255
   830  00BB  120A  118A  2233  120A  118A  	fcall	_clcd_putch
   831  00C0                     l1227:	
   832  00C0  3001               	movlw	1
   833  00C1  1283               	bcf	3,5	;RP0=0, select bank0
   834  00C2  1303               	bcf	3,6	;RP1=0, select bank0
   835  00C3  00A3               	movwf	??_software_pwm
   836  00C4  0823               	movf	??_software_pwm,w
   837  00C5  07AC               	addwf	_pos,f
   838  00C6  28F6               	goto	l36
   839  00C7                     l1229:	
   840  00C7  3002               	movlw	2
   841  00C8  0625               	xorwf	software_pwm@key,w
   842  00C9  1D03               	btfss	3,2
   843  00CA  28CC               	goto	u541
   844  00CB  28CD               	goto	u540
   845  00CC                     u541:	
   846  00CC  28F6               	goto	l36
   847  00CD                     u540:	
   848  00CD                     l1231:	
   849                           
   850                           ;main.c: 39: ;main.c: 40: 
   851  00CD  082B               	movf	_duty_cycle,w
   852  00CE  1903               	btfsc	3,2
   853  00CF  28D1               	goto	u551
   854  00D0  28D2               	goto	u550
   855  00D1                     u551:	
   856  00D1  28E6               	goto	l1239
   857  00D2                     u550:	
   858  00D2                     l1233:	
   859                           
   860                           ;main.c: 41:     init_clcd();;main.c: 42:     init_matrix_keypad();
   861  00D2  082B               	movf	_duty_cycle,w
   862  00D3  3EFA               	addlw	250
   863  00D4  00A3               	movwf	??_software_pwm
   864  00D5  0823               	movf	??_software_pwm,w
   865  00D6  00AB               	movwf	_duty_cycle
   866  00D7                     l1235:	
   867                           
   868                           ;main.c: 43:     init_timer2();
   869  00D7  082C               	movf	_pos,w
   870  00D8  3EC0               	addlw	192
   871  00D9  00A3               	movwf	??_software_pwm
   872  00DA  0823               	movf	??_software_pwm,w
   873  00DB  00A1               	movwf	clcd_putch@addr
   874  00DC  3001               	movlw	1
   875  00DD  120A  118A  2233  120A  118A  	fcall	_clcd_putch
   876  00E2                     l1237:	
   877  00E2  3001               	movlw	1
   878  00E3  1283               	bcf	3,5	;RP0=0, select bank0
   879  00E4  1303               	bcf	3,6	;RP1=0, select bank0
   880  00E5  02AC               	subwf	_pos,f
   881  00E6                     l1239:	
   882                           
   883                           ;main.c: 45:     PEIE = 1;
   884  00E6  082B               	movf	_duty_cycle,w
   885  00E7  1D03               	btfss	3,2
   886  00E8  28EA               	goto	u561
   887  00E9  28EB               	goto	u560
   888  00EA                     u561:	
   889  00EA  28F6               	goto	l32
   890  00EB                     u560:	
   891  00EB                     l1241:	
   892                           
   893                           ;main.c: 46:     GIE = 1;;main.c: 47: 
   894  00EB  30C0               	movlw	192
   895  00EC  00A3               	movwf	??_software_pwm
   896  00ED  0823               	movf	??_software_pwm,w
   897  00EE  00A1               	movwf	clcd_putch@addr
   898  00EF  3001               	movlw	1
   899  00F0  120A  118A  2233  120A  118A  	fcall	_clcd_putch
   900  00F5  28F6               	goto	l36
   901  00F6                     l32:	
   902  00F6                     l36:	
   903  00F6  0008               	return
   904  00F7                     __end_of_software_pwm:	
   905                           
   906                           	psect	text2
   907  0233                     __ptext2:	
   908 ;; *************** function _clcd_putch *****************
   909 ;; Defined at:
   910 ;;		line 56 in file "clcd.c"
   911 ;; Parameters:    Size  Location     Type
   912 ;;  data            1    wreg     const unsigned char 
   913 ;;  addr            1    1[BANK0 ] unsigned char 
   914 ;; Auto vars:     Size  Location     Type
   915 ;;  data            1    2[BANK0 ] const unsigned char 
   916 ;; Return value:  Size  Location     Type
   917 ;;                  1    wreg      void 
   918 ;; Registers used:
   919 ;;		wreg, status,2, status,0, pclath, cstack
   920 ;; Tracked objects:
   921 ;;		On entry : 0/0
   922 ;;		On exit  : 0/0
   923 ;;		Unchanged: 0/0
   924 ;; Data sizes:     COMMON   BANK0   BANK1   BANK3   BANK2
   925 ;;      Params:         0       1       0       0       0
   926 ;;      Locals:         0       1       0       0       0
   927 ;;      Temps:          0       0       0       0       0
   928 ;;      Totals:         0       2       0       0       0
   929 ;;Total ram usage:        2 bytes
   930 ;; Hardware stack levels used:    1
   931 ;; Hardware stack levels required when called:    2
   932 ;; This function calls:
   933 ;;		_clcd_write
   934 ;; This function is called by:
   935 ;;		_software_pwm
   936 ;; This function uses a non-reentrant model
   937 ;;
   938                           
   939                           
   940                           ;psect for function _clcd_putch
   941  0233                     _clcd_putch:	
   942                           
   943                           ;incstack = 0
   944                           ; Regs used in _clcd_putch: [wreg+status,2+status,0+pclath+cstack]
   945                           ;clcd_putch@data stored from wreg
   946  0233  1283               	bcf	3,5	;RP0=0, select bank0
   947  0234  1303               	bcf	3,6	;RP1=0, select bank0
   948  0235  00A2               	movwf	clcd_putch@data
   949  0236                     l1167:	
   950                           
   951                           ;clcd.c: 56: void clcd_putch(const char data, unsigned char addr);clcd.c: 57: {;clcd.c: 
      +                          58:     clcd_write(addr, 0);
   952  0236  01F4               	clrf	clcd_write@mode
   953  0237  0821               	movf	clcd_putch@addr,w
   954  0238  120A  118A  20F7  120A  118A  	fcall	_clcd_write
   955                           
   956                           ;clcd.c: 59:     clcd_write(data, 1);
   957  023D  01F4               	clrf	clcd_write@mode
   958  023E  0AF4               	incf	clcd_write@mode,f
   959  023F  1283               	bcf	3,5	;RP0=0, select bank0
   960  0240  1303               	bcf	3,6	;RP1=0, select bank0
   961  0241  0822               	movf	clcd_putch@data,w
   962  0242  120A  118A  20F7  120A  118A  	fcall	_clcd_write
   963  0247                     l73:	
   964  0247  0008               	return
   965  0248                     __end_of_clcd_putch:	
   966                           
   967                           	psect	text3
   968  01B5                     __ptext3:	
   969 ;; *************** function _read_matrix_keypad *****************
   970 ;; Defined at:
   971 ;;		line 45 in file "matrix_keypad.c"
   972 ;; Parameters:    Size  Location     Type
   973 ;;  mode            1    wreg     unsigned char 
   974 ;; Auto vars:     Size  Location     Type
   975 ;;  mode            1    0[BANK0 ] unsigned char 
   976 ;;  key             1    1[BANK0 ] unsigned char 
   977 ;; Return value:  Size  Location     Type
   978 ;;                  1    wreg      unsigned char 
   979 ;; Registers used:
   980 ;;		wreg, status,2, status,0, pclath, cstack
   981 ;; Tracked objects:
   982 ;;		On entry : 0/0
   983 ;;		On exit  : 0/0
   984 ;;		Unchanged: 0/0
   985 ;; Data sizes:     COMMON   BANK0   BANK1   BANK3   BANK2
   986 ;;      Params:         0       0       0       0       0
   987 ;;      Locals:         0       2       0       0       0
   988 ;;      Temps:          1       0       0       0       0
   989 ;;      Totals:         1       2       0       0       0
   990 ;;Total ram usage:        3 bytes
   991 ;; Hardware stack levels used:    1
   992 ;; Hardware stack levels required when called:    2
   993 ;; This function calls:
   994 ;;		_scan_keypad
   995 ;; This function is called by:
   996 ;;		_main
   997 ;; This function uses a non-reentrant model
   998 ;;
   999                           
  1000                           
  1001                           ;psect for function _read_matrix_keypad
  1002  01B5                     _read_matrix_keypad:	
  1003                           
  1004                           ;incstack = 0
  1005                           ; Regs used in _read_matrix_keypad: [wreg+status,2+status,0+pclath+cstack]
  1006                           ;read_matrix_keypad@mode stored from wreg
  1007  01B5  1283               	bcf	3,5	;RP0=0, select bank0
  1008  01B6  1303               	bcf	3,6	;RP1=0, select bank0
  1009  01B7  00A0               	movwf	read_matrix_keypad@mode
  1010  01B8                     l1253:	
  1011                           
  1012                           ;matrix_keypad.c: 45: unsigned char read_matrix_keypad(unsigned char mode);matrix_keypad
      +                          .c: 46: {;matrix_keypad.c: 47:     static unsigned char once = 1;;matrix_keypad.c: 48:  
      +                             unsigned char key;;matrix_keypad.c: 50:     key = scan_keypad();
  1013  01B8  120A  118A  218A  120A  118A  	fcall	_scan_keypad
  1014  01BD  00F6               	movwf	??_read_matrix_keypad
  1015  01BE  0876               	movf	??_read_matrix_keypad,w
  1016  01BF  1283               	bcf	3,5	;RP0=0, select bank0
  1017  01C0  1303               	bcf	3,6	;RP1=0, select bank0
  1018  01C1  00A1               	movwf	read_matrix_keypad@key
  1019  01C2                     l1255:	
  1020                           
  1021                           ;matrix_keypad.c: 52:     if (mode == 0)
  1022  01C2  0820               	movf	read_matrix_keypad@mode,w
  1023  01C3  1D03               	btfss	3,2
  1024  01C4  29C6               	goto	u571
  1025  01C5  29C7               	goto	u570
  1026  01C6                     u571:	
  1027  01C6  29C9               	goto	l1263
  1028  01C7                     u570:	
  1029  01C7                     l1257:	
  1030                           
  1031                           ;matrix_keypad.c: 53:     {;matrix_keypad.c: 54:         return key;
  1032  01C7  0821               	movf	read_matrix_keypad@key,w
  1033  01C8  29DD               	goto	l113
  1034  01C9                     l1263:	
  1035                           
  1036                           ;matrix_keypad.c: 57:     {;matrix_keypad.c: 58:         if ((key != 0xFF) && once)
  1037  01C9  0A21               	incf	read_matrix_keypad@key,w
  1038  01CA  1903               	btfsc	3,2
  1039  01CB  29CD               	goto	u581
  1040  01CC  29CE               	goto	u580
  1041  01CD                     u581:	
  1042  01CD  29D5               	goto	l1275
  1043  01CE                     u580:	
  1044  01CE                     l1265:	
  1045  01CE  0879               	movf	read_matrix_keypad@once,w
  1046  01CF  1903               	btfsc	3,2
  1047  01D0  29D2               	goto	u591
  1048  01D1  29D3               	goto	u590
  1049  01D2                     u591:	
  1050  01D2  29D5               	goto	l1275
  1051  01D3                     u590:	
  1052  01D3                     l1267:	
  1053                           
  1054                           ;matrix_keypad.c: 59:         {;matrix_keypad.c: 60:             once = 0;
  1055  01D3  01F9               	clrf	read_matrix_keypad@once
  1056  01D4  29C7               	goto	l1257
  1057  01D5                     l1275:	
  1058  01D5  0A21               	incf	read_matrix_keypad@key,w
  1059  01D6  1D03               	btfss	3,2
  1060  01D7  29D9               	goto	u601
  1061  01D8  29DA               	goto	u600
  1062  01D9                     u601:	
  1063  01D9  29DC               	goto	l1279
  1064  01DA                     u600:	
  1065  01DA                     l1277:	
  1066                           
  1067                           ;matrix_keypad.c: 65:         {;matrix_keypad.c: 66:             once = 1;
  1068  01DA  01F9               	clrf	read_matrix_keypad@once
  1069  01DB  0AF9               	incf	read_matrix_keypad@once,f
  1070  01DC                     l1279:	
  1071                           
  1072                           ;matrix_keypad.c: 70:     return 0xFF;
  1073  01DC  30FF               	movlw	255
  1074  01DD                     l113:	
  1075  01DD  0008               	return
  1076  01DE                     __end_of_read_matrix_keypad:	
  1077                           
  1078                           	psect	text4
  1079  018A                     __ptext4:	
  1080 ;; *************** function _scan_keypad *****************
  1081 ;; Defined at:
  1082 ;;		line 19 in file "matrix_keypad.c"
  1083 ;; Parameters:    Size  Location     Type
  1084 ;;		None
  1085 ;; Auto vars:     Size  Location     Type
  1086 ;;  i               2    4[COMMON] int 
  1087 ;; Return value:  Size  Location     Type
  1088 ;;                  1    wreg      unsigned char 
  1089 ;; Registers used:
  1090 ;;		wreg, status,2, status,0
  1091 ;; Tracked objects:
  1092 ;;		On entry : 0/0
  1093 ;;		On exit  : 0/0
  1094 ;;		Unchanged: 0/0
  1095 ;; Data sizes:     COMMON   BANK0   BANK1   BANK3   BANK2
  1096 ;;      Params:         0       0       0       0       0
  1097 ;;      Locals:         2       0       0       0       0
  1098 ;;      Temps:          0       0       0       0       0
  1099 ;;      Totals:         2       0       0       0       0
  1100 ;;Total ram usage:        2 bytes
  1101 ;; Hardware stack levels used:    1
  1102 ;; Hardware stack levels required when called:    1
  1103 ;; This function calls:
  1104 ;;		Nothing
  1105 ;; This function is called by:
  1106 ;;		_read_matrix_keypad
  1107 ;; This function uses a non-reentrant model
  1108 ;;
  1109                           
  1110                           
  1111                           ;psect for function _scan_keypad
  1112  018A                     _scan_keypad:	
  1113  018A                     l1185:	
  1114                           ;incstack = 0
  1115                           ; Regs used in _scan_keypad: [wreg+status,2+status,0]
  1116                           
  1117                           
  1118                           ;matrix_keypad.c: 21:     int i;;matrix_keypad.c: 24:     RD1 = 1;
  1119  018A  1283               	bcf	3,5	;RP0=0, select bank0
  1120  018B  1303               	bcf	3,6	;RP1=0, select bank0
  1121  018C  1488               	bsf	8,1	;volatile
  1122  018D                     l1187:	
  1123                           
  1124                           ;matrix_keypad.c: 26:     for (i = 100; i--; );
  1125  018D  3064               	movlw	100
  1126  018E  00F4               	movwf	scan_keypad@i
  1127  018F  3000               	movlw	0
  1128  0190  00F5               	movwf	scan_keypad@i+1
  1129  0191                     l1189:	
  1130  0191  30FF               	movlw	255
  1131  0192  07F4               	addwf	scan_keypad@i,f
  1132  0193  1803               	skipnc
  1133  0194  0AF5               	incf	scan_keypad@i+1,f
  1134  0195  30FF               	movlw	255
  1135  0196  07F5               	addwf	scan_keypad@i+1,f
  1136  0197  0A74               	incf	scan_keypad@i,w
  1137  0198  1D03               	skipz
  1138  0199  299E               	goto	u471
  1139  019A  0A75               	incf	scan_keypad@i+1,w
  1140  019B  1D03               	btfss	3,2
  1141  019C  299E               	goto	u471
  1142  019D  299F               	goto	u470
  1143  019E                     u471:	
  1144  019E  2991               	goto	l1189
  1145  019F                     u470:	
  1146  019F                     l101:	
  1147                           
  1148                           ;matrix_keypad.c: 28:     if (RB0 == 0)
  1149  019F  1283               	bcf	3,5	;RP0=0, select bank0
  1150  01A0  1303               	bcf	3,6	;RP1=0, select bank0
  1151  01A1  1806               	btfsc	6,0	;volatile
  1152  01A2  29A4               	goto	u481
  1153  01A3  29A5               	goto	u480
  1154  01A4                     u481:	
  1155  01A4  29A7               	goto	l102
  1156  01A5                     u480:	
  1157  01A5                     l1191:	
  1158                           
  1159                           ;matrix_keypad.c: 29:     {;matrix_keypad.c: 30:         return 1;
  1160  01A5  3001               	movlw	1
  1161  01A6  29B4               	goto	l103
  1162  01A7                     l102:	
  1163                           ;matrix_keypad.c: 32:     else if (RB1 == 0)
  1164                           
  1165  01A7  1886               	btfsc	6,1	;volatile
  1166  01A8  29AA               	goto	u491
  1167  01A9  29AB               	goto	u490
  1168  01AA                     u491:	
  1169  01AA  29AD               	goto	l105
  1170  01AB                     u490:	
  1171  01AB                     l1197:	
  1172                           
  1173                           ;matrix_keypad.c: 33:     {;matrix_keypad.c: 34:         return 2;
  1174  01AB  3002               	movlw	2
  1175  01AC  29B4               	goto	l103
  1176  01AD                     l105:	
  1177                           ;matrix_keypad.c: 36:     else if (RB2 == 0)
  1178                           
  1179  01AD  1906               	btfsc	6,2	;volatile
  1180  01AE  29B0               	goto	u501
  1181  01AF  29B1               	goto	u500
  1182  01B0                     u501:	
  1183  01B0  29B3               	goto	l1207
  1184  01B1                     u500:	
  1185  01B1                     l1203:	
  1186                           
  1187                           ;matrix_keypad.c: 37:     {;matrix_keypad.c: 38:         return 3;
  1188  01B1  3003               	movlw	3
  1189  01B2  29B4               	goto	l103
  1190  01B3                     l1207:	
  1191                           
  1192                           ;matrix_keypad.c: 42:     return 0xFF;
  1193  01B3  30FF               	movlw	255
  1194  01B4                     l103:	
  1195  01B4  0008               	return
  1196  01B5                     __end_of_scan_keypad:	
  1197                           
  1198                           	psect	text5
  1199  01DE                     __ptext5:	
  1200 ;; *************** function _init_config *****************
  1201 ;; Defined at:
  1202 ;;		line 53 in file "main.c"
  1203 ;; Parameters:    Size  Location     Type
  1204 ;;		None
  1205 ;; Auto vars:     Size  Location     Type
  1206 ;;		None
  1207 ;; Return value:  Size  Location     Type
  1208 ;;                  1    wreg      void 
  1209 ;; Registers used:
  1210 ;;		wreg, fsr0l, fsr0h, status,2, status,0, pclath, cstack
  1211 ;; Tracked objects:
  1212 ;;		On entry : 0/0
  1213 ;;		On exit  : 0/0
  1214 ;;		Unchanged: 0/0
  1215 ;; Data sizes:     COMMON   BANK0   BANK1   BANK3   BANK2
  1216 ;;      Params:         0       0       0       0       0
  1217 ;;      Locals:         0       0       0       0       0
  1218 ;;      Temps:          0       1       0       0       0
  1219 ;;      Totals:         0       1       0       0       0
  1220 ;;Total ram usage:        1 bytes
  1221 ;; Hardware stack levels used:    1
  1222 ;; Hardware stack levels required when called:    4
  1223 ;; This function calls:
  1224 ;;		_clcd_print
  1225 ;;		_init_clcd
  1226 ;;		_init_matrix_keypad
  1227 ;;		_init_timer2
  1228 ;; This function is called by:
  1229 ;;		_main
  1230 ;; This function uses a non-reentrant model
  1231 ;;
  1232                           
  1233                           
  1234                           ;psect for function _init_config
  1235  01DE                     _init_config:	
  1236  01DE                     l1243:	
  1237                           ;incstack = 0
  1238                           ; Regs used in _init_config: [wreg-fsr0h+status,2+status,0+pclath+cstack]
  1239                           
  1240                           
  1241                           ;main.c: 54:     unsigned char key;
  1242  01DE  1683               	bsf	3,5	;RP0=1, select bank1
  1243  01DF  1303               	bcf	3,6	;RP1=0, select bank1
  1244  01E0  1008               	bcf	8,0	;volatile
  1245                           
  1246                           ;main.c: 55: 
  1247  01E1  1283               	bcf	3,5	;RP0=0, select bank0
  1248  01E2  1303               	bcf	3,6	;RP1=0, select bank0
  1249  01E3  1008               	bcf	8,0	;volatile
  1250  01E4                     l1245:	
  1251                           
  1252                           ;main.c: 58:         key = read_matrix_keypad(0);
  1253  01E4  120A  118A  2260  120A  118A  	fcall	_init_clcd
  1254                           
  1255                           ;main.c: 59:         software_pwm(key);
  1256  01E9  120A  118A  2255  120A  118A  	fcall	_init_matrix_keypad
  1257                           
  1258                           ;main.c: 60:     }
  1259  01EE  120A  118A  2248  120A  118A  	fcall	_init_timer2
  1260  01F3                     l1247:	
  1261                           
  1262                           ;main.c: 62: }
  1263  01F3  170B               	bsf	11,6	;volatile
  1264  01F4                     l1249:	
  1265  01F4  178B               	bsf	11,7	;volatile
  1266  01F5                     l1251:	
  1267  01F5  3080               	movlw	128
  1268  01F6  1283               	bcf	3,5	;RP0=0, select bank0
  1269  01F7  1303               	bcf	3,6	;RP1=0, select bank0
  1270  01F8  00A4               	movwf	??_init_config
  1271  01F9  0824               	movf	??_init_config,w
  1272  01FA  00A1               	movwf	clcd_print@addr
  1273  01FB  3001               	movlw	(low ((STR_1-__stringbase)| (0+32768)))& (0+255)
  1274  01FC  120A  118A  212F  120A  118A  	fcall	_clcd_print
  1275  0201                     l39:	
  1276  0201  0008               	return
  1277  0202                     __end_of_init_config:	
  1278                           
  1279                           	psect	text6
  1280  0248                     __ptext6:	
  1281 ;; *************** function _init_timer2 *****************
  1282 ;; Defined at:
  1283 ;;		line 4 in file "Timers.c"
  1284 ;; Parameters:    Size  Location     Type
  1285 ;;		None
  1286 ;; Auto vars:     Size  Location     Type
  1287 ;;		None
  1288 ;; Return value:  Size  Location     Type
  1289 ;;                  1    wreg      void 
  1290 ;; Registers used:
  1291 ;;		wreg
  1292 ;; Tracked objects:
  1293 ;;		On entry : 0/0
  1294 ;;		On exit  : 0/0
  1295 ;;		Unchanged: 0/0
  1296 ;; Data sizes:     COMMON   BANK0   BANK1   BANK3   BANK2
  1297 ;;      Params:         0       0       0       0       0
  1298 ;;      Locals:         0       0       0       0       0
  1299 ;;      Temps:          0       0       0       0       0
  1300 ;;      Totals:         0       0       0       0       0
  1301 ;;Total ram usage:        0 bytes
  1302 ;; Hardware stack levels used:    1
  1303 ;; Hardware stack levels required when called:    1
  1304 ;; This function calls:
  1305 ;;		Nothing
  1306 ;; This function is called by:
  1307 ;;		_init_config
  1308 ;; This function uses a non-reentrant model
  1309 ;;
  1310                           
  1311                           
  1312                           ;psect for function _init_timer2
  1313  0248                     _init_timer2:	
  1314  0248                     l993:	
  1315                           ;incstack = 0
  1316                           ; Regs used in _init_timer2: [wreg]
  1317                           
  1318                           
  1319                           ;Timers.c: 8:     T2CKPS0 = 1;
  1320  0248  1283               	bcf	3,5	;RP0=0, select bank0
  1321  0249  1303               	bcf	3,6	;RP1=0, select bank0
  1322  024A  1412               	bsf	18,0	;volatile
  1323                           
  1324                           ;Timers.c: 9:     T2CKPS1 = 0;
  1325  024B  1092               	bcf	18,1	;volatile
  1326                           
  1327                           ;Timers.c: 13:     TMR2IE = 1;
  1328  024C  1683               	bsf	3,5	;RP0=1, select bank1
  1329  024D  1303               	bcf	3,6	;RP1=0, select bank1
  1330  024E  148C               	bsf	12,1	;volatile
  1331  024F                     l995:	
  1332                           
  1333                           ;Timers.c: 16:     PR2 = 250;
  1334  024F  30FA               	movlw	250
  1335  0250  0092               	movwf	18	;volatile
  1336  0251                     l997:	
  1337                           
  1338                           ;Timers.c: 18:     TMR2ON = 1;
  1339  0251  1283               	bcf	3,5	;RP0=0, select bank0
  1340  0252  1303               	bcf	3,6	;RP1=0, select bank0
  1341  0253  1512               	bsf	18,2	;volatile
  1342  0254                     l130:	
  1343  0254  0008               	return
  1344  0255                     __end_of_init_timer2:	
  1345                           
  1346                           	psect	text7
  1347  0255                     __ptext7:	
  1348 ;; *************** function _init_matrix_keypad *****************
  1349 ;; Defined at:
  1350 ;;		line 4 in file "matrix_keypad.c"
  1351 ;; Parameters:    Size  Location     Type
  1352 ;;		None
  1353 ;; Auto vars:     Size  Location     Type
  1354 ;;		None
  1355 ;; Return value:  Size  Location     Type
  1356 ;;                  1    wreg      void 
  1357 ;; Registers used:
  1358 ;;		wreg, status,2
  1359 ;; Tracked objects:
  1360 ;;		On entry : 0/0
  1361 ;;		On exit  : 0/0
  1362 ;;		Unchanged: 0/0
  1363 ;; Data sizes:     COMMON   BANK0   BANK1   BANK3   BANK2
  1364 ;;      Params:         0       0       0       0       0
  1365 ;;      Locals:         0       0       0       0       0
  1366 ;;      Temps:          0       0       0       0       0
  1367 ;;      Totals:         0       0       0       0       0
  1368 ;;Total ram usage:        0 bytes
  1369 ;; Hardware stack levels used:    1
  1370 ;; Hardware stack levels required when called:    1
  1371 ;; This function calls:
  1372 ;;		Nothing
  1373 ;; This function is called by:
  1374 ;;		_init_config
  1375 ;; This function uses a non-reentrant model
  1376 ;;
  1377                           
  1378                           
  1379                           ;psect for function _init_matrix_keypad
  1380  0255                     _init_matrix_keypad:	
  1381  0255                     l985:	
  1382                           ;incstack = 0
  1383                           ; Regs used in _init_matrix_keypad: [wreg+status,2]
  1384                           
  1385                           
  1386                           ;matrix_keypad.c: 7:     TRISB = TRISB | 0x07;
  1387  0255  1683               	bsf	3,5	;RP0=1, select bank1
  1388  0256  1303               	bcf	3,6	;RP1=0, select bank1
  1389  0257  0806               	movf	6,w	;volatile
  1390  0258  3807               	iorlw	7
  1391  0259  0086               	movwf	6	;volatile
  1392  025A                     l987:	
  1393                           
  1394                           ;matrix_keypad.c: 9:     TRISD1 = 1;
  1395  025A  1488               	bsf	8,1	;volatile
  1396  025B                     l989:	
  1397                           
  1398                           ;matrix_keypad.c: 12:     nRBPU = 0;
  1399  025B  1381               	bcf	1,7	;volatile
  1400  025C                     l991:	
  1401                           
  1402                           ;matrix_keypad.c: 16:     RD1 = 1;
  1403  025C  1283               	bcf	3,5	;RP0=0, select bank0
  1404  025D  1303               	bcf	3,6	;RP1=0, select bank0
  1405  025E  1488               	bsf	8,1	;volatile
  1406  025F                     l96:	
  1407  025F  0008               	return
  1408  0260                     __end_of_init_matrix_keypad:	
  1409                           
  1410                           	psect	text8
  1411  0260                     __ptext8:	
  1412 ;; *************** function _init_clcd *****************
  1413 ;; Defined at:
  1414 ;;		line 44 in file "clcd.c"
  1415 ;; Parameters:    Size  Location     Type
  1416 ;;		None
  1417 ;; Auto vars:     Size  Location     Type
  1418 ;;		None
  1419 ;; Return value:  Size  Location     Type
  1420 ;;                  1    wreg      void 
  1421 ;; Registers used:
  1422 ;;		wreg, status,2, status,0, pclath, cstack
  1423 ;; Tracked objects:
  1424 ;;		On entry : 0/0
  1425 ;;		On exit  : 0/0
  1426 ;;		Unchanged: 0/0
  1427 ;; Data sizes:     COMMON   BANK0   BANK1   BANK3   BANK2
  1428 ;;      Params:         0       0       0       0       0
  1429 ;;      Locals:         0       0       0       0       0
  1430 ;;      Temps:          0       0       0       0       0
  1431 ;;      Totals:         0       0       0       0       0
  1432 ;;Total ram usage:        0 bytes
  1433 ;; Hardware stack levels used:    1
  1434 ;; Hardware stack levels required when called:    3
  1435 ;; This function calls:
  1436 ;;		_init_display_controller
  1437 ;; This function is called by:
  1438 ;;		_init_config
  1439 ;; This function uses a non-reentrant model
  1440 ;;
  1441                           
  1442                           
  1443                           ;psect for function _init_clcd
  1444  0260                     _init_clcd:	
  1445  0260                     l1169:	
  1446                           ;incstack = 0
  1447                           ; Regs used in _init_clcd: [wreg+status,2+status,0+pclath+cstack]
  1448                           
  1449                           
  1450                           ;clcd.c: 47:     TRISD = 0x00;
  1451  0260  1683               	bsf	3,5	;RP0=1, select bank1
  1452  0261  1303               	bcf	3,6	;RP1=0, select bank1
  1453  0262  0188               	clrf	8	;volatile
  1454  0263                     l1171:	
  1455                           
  1456                           ;clcd.c: 50:     TRISE2 = 0;
  1457  0263  1109               	bcf	9,2	;volatile
  1458  0264                     l1173:	
  1459                           
  1460                           ;clcd.c: 51:     TRISE1 = 0;
  1461  0264  1089               	bcf	9,1	;volatile
  1462  0265                     l1175:	
  1463                           
  1464                           ;clcd.c: 53:     init_display_controller();
  1465  0265  120A  118A  201F  120A  118A  	fcall	_init_display_controller
  1466  026A                     l70:	
  1467  026A  0008               	return
  1468  026B                     __end_of_init_clcd:	
  1469                           
  1470                           	psect	text9
  1471  001F                     __ptext9:	
  1472 ;; *************** function _init_display_controller *****************
  1473 ;; Defined at:
  1474 ;;		line 21 in file "clcd.c"
  1475 ;; Parameters:    Size  Location     Type
  1476 ;;		None
  1477 ;; Auto vars:     Size  Location     Type
  1478 ;;		None
  1479 ;; Return value:  Size  Location     Type
  1480 ;;                  1    wreg      void 
  1481 ;; Registers used:
  1482 ;;		wreg, status,2, status,0, pclath, cstack
  1483 ;; Tracked objects:
  1484 ;;		On entry : 0/0
  1485 ;;		On exit  : 0/0
  1486 ;;		Unchanged: 0/0
  1487 ;; Data sizes:     COMMON   BANK0   BANK1   BANK3   BANK2
  1488 ;;      Params:         0       0       0       0       0
  1489 ;;      Locals:         0       0       0       0       0
  1490 ;;      Temps:          0       2       0       0       0
  1491 ;;      Totals:         0       2       0       0       0
  1492 ;;Total ram usage:        2 bytes
  1493 ;; Hardware stack levels used:    1
  1494 ;; Hardware stack levels required when called:    2
  1495 ;; This function calls:
  1496 ;;		_clcd_write
  1497 ;; This function is called by:
  1498 ;;		_init_clcd
  1499 ;; This function uses a non-reentrant model
  1500 ;;
  1501                           
  1502                           
  1503                           ;psect for function _init_display_controller
  1504  001F                     _init_display_controller:	
  1505  001F                     l1143:	
  1506                           ;incstack = 0
  1507                           ; Regs used in _init_display_controller: [wreg+status,2+status,0+pclath+cstack]
  1508                           
  1509                           
  1510                           ;clcd.c: 24:     _delay((unsigned long)((30)*(20000000/4000.0)));
  1511  001F  30C3               	movlw	195
  1512  0020  1283               	bcf	3,5	;RP0=0, select bank0
  1513  0021  1303               	bcf	3,6	;RP1=0, select bank0
  1514  0022  00A2               	movwf	??_init_display_controller+1
  1515  0023  30CC               	movlw	204
  1516  0024  00A1               	movwf	??_init_display_controller
  1517  0025                     u617:	
  1518  0025  0BA1               	decfsz	??_init_display_controller,f
  1519  0026  2825               	goto	u617
  1520  0027  0BA2               	decfsz	??_init_display_controller+1,f
  1521  0028  2825               	goto	u617
  1522  0029  0000               	nop
  1523  002A                     l1145:	
  1524                           
  1525                           ;clcd.c: 27:     clcd_write(0x33, 0);
  1526  002A  01F4               	clrf	clcd_write@mode
  1527  002B  3033               	movlw	51
  1528  002C  120A  118A  20F7  120A  118A  	fcall	_clcd_write
  1529  0031                     l1147:	
  1530                           
  1531                           ;clcd.c: 28:     _delay((unsigned long)((4100)*(20000000/4000000.0)));
  1532  0031  301B               	movlw	27
  1533  0032  1283               	bcf	3,5	;RP0=0, select bank0
  1534  0033  1303               	bcf	3,6	;RP1=0, select bank0
  1535  0034  00A2               	movwf	??_init_display_controller+1
  1536  0035  309D               	movlw	157
  1537  0036  00A1               	movwf	??_init_display_controller
  1538  0037                     u627:	
  1539  0037  0BA1               	decfsz	??_init_display_controller,f
  1540  0038  2837               	goto	u627
  1541  0039  0BA2               	decfsz	??_init_display_controller+1,f
  1542  003A  2837               	goto	u627
  1543  003B  283C               	nop2
  1544                           
  1545                           ;clcd.c: 29:     clcd_write(0x33, 0);
  1546  003C  01F4               	clrf	clcd_write@mode
  1547  003D  3033               	movlw	51
  1548  003E  120A  118A  20F7  120A  118A  	fcall	_clcd_write
  1549  0043                     l1149:	
  1550                           
  1551                           ;clcd.c: 30:     _delay((unsigned long)((100)*(20000000/4000000.0)));
  1552  0043  30A5               	movlw	165
  1553  0044  1283               	bcf	3,5	;RP0=0, select bank0
  1554  0045  1303               	bcf	3,6	;RP1=0, select bank0
  1555  0046  00A1               	movwf	??_init_display_controller
  1556  0047                     u637:	
  1557  0047  0BA1               	decfsz	??_init_display_controller,f
  1558  0048  2847               	goto	u637
  1559  0049  284A               	nop2
  1560  004A                     l1151:	
  1561                           
  1562                           ;clcd.c: 31:     clcd_write(0x33, 0);
  1563  004A  01F4               	clrf	clcd_write@mode
  1564  004B  3033               	movlw	51
  1565  004C  120A  118A  20F7  120A  118A  	fcall	_clcd_write
  1566  0051                     l1153:	
  1567                           
  1568                           ;clcd.c: 32:     _delay((unsigned long)((1)*(20000000/4000000.0)));
  1569  0051  2852               	nop2	;2 cycle nop
  1570  0052  2853               	nop2	;2 cycle nop
  1571  0053  0000               	nop
  1572  0054                     l1155:	
  1573                           
  1574                           ;clcd.c: 34:     clcd_write(0x02, 0);
  1575  0054  01F4               	clrf	clcd_write@mode
  1576  0055  3002               	movlw	2
  1577  0056  120A  118A  20F7  120A  118A  	fcall	_clcd_write
  1578  005B                     l1157:	
  1579                           
  1580                           ;clcd.c: 35:     _delay((unsigned long)((100)*(20000000/4000000.0)));
  1581  005B  30A5               	movlw	165
  1582  005C  1283               	bcf	3,5	;RP0=0, select bank0
  1583  005D  1303               	bcf	3,6	;RP1=0, select bank0
  1584  005E  00A1               	movwf	??_init_display_controller
  1585  005F                     u647:	
  1586  005F  0BA1               	decfsz	??_init_display_controller,f
  1587  0060  285F               	goto	u647
  1588  0061  2862               	nop2
  1589                           
  1590                           ;clcd.c: 36:     clcd_write(0x28, 0);
  1591  0062  01F4               	clrf	clcd_write@mode
  1592  0063  3028               	movlw	40
  1593  0064  120A  118A  20F7  120A  118A  	fcall	_clcd_write
  1594  0069                     l1159:	
  1595                           
  1596                           ;clcd.c: 37:     _delay((unsigned long)((100)*(20000000/4000000.0)));
  1597  0069  30A5               	movlw	165
  1598  006A  1283               	bcf	3,5	;RP0=0, select bank0
  1599  006B  1303               	bcf	3,6	;RP1=0, select bank0
  1600  006C  00A1               	movwf	??_init_display_controller
  1601  006D                     u657:	
  1602  006D  0BA1               	decfsz	??_init_display_controller,f
  1603  006E  286D               	goto	u657
  1604  006F  2870               	nop2
  1605  0070                     l1161:	
  1606                           
  1607                           ;clcd.c: 38:     clcd_write(0x01, 0);
  1608  0070  01F4               	clrf	clcd_write@mode
  1609  0071  3001               	movlw	1
  1610  0072  120A  118A  20F7  120A  118A  	fcall	_clcd_write
  1611                           
  1612                           ;clcd.c: 39:     _delay((unsigned long)((500)*(20000000/4000000.0)));
  1613  0077  3004               	movlw	4
  1614  0078  1283               	bcf	3,5	;RP0=0, select bank0
  1615  0079  1303               	bcf	3,6	;RP1=0, select bank0
  1616  007A  00A2               	movwf	??_init_display_controller+1
  1617  007B  303D               	movlw	61
  1618  007C  00A1               	movwf	??_init_display_controller
  1619  007D                     u667:	
  1620  007D  0BA1               	decfsz	??_init_display_controller,f
  1621  007E  287D               	goto	u667
  1622  007F  0BA2               	decfsz	??_init_display_controller+1,f
  1623  0080  287D               	goto	u667
  1624  0081                     l1163:	
  1625                           
  1626                           ;clcd.c: 40:     clcd_write(0x0C, 0);
  1627  0081  01F4               	clrf	clcd_write@mode
  1628  0082  300C               	movlw	12
  1629  0083  120A  118A  20F7  120A  118A  	fcall	_clcd_write
  1630  0088                     l1165:	
  1631                           
  1632                           ;clcd.c: 41:     _delay((unsigned long)((100)*(20000000/4000000.0)));
  1633  0088  30A5               	movlw	165
  1634  0089  1283               	bcf	3,5	;RP0=0, select bank0
  1635  008A  1303               	bcf	3,6	;RP1=0, select bank0
  1636  008B  00A1               	movwf	??_init_display_controller
  1637  008C                     u677:	
  1638  008C  0BA1               	decfsz	??_init_display_controller,f
  1639  008D  288C               	goto	u677
  1640  008E  288F               	nop2
  1641  008F                     l67:	
  1642  008F  0008               	return
  1643  0090                     __end_of_init_display_controller:	
  1644                           
  1645                           	psect	text10
  1646  012F                     __ptext10:	
  1647 ;; *************** function _clcd_print *****************
  1648 ;; Defined at:
  1649 ;;		line 62 in file "clcd.c"
  1650 ;; Parameters:    Size  Location     Type
  1651 ;;  str             1    wreg     PTR const unsigned char 
  1652 ;;		 -> STR_1(17), 
  1653 ;;  addr            1    1[BANK0 ] unsigned char 
  1654 ;; Auto vars:     Size  Location     Type
  1655 ;;  str             1    3[BANK0 ] PTR const unsigned char 
  1656 ;;		 -> STR_1(17), 
  1657 ;; Return value:  Size  Location     Type
  1658 ;;                  1    wreg      void 
  1659 ;; Registers used:
  1660 ;;		wreg, fsr0l, fsr0h, status,2, status,0, pclath, cstack
  1661 ;; Tracked objects:
  1662 ;;		On entry : 0/0
  1663 ;;		On exit  : 0/0
  1664 ;;		Unchanged: 0/0
  1665 ;; Data sizes:     COMMON   BANK0   BANK1   BANK3   BANK2
  1666 ;;      Params:         0       1       0       0       0
  1667 ;;      Locals:         0       1       0       0       0
  1668 ;;      Temps:          0       1       0       0       0
  1669 ;;      Totals:         0       3       0       0       0
  1670 ;;Total ram usage:        3 bytes
  1671 ;; Hardware stack levels used:    1
  1672 ;; Hardware stack levels required when called:    2
  1673 ;; This function calls:
  1674 ;;		_clcd_write
  1675 ;; This function is called by:
  1676 ;;		_init_config
  1677 ;; This function uses a non-reentrant model
  1678 ;;
  1679                           
  1680                           
  1681                           ;psect for function _clcd_print
  1682  012F                     _clcd_print:	
  1683                           
  1684                           ;incstack = 0
  1685                           ; Regs used in _clcd_print: [wreg-fsr0h+status,2+status,0+pclath+cstack]
  1686                           ;clcd_print@str stored from wreg
  1687  012F  1283               	bcf	3,5	;RP0=0, select bank0
  1688  0130  1303               	bcf	3,6	;RP1=0, select bank0
  1689  0131  00A3               	movwf	clcd_print@str
  1690  0132                     l1177:	
  1691                           
  1692                           ;clcd.c: 62: void clcd_print(const char *str, unsigned char addr);clcd.c: 63: {;clcd.c: 
      +                          64:     clcd_write(addr, 0);
  1693  0132  01F4               	clrf	clcd_write@mode
  1694  0133  0821               	movf	clcd_print@addr,w
  1695  0134  120A  118A  20F7  120A  118A  	fcall	_clcd_write
  1696                           
  1697                           ;clcd.c: 66:     while (*str != '\0')
  1698  0139  294E               	goto	l1183
  1699  013A                     l1179:	
  1700                           
  1701                           ;clcd.c: 67:     {;clcd.c: 68:         clcd_write(*str, 1);
  1702  013A  01F4               	clrf	clcd_write@mode
  1703  013B  0AF4               	incf	clcd_write@mode,f
  1704  013C  0823               	movf	clcd_print@str,w
  1705  013D  0084               	movwf	4
  1706  013E  120A  118A  221C  120A  118A  	fcall	stringdir
  1707  0143  120A  118A  20F7  120A  118A  	fcall	_clcd_write
  1708  0148                     l1181:	
  1709                           
  1710                           ;clcd.c: 69:         str++;
  1711  0148  3001               	movlw	1
  1712  0149  1283               	bcf	3,5	;RP0=0, select bank0
  1713  014A  1303               	bcf	3,6	;RP1=0, select bank0
  1714  014B  00A2               	movwf	??_clcd_print
  1715  014C  0822               	movf	??_clcd_print,w
  1716  014D  07A3               	addwf	clcd_print@str,f
  1717  014E                     l1183:	
  1718                           
  1719                           ;clcd.c: 66:     while (*str != '\0')
  1720  014E  1283               	bcf	3,5	;RP0=0, select bank0
  1721  014F  1303               	bcf	3,6	;RP1=0, select bank0
  1722  0150  0823               	movf	clcd_print@str,w
  1723  0151  0084               	movwf	4
  1724  0152  120A  118A  221C  120A  118A  	fcall	stringdir
  1725  0157  3A00               	xorlw	0
  1726  0158  1D03               	skipz
  1727  0159  295B               	goto	u461
  1728  015A  295C               	goto	u460
  1729  015B                     u461:	
  1730  015B  293A               	goto	l1179
  1731  015C                     u460:	
  1732  015C                     l79:	
  1733  015C  0008               	return
  1734  015D                     __end_of_clcd_print:	
  1735                           
  1736                           	psect	text11
  1737  00F7                     __ptext11:	
  1738 ;; *************** function _clcd_write *****************
  1739 ;; Defined at:
  1740 ;;		line 4 in file "clcd.c"
  1741 ;; Parameters:    Size  Location     Type
  1742 ;;  byte            1    wreg     unsigned char 
  1743 ;;  mode            1    4[COMMON] unsigned char 
  1744 ;; Auto vars:     Size  Location     Type
  1745 ;;  byte            1    0[BANK0 ] unsigned char 
  1746 ;; Return value:  Size  Location     Type
  1747 ;;                  1    wreg      void 
  1748 ;; Registers used:
  1749 ;;		wreg, status,2, status,0
  1750 ;; Tracked objects:
  1751 ;;		On entry : 0/0
  1752 ;;		On exit  : 0/0
  1753 ;;		Unchanged: 0/0
  1754 ;; Data sizes:     COMMON   BANK0   BANK1   BANK3   BANK2
  1755 ;;      Params:         1       0       0       0       0
  1756 ;;      Locals:         0       1       0       0       0
  1757 ;;      Temps:          2       0       0       0       0
  1758 ;;      Totals:         3       1       0       0       0
  1759 ;;Total ram usage:        4 bytes
  1760 ;; Hardware stack levels used:    1
  1761 ;; Hardware stack levels required when called:    1
  1762 ;; This function calls:
  1763 ;;		Nothing
  1764 ;; This function is called by:
  1765 ;;		_init_display_controller
  1766 ;;		_clcd_putch
  1767 ;;		_clcd_print
  1768 ;; This function uses a non-reentrant model
  1769 ;;
  1770                           
  1771                           
  1772                           ;psect for function _clcd_write
  1773  00F7                     _clcd_write:	
  1774                           
  1775                           ;incstack = 0
  1776                           ; Regs used in _clcd_write: [wreg+status,2+status,0]
  1777                           ;clcd_write@byte stored from wreg
  1778  00F7  1283               	bcf	3,5	;RP0=0, select bank0
  1779  00F8  1303               	bcf	3,6	;RP1=0, select bank0
  1780  00F9  00A0               	movwf	clcd_write@byte
  1781  00FA                     l1123:	
  1782                           
  1783                           ;clcd.c: 4: static void clcd_write(unsigned char byte, unsigned char mode);clcd.c: 5: {;
      +                          clcd.c: 6:     RE2 = mode;
  1784  00FA  1874               	btfsc	clcd_write@mode,0
  1785  00FB  28FD               	goto	u431
  1786  00FC  2901               	goto	u430
  1787  00FD                     u431:	
  1788  00FD  1283               	bcf	3,5	;RP0=0, select bank0
  1789  00FE  1303               	bcf	3,6	;RP1=0, select bank0
  1790  00FF  1509               	bsf	9,2	;volatile
  1791  0100  2904               	goto	u444
  1792  0101                     u430:	
  1793  0101  1283               	bcf	3,5	;RP0=0, select bank0
  1794  0102  1303               	bcf	3,6	;RP1=0, select bank0
  1795  0103  1109               	bcf	9,2	;volatile
  1796  0104                     u444:	
  1797  0104                     l1125:	
  1798                           
  1799                           ;clcd.c: 8:     PORTD = byte & 0xF0;
  1800  0104  0820               	movf	clcd_write@byte,w
  1801  0105  39F0               	andlw	240
  1802  0106  0088               	movwf	8	;volatile
  1803  0107                     l1127:	
  1804                           
  1805                           ;clcd.c: 9:     RE1 = 1;
  1806  0107  1489               	bsf	9,1	;volatile
  1807  0108                     l1129:	
  1808                           
  1809                           ;clcd.c: 10:     _delay((unsigned long)((100)*(20000000/4000000.0)));
  1810  0108  30A6               	movlw	166
  1811  0109  00F5               	movwf	??_clcd_write
  1812  010A                     u687:	
  1813  010A  0BF5               	decfsz	??_clcd_write,f
  1814  010B  290A               	goto	u687
  1815  010C  0000               	nop
  1816  010D                     l1131:	
  1817                           
  1818                           ;clcd.c: 11:     RE1 = 0;
  1819  010D  1283               	bcf	3,5	;RP0=0, select bank0
  1820  010E  1303               	bcf	3,6	;RP1=0, select bank0
  1821  010F  1089               	bcf	9,1	;volatile
  1822  0110                     l1133:	
  1823                           
  1824                           ;clcd.c: 13:     PORTD = (byte & 0x0F) << 4;
  1825  0110  0820               	movf	clcd_write@byte,w
  1826  0111  390F               	andlw	15
  1827  0112  00F5               	movwf	??_clcd_write
  1828  0113  3003               	movlw	3
  1829  0114                     u455:	
  1830  0114  1003               	clrc
  1831  0115  0DF5               	rlf	??_clcd_write,f
  1832  0116  3EFF               	addlw	-1
  1833  0117  1D03               	skipz
  1834  0118  2914               	goto	u455
  1835  0119  1003               	clrc
  1836  011A  0D75               	rlf	??_clcd_write,w
  1837  011B  0088               	movwf	8	;volatile
  1838  011C                     l1135:	
  1839                           
  1840                           ;clcd.c: 14:     RE1 = 1;
  1841  011C  1489               	bsf	9,1	;volatile
  1842  011D                     l1137:	
  1843                           
  1844                           ;clcd.c: 15:     _delay((unsigned long)((100)*(20000000/4000000.0)));
  1845  011D  30A6               	movlw	166
  1846  011E  00F5               	movwf	??_clcd_write
  1847  011F                     u697:	
  1848  011F  0BF5               	decfsz	??_clcd_write,f
  1849  0120  291F               	goto	u697
  1850  0121  0000               	nop
  1851  0122                     l1139:	
  1852                           
  1853                           ;clcd.c: 16:     RE1 = 0;
  1854  0122  1283               	bcf	3,5	;RP0=0, select bank0
  1855  0123  1303               	bcf	3,6	;RP1=0, select bank0
  1856  0124  1089               	bcf	9,1	;volatile
  1857  0125                     l1141:	
  1858                           
  1859                           ;clcd.c: 18:     _delay((unsigned long)((4100)*(20000000/4000000.0)));
  1860  0125  301B               	movlw	27
  1861  0126  00F6               	movwf	??_clcd_write+1
  1862  0127  309E               	movlw	158
  1863  0128  00F5               	movwf	??_clcd_write
  1864  0129                     u707:	
  1865  0129  0BF5               	decfsz	??_clcd_write,f
  1866  012A  2929               	goto	u707
  1867  012B  0BF6               	decfsz	??_clcd_write+1,f
  1868  012C  2929               	goto	u707
  1869  012D  0000               	nop
  1870  012E                     l64:	
  1871  012E  0008               	return
  1872  012F                     __end_of_clcd_write:	
  1873                           
  1874                           	psect	text12
  1875  015D                     __ptext12:	
  1876 ;; *************** function _isr *****************
  1877 ;; Defined at:
  1878 ;;		line 3 in file "isr.c"
  1879 ;; Parameters:    Size  Location     Type
  1880 ;;		None
  1881 ;; Auto vars:     Size  Location     Type
  1882 ;;		None
  1883 ;; Return value:  Size  Location     Type
  1884 ;;                  1    wreg      void 
  1885 ;; Registers used:
  1886 ;;		wreg, status,2, status,0
  1887 ;; Tracked objects:
  1888 ;;		On entry : 0/0
  1889 ;;		On exit  : 0/0
  1890 ;;		Unchanged: 0/0
  1891 ;; Data sizes:     COMMON   BANK0   BANK1   BANK3   BANK2
  1892 ;;      Params:         0       0       0       0       0
  1893 ;;      Locals:         0       0       0       0       0
  1894 ;;      Temps:          4       0       0       0       0
  1895 ;;      Totals:         4       0       0       0       0
  1896 ;;Total ram usage:        4 bytes
  1897 ;; Hardware stack levels used:    1
  1898 ;; This function calls:
  1899 ;;		Nothing
  1900 ;; This function is called by:
  1901 ;;		Interrupt level 1
  1902 ;; This function uses a non-reentrant model
  1903 ;;
  1904                           
  1905                           
  1906                           ;psect for function _isr
  1907  015D                     _isr:	
  1908  015D                     i1l1111:	
  1909                           
  1910                           ;isr.c: 5:     static unsigned int count = 0;;isr.c: 6:     if(TMR2IF == 1)
  1911  015D  1283               	bcf	3,5	;RP0=0, select bank0
  1912  015E  1303               	bcf	3,6	;RP1=0, select bank0
  1913  015F  1C8C               	btfss	12,1	;volatile
  1914  0160  2962               	goto	u40_21
  1915  0161  2963               	goto	u40_20
  1916  0162                     u40_21:	
  1917  0162  2983               	goto	i1l147
  1918  0163                     u40_20:	
  1919  0163                     i1l1113:	
  1920                           
  1921                           ;isr.c: 7:     {;isr.c: 8:         if(++count <= duty_cycle)
  1922  0163  3001               	movlw	1
  1923  0164  07F7               	addwf	isr@count,f
  1924  0165  1803               	skipnc
  1925  0166  0AF8               	incf	isr@count+1,f
  1926  0167  3000               	movlw	0
  1927  0168  07F8               	addwf	isr@count+1,f
  1928  0169  082B               	movf	_duty_cycle,w
  1929  016A  00F0               	movwf	??_isr
  1930  016B  01F1               	clrf	??_isr+1
  1931  016C  0878               	movf	isr@count+1,w
  1932  016D  0271               	subwf	??_isr+1,w
  1933  016E  1D03               	skipz
  1934  016F  2972               	goto	u41_25
  1935  0170  0877               	movf	isr@count,w
  1936  0171  0270               	subwf	??_isr,w
  1937  0172                     u41_25:	
  1938  0172  1C03               	skipc
  1939  0173  2975               	goto	u41_21
  1940  0174  2976               	goto	u41_20
  1941  0175                     u41_21:	
  1942  0175  2978               	goto	i1l144
  1943  0176                     u41_20:	
  1944  0176                     i1l1115:	
  1945                           
  1946                           ;isr.c: 9:           {;isr.c: 10:             RD0 = 1;
  1947  0176  1408               	bsf	8,0	;volatile
  1948                           
  1949                           ;isr.c: 11:           }
  1950  0177  2979               	goto	i1l1117
  1951  0178                     i1l144:	
  1952                           ;isr.c: 12:         else
  1953                           
  1954                           
  1955                           ;isr.c: 13:         {;isr.c: 14:             RD0 = 0;
  1956  0178  1008               	bcf	8,0	;volatile
  1957  0179                     i1l1117:	
  1958                           
  1959                           ;isr.c: 16:         if(count == 100)
  1960  0179  3064               	movlw	100
  1961  017A  0677               	xorwf	isr@count,w
  1962  017B  0478               	iorwf	isr@count+1,w
  1963  017C  1D03               	btfss	3,2
  1964  017D  297F               	goto	u42_21
  1965  017E  2980               	goto	u42_20
  1966  017F                     u42_21:	
  1967  017F  2982               	goto	i1l1121
  1968  0180                     u42_20:	
  1969  0180                     i1l1119:	
  1970                           
  1971                           ;isr.c: 17:         {;isr.c: 18:             count = 0;
  1972  0180  01F7               	clrf	isr@count
  1973  0181  01F8               	clrf	isr@count+1
  1974  0182                     i1l1121:	
  1975                           
  1976                           ;isr.c: 21:         TMR2IF = 0;
  1977  0182  108C               	bcf	12,1	;volatile
  1978  0183                     i1l147:	
  1979  0183  0873               	movf	??_isr+3,w
  1980  0184  008A               	movwf	10
  1981  0185  0E72               	swapf	(??_isr+2)^(0+4294967168),w
  1982  0186  0083               	movwf	3
  1983  0187  0EFE               	swapf	btemp,f
  1984  0188  0E7E               	swapf	btemp,w
  1985  0189  0009               	retfie
  1986  018A                     __end_of_isr:	
  1987  007E                     btemp	set	126	;btemp
  1988  007E                     wtemp0	set	126
  1989                           
  1990                           	psect	intentry
  1991  0004                     __pintentry:	
  1992                           ;incstack = 0
  1993                           ; Regs used in _isr: [wreg+status,2+status,0]
  1994                           
  1995  0004                     interrupt_function:	
  1996  007E                     saved_w	set	btemp
  1997  0004  00FE               	movwf	btemp
  1998  0005  0E03               	swapf	3,w
  1999  0006  00F2               	movwf	??_isr+2
  2000  0007  080A               	movf	10,w
  2001  0008  00F3               	movwf	??_isr+3
  2002  0009  120A  118A  295D   	ljmp	_isr


Data Sizes:
    Strings     17
    Constant    0
    Data        1
    BSS         6
    Persistent  0
    Stack       0

Auto Spaces:
    Space          Size  Autos    Used
    COMMON           14      7      10
    BANK0            80      9      13
    BANK1            80      0       0
    BANK3            96      0       0
    BANK2            96      0       0

Pointer List with Targets:

    clcd_print@str	PTR const unsigned char  size(1) Largest target is 17
		 -> STR_1(CODE[17]), 


Critical Paths under _main in COMMON

    _main->_read_matrix_keypad
    _clcd_putch->_clcd_write
    _read_matrix_keypad->_scan_keypad
    _init_display_controller->_clcd_write
    _clcd_print->_clcd_write

Critical Paths under _isr in COMMON

    None.

Critical Paths under _main in BANK0

    _main->_software_pwm
    _software_pwm->_clcd_putch
    _clcd_putch->_clcd_write
    _init_config->_clcd_print
    _init_clcd->_init_display_controller
    _init_display_controller->_clcd_write
    _clcd_print->_clcd_write

Critical Paths under _isr in BANK0

    None.

Critical Paths under _main in BANK1

    None.

Critical Paths under _isr in BANK1

    None.

Critical Paths under _main in BANK3

    None.

Critical Paths under _isr in BANK3

    None.

Critical Paths under _main in BANK2

    None.

Critical Paths under _isr in BANK2

    None.

Call Graph Tables:

 ---------------------------------------------------------------------------------
 (Depth) Function   	        Calls       Base Space   Used Autos Params    Refs
 ---------------------------------------------------------------------------------
 (0) _main                                                 2     2      0    4190
                                              7 BANK0      2     2      0
                        _init_config
                 _read_matrix_keypad
                       _software_pwm
 ---------------------------------------------------------------------------------
 (1) _software_pwm                                         4     4      0    1576
                                              3 BANK0      4     4      0
                         _clcd_putch
 ---------------------------------------------------------------------------------
 (2) _clcd_putch                                           2     1      1    1415
                                              1 BANK0      2     1      1
                         _clcd_write
 ---------------------------------------------------------------------------------
 (1) _read_matrix_keypad                                   3     3      0     192
                                              6 COMMON     1     1      0
                                              0 BANK0      2     2      0
                        _scan_keypad
 ---------------------------------------------------------------------------------
 (2) _scan_keypad                                          2     2      0      34
                                              4 COMMON     2     2      0
 ---------------------------------------------------------------------------------
 (1) _init_config                                          1     1      0    2388
                                              4 BANK0      1     1      0
                         _clcd_print
                          _init_clcd
                 _init_matrix_keypad
                        _init_timer2
 ---------------------------------------------------------------------------------
 (2) _init_timer2                                          0     0      0       0
 ---------------------------------------------------------------------------------
 (2) _init_matrix_keypad                                   0     0      0       0
 ---------------------------------------------------------------------------------
 (2) _init_clcd                                            0     0      0    1083
            _init_display_controller
 ---------------------------------------------------------------------------------
 (3) _init_display_controller                              2     2      0    1083
                                              1 BANK0      2     2      0
                         _clcd_write
 ---------------------------------------------------------------------------------
 (2) _clcd_print                                           3     2      1    1305
                                              1 BANK0      3     2      1
                         _clcd_write
 ---------------------------------------------------------------------------------
 (3) _clcd_write                                           4     3      1    1083
                                              4 COMMON     3     2      1
                                              0 BANK0      1     1      0
 ---------------------------------------------------------------------------------
 Estimated maximum stack depth 3
 ---------------------------------------------------------------------------------
 (Depth) Function   	        Calls       Base Space   Used Autos Params    Refs
 ---------------------------------------------------------------------------------
 (5) _isr                                                  4     4      0       0
                                              0 COMMON     4     4      0
 ---------------------------------------------------------------------------------
 Estimated maximum stack depth 5
 ---------------------------------------------------------------------------------

 Call Graph Graphs:

 _main (ROOT)
   _init_config
     _clcd_print
       _clcd_write
     _init_clcd
       _init_display_controller
         _clcd_write
     _init_matrix_keypad
     _init_timer2
   _read_matrix_keypad
     _scan_keypad
   _software_pwm
     _clcd_putch
       _clcd_write

 _isr (ROOT)

 Address spaces:
Name               Size   Autos  Total    Cost      Usage
BANK3               60      0       0       9        0.0%
BITBANK3            60      0       0       8        0.0%
SFR3                 0      0       0       4        0.0%
BITSFR3              0      0       0       4        0.0%
BANK2               60      0       0      11        0.0%
BITBANK2            60      0       0      10        0.0%
SFR2                 0      0       0       5        0.0%
BITSFR2              0      0       0       5        0.0%
BANK1               50      0       0       7        0.0%
BITBANK1            50      0       0       6        0.0%
SFR1                 0      0       0       2        0.0%
BITSFR1              0      0       0       2        0.0%
BANK0               50      9       D       5       16.2%
BITBANK0            50      0       0       4        0.0%
SFR0                 0      0       0       1        0.0%
BITSFR0              0      0       0       1        0.0%
COMMON               E      7       A       1       71.4%
BITCOMMON            E      0       0       0        0.0%
CODE                 0      0       0       0        0.0%
DATA                 0      0      17      12        0.0%
ABS                  0      0      17       3        0.0%
NULL                 0      0       0       0        0.0%
STACK                0      0       0       2        0.0%
EEDATA             100      0       0       0        0.0%


Microchip Technology PIC Macro Assembler V2.10 build 88905656 
Symbol Table                                                                                   Sat Jun 27 05:24:44 2020

                               pc 0002                    clcd_print@addr 0021  __size_of_init_display_controller 0071  
                              l32 00F6                                l36 00F6                                l70 026A  
                              l39 0201                                l64 012E                                l73 0247  
                              l67 008F                                l79 015C                                l96 025F  
                              fsr 0004                _init_matrix_keypad 0255                               l101 019F  
                             l102 01A7                               l103 01B4                               l105 01AD  
                             l113 01DD                               l130 0254                               l991 025C  
                             l985 0255                               l993 0248                               l987 025A  
                             l995 024F                               _GIE 005F                               l989 025B  
                             l997 0251                               _RB0 0030                               _RB1 0031  
                             _RB2 0032                               _RD0 0040                               _RD1 0041  
                             _RE1 0049                               _RE2 004A                               u500 01B1  
                             u501 01B0                               u430 0101                               u510 00A1  
                             _PR2 0092                               u431 00FD                               u511 00A0  
                             u600 01DA                               u520 00AA                               u601 01D9  
                             u521 00A9                               u530 00B0                               u531 00AF  
                             u444 0104                               u460 015C                               u540 00CD  
                             u461 015B                               u541 00CC                               u470 019F  
                             u550 00D2                               u455 0114                               u471 019E  
                             u551 00D1                               u480 01A5                               u560 00EB  
                             u617 0025                               u481 01A4                               u561 00EA  
                             u490 01AB                               u570 01C7                               u707 0129  
                             u627 0037                               u491 01AA                               u571 01C6  
                             u580 01CE                               u637 0047                               u581 01CD  
                             u590 01D3                               u647 005F                               u591 01D2  
                             u657 006D                               u667 007D                               u677 008C  
                             u687 010A                               u697 011F                               _isr 015D  
                  clcd_putch@addr 0021                               _pos 002C                               fsr0 0004  
                  clcd_putch@data 0022                      _software_pwm 0090               ?_init_matrix_keypad 0070  
                            l1131 010D                              l1123 00FA                              l1203 01B1  
                            l1211 0093                              l1141 0125                              l1133 0110  
                            l1125 0104                              l1221 00AA                              l1213 0093  
                            l1135 011C                              l1127 0107                              l1151 004A  
                            l1143 001F                              l1207 01B3                              l1231 00CD  
                            l1223 00B0                              l1215 0093                              l1137 011D  
                            l1129 0108                              l1161 0070                              l1153 0051  
                            l1145 002A                              l1241 00EB                              l1233 00D2  
                            l1225 00B5                              l1217 00A1                              l1139 0122  
                            l1163 0081                              l1155 0054                              l1147 0031  
                            l1171 0263                              l1251 01F5                              l1243 01DE  
                            l1235 00D7                              l1227 00C0                              l1219 00A5  
                            l1181 0148                              l1165 0088                              l1157 005B  
                            l1149 0043                              l1173 0264                              l1245 01E4  
                            l1253 01B8                              l1237 00E2                              l1229 00C7  
                            l1183 014E                              l1159 0069                              l1175 0265  
                            l1247 01F3                              l1191 01A5                              l1263 01C9  
                            l1255 01C2                              l1167 0236                              l1239 00E6  
                            l1177 0132                              l1169 0260                              l1249 01F4  
                            l1185 018A                              l1265 01CE                              l1257 01C7  
                            l1179 013A                              l1187 018D                              l1267 01D3  
                            l1275 01D5                              l1283 0202                              l1197 01AB  
                            l1189 0191                              l1277 01DA                              l1285 0207  
                            l1279 01DC                              l1287 0212                  software_pwm@wait 0029  
                            ?_isr 0070                              STR_1 0222                              _PEIE 005E  
                            _main 0202                              btemp 007E                              start 000C  
            ??_init_matrix_keypad 0074                    clcd_write@byte 0020                    clcd_write@mode 0074  
                           ??_isr 0070                             ?_main 0070                     __CFG_WDTE$OFF 0000  
                           i1l144 0178                             i1l147 0183                      ?_init_config 0070  
                           u40_20 0163                             u40_21 0162                             u41_20 0176  
                           u41_21 0175                             u41_25 0172                             u42_20 0180  
                           u42_21 017F                             _PORTD 0008                             _TRISB 0086  
                           _TRISD 0088                      ?_init_timer2 0070                             _nRBPU 040F  
              _read_matrix_keypad 01B5                             pclath 000A               ?_read_matrix_keypad 0070  
                           status 0003                             wtemp0 007E                      ?_scan_keypad 0070  
                 __initialization 000F                      __end_of_main 021C              ??_read_matrix_keypad 0076  
                          ??_main 0027                            i1l1111 015D                            i1l1121 0182  
                          i1l1113 0163                            i1l1115 0176                            i1l1117 0179  
                          i1l1119 0180                            _TMR2IE 0461                            _TMR2IF 0061  
                          _TMR2ON 0092                            _TRISD0 0440                            _TRISD1 0441  
                          _TRISE1 0449                            _TRISE2 044A           _init_display_controller 001F  
                    __pdataCOMMON 0079                            saved_w 007E           __end_of__initialization 001B  
                  __pcstackCOMMON 0070              __size_of_init_config 0024              __size_of_init_timer2 000D  
                      __pbssBANK0 0029                __size_of_init_clcd 000B         ??_init_display_controller 0021  
                      _clcd_print 012F                        _clcd_putch 0233                        _clcd_write 00F7  
            __size_of_scan_keypad 002B                        __pmaintext 0202                        __pintentry 0004  
                         _T2CKPS0 0090                           _T2CKPS1 0091                        __stringtab 021C  
     __size_of_init_matrix_keypad 000B                           __ptext1 0090                           __ptext2 0233  
                         __ptext3 01B5                           __ptext4 018A                           __ptext5 01DE  
                         __ptext6 0248                           __ptext7 0255                           __ptext8 0260  
                         __ptext9 001F   __end_of_init_display_controller 0090                 __end_of_init_clcd 026B  
                    __size_of_isr 002D                        _duty_cycle 002B                           main@key 0028  
            end_of_initialization 001B                       ?_clcd_print 0021                       ?_clcd_putch 0021  
                     ?_clcd_write 0074       __size_of_read_matrix_keypad 0029                     clcd_print@str 0023  
                 software_pwm@key 0025                     __pidataCOMMON 026B                     ?_software_pwm 0070  
             start_initialization 000F               __size_of_clcd_print 002E                      scan_keypad@i 0074  
             __size_of_clcd_putch 0015               __size_of_clcd_write 0038            read_matrix_keypad@mode 0020  
          read_matrix_keypad@once 0079                       __end_of_isr 018A                     ??_init_config 0024  
                  ??_software_pwm 0023                     ??_init_timer2 0074                       __pbssCOMMON 0077  
                       ___latbits 0002                     __pcstackBANK0 0020                     ??_scan_keypad 0074  
                       __pstrings 021C                         _init_clcd 0260               __end_of_init_config 0202  
             __end_of_init_timer2 0255          ?_init_display_controller 0070                 interrupt_function 0004  
                    ??_clcd_print 0022                      ??_clcd_putch 0077        __end_of_init_matrix_keypad 0260  
                    ??_clcd_write 0075               __end_of_scan_keypad 01B5                       __stringbase 0221  
              __end_of_clcd_print 015D                __end_of_clcd_putch 0248                __end_of_clcd_write 012F  
                      ?_init_clcd 0070             read_matrix_keypad@key 0021              __end_of_software_pwm 00F7  
      __end_of_read_matrix_keypad 01DE                __end_of__stringtab 0222                       _init_config 01DE  
                     _init_timer2 0248                          __ptext10 012F                          __ptext11 00F7  
                        __ptext12 015D                     __size_of_main 001A                       _scan_keypad 018A  
                        isr@count 0077                       ??_init_clcd 0077                          intlevel1 0000  
                       stringcode 021C                          stringdir 021C                          stringtab 021C  
           __size_of_software_pwm 0067  
